(dp0
S'Getafe'
p1
I36
sS'Eibar'
p2
I37
sS'Malaga'
p3
I36
sS'Athletic Bilbao'
p4
I36
sS'Celta Vigo'
p5
I36
sS'Espanyol'
p6
I36
sS'Sevilla'
p7
I36
sS'Barcelona'
p8
I37
sS'Real Madrid'
p9
I37
sS'Atletico Madrid'
p10
I37
sS'Deportivo La Coruna'
p11
I36
sS'Real Sociedad'
p12
I37
sS'Villarreal'
p13
I36
sS'Valencia'
p14
I36
sS'Levante'
p15
I36
sS'Real Betis'
p16
I37
sS'Rayo Vallecano'
p17
I37
sS'Sporting Gijon'
p18
I37
sS'Las Palmas'
p19
I37
sS'Granada'
p20
I37
s.