(dp0
S'Getafe'
p1
I26
sS'Athletic Club'
p2
I26
sS'Espanyol'
p3
I27
sS'Eibar'
p4
I26
sS'Malaga'
p5
I27
sS'Celta Vigo'
p6
I25
sS'Sevilla'
p7
I26
sS'Barcelona'
p8
I27
sS'Real Madrid'
p9
I27
sS'Atletico Madrid'
p10
I27
sS'Deportivo La Coruna'
p11
I27
sS'Real Sociedad'
p12
I26
sS'Villarreal'
p13
I27
sS'Valencia'
p14
I27
sS'Levante'
p15
I27
sS'Real Betis'
p16
I26
sS'Rayo Vallecano'
p17
I27
sS'Sporting Gijon'
p18
I27
sS'Las Palmas'
p19
I27
sS'Granada'
p20
I27
s.