(dp0
S'Getafe'
p1
I29
sS'Athletic Club'
p2
I28
sS'Espanyol'
p3
I29
sS'Eibar'
p4
I29
sS'Malaga'
p5
I30
sS'Celta Vigo'
p6
I28
sS'Sevilla'
p7
I28
sS'Barcelona'
p8
I30
sS'Real Madrid'
p9
I29
sS'Atletico Madrid'
p10
I30
sS'Deportivo La Coruna'
p11
I30
sS'Real Sociedad'
p12
I29
sS'Villarreal'
p13
I29
sS'Valencia'
p14
I29
sS'Levante'
p15
I29
sS'Real Betis'
p16
I28
sS'Rayo Vallecano'
p17
I30
sS'Sporting Gijon'
p18
I30
sS'Las Palmas'
p19
I29
sS'Granada'
p20
I29
s.