(dp0
S'Getafe'
p1
NsS'Eibar'
p2
NsS'Malaga'
p3
NsS'Athletic Bilbao'
p4
NsS'Celta Vigo'
p5
NsS'Espanyol'
p6
NsS'Sevilla'
p7
NsS'Barcelona'
p8
NsS'Real Madrid'
p9
NsS'Atletico Madrid'
p10
NsS'Deportivo La Coruna'
p11
NsS'Real Sociedad'
p12
NsS'Villarreal'
p13
NsS'Valencia'
p14
NsS'Levante'
p15
NsS'Real Betis'
p16
NsS'Rayo Vallecano'
p17
NsS'Sporting Gijon'
p18
NsS'Las Palmas'
p19
NsS'Granada'
p20
Ns.