(dp0
S'Southampton'
p1
I36
sS'Manchester United'
p2
I35
sS'Liverpool'
p3
I35
sS'Leicester'
p4
I36
sS'Manchester City'
p5
I36
sS'West Ham'
p6
I36
sS'Norwich'
p7
I36
sS'Aston Villa'
p8
I37
sS'Arsenal'
p9
I37
sS'Bournemouth'
p10
I37
sS'Crystal Palace'
p11
I37
sS'West Bromwich Albion'
p12
I37
sS'Sunderland'
p13
I36
sS'Newcastle United'
p14
I37
sS'Watford'
p15
I36
sS'Everton'
p16
I36
sS'Stoke'
p17
I37
sS'Swansea'
p18
I36
sS'Chelsea'
p19
I35
sS'Tottenham'
p20
I36
s.