(dp0
S'Southampton'
p1
I28
sS'Manchester United'
p2
I28
sS'Liverpool'
p3
I27
sS'Tottenham'
p4
I27
sS'West Ham'
p5
I28
sS'Manchester City'
p6
I27
sS'Norwich'
p7
I28
sS'Aston Villa'
p8
I28
sS'Arsenal'
p9
I28
sS'Bournemouth'
p10
I28
sS'Crystal Palace'
p11
I28
sS'West Bromwich Albion'
p12
I27
sS'Sunderland'
p13
I28
sS'Newcastle United'
p14
I27
sS'Watford'
p15
I28
sS'Everton'
p16
I27
sS'Stoke'
p17
I28
sS'Swansea'
p18
I28
sS'Chelsea'
p19
I28
sS'Leicester'
p20
I28
s.