(dp0
S'Southampton'
p1
I31
sS'Manchester United'
p2
I30
sS'Liverpool'
p3
I29
sS'Tottenham'
p4
I30
sS'West Ham'
p5
I30
sS'Manchester City'
p6
I30
sS'Norwich'
p7
I31
sS'Aston Villa'
p8
I31
sS'Arsenal'
p9
I30
sS'Bournemouth'
p10
I31
sS'Crystal Palace'
p11
I30
sS'West Bromwich Albion'
p12
I29
sS'Sunderland'
p13
I30
sS'Newcastle United'
p14
I30
sS'Watford'
p15
I30
sS'Everton'
p16
I29
sS'Stoke'
p17
I31
sS'Swansea'
p18
I31
sS'Chelsea'
p19
I30
sS'Leicester'
p20
I31
s.