(dp0
S'Southampton'
p1
NsS'Manchester United'
p2
NsS'Liverpool'
p3
NsS'Leicester'
p4
NsS'Manchester City'
p5
NsS'West Ham'
p6
NsS'Norwich'
p7
NsS'Aston Villa'
p8
NsS'Arsenal'
p9
NsS'Bournemouth'
p10
NsS'Crystal Palace'
p11
NsS'West Bromwich Albion'
p12
NsS'Sunderland'
p13
NsS'Newcastle United'
p14
NsS'Watford'
p15
NsS'Everton'
p16
NsS'Stoke'
p17
NsS'Swansea'
p18
NsS'Chelsea'
p19
NsS'Tottenham'
p20
Ns.