(dp0
S'Borussia M.Gladbach'
p1
I33
sS'Darmstadt'
p2
I33
sS'Borussia Dortmund'
p3
I33
sS'Werder Bremen'
p4
I32
sS'Wolfsburg'
p5
I33
sS'FC Cologne'
p6
I33
sS'Bayer Leverkusen'
p7
I33
sS'Augsburg'
p8
I33
sS'Schalke 04'
p9
I33
sS'Ingolstadt'
p10
I33
sS'Mainz 05'
p11
I33
sS'Hamburger SV'
p12
I33
sS'Hannover 96'
p13
I33
sS'Eintracht Frankfurt'
p14
I33
sS'Hoffenheim'
p15
I33
sS'Bayern Munich'
p16
I33
sS'VfB Stuttgart'
p17
I32
sS'Hertha Berlin'
p18
I33
s.