(dp0
S'Borussia M.Gladbach'
p1
I24
sS'Darmstadt'
p2
I24
sS'Borussia Dortmund'
p3
I24
sS'Wolfsburg'
p4
I24
sS'Hamburger SV'
p5
I24
sS'Bayer Leverkusen'
p6
I24
sS'Augsburg'
p7
I24
sS'Schalke 04'
p8
I24
sS'Ingolstadt'
p9
I24
sS'Mainz 05'
p10
I24
sS'FC Cologne'
p11
I24
sS'Hannover 96'
p12
I24
sS'Eintracht Frankfurt'
p13
I24
sS'VfB Stuttgart'
p14
I24
sS'Hoffenheim'
p15
I24
sS'Bayern Munich'
p16
I24
sS'Werder Bremen'
p17
I24
sS'Hertha Berlin'
p18
I24
s.