(dp0
S'Borussia M.Gladbach'
p1
I26
sS'Darmstadt'
p2
I26
sS'Borussia Dortmund'
p3
I26
sS'Wolfsburg'
p4
I26
sS'Hamburger SV'
p5
I26
sS'Bayer Leverkusen'
p6
I26
sS'Augsburg'
p7
I26
sS'Schalke 04'
p8
I26
sS'Ingolstadt'
p9
I26
sS'Mainz 05'
p10
I26
sS'FC Cologne'
p11
I26
sS'Hannover 96'
p12
I26
sS'Eintracht Frankfurt'
p13
I26
sS'VfB Stuttgart'
p14
I26
sS'Hoffenheim'
p15
I26
sS'Bayern Munich'
p16
I26
sS'Werder Bremen'
p17
I26
sS'Hertha Berlin'
p18
I26
s.