(dp0
S'Borussia M.Gladbach'
p1
NsS'Darmstadt'
p2
NsS'Borussia Dortmund'
p3
NsS'Werder Bremen'
p4
NsS'Wolfsburg'
p5
NsS'FC Cologne'
p6
NsS'Bayer Leverkusen'
p7
NsS'Augsburg'
p8
NsS'Schalke 04'
p9
NsS'Ingolstadt'
p10
NsS'Mainz 05'
p11
NsS'Hamburger SV'
p12
NsS'Hannover 96'
p13
NsS'Eintracht Frankfurt'
p14
NsS'Hoffenheim'
p15
NsS'Bayern Munich'
p16
NsS'VfB Stuttgart'
p17
NsS'Hertha Berlin'
p18
Ns.