(dp0
S'Lorient'
p1
I37
sS'Reims'
p2
I37
sS'Lyon'
p3
I37
sS'Toulouse'
p4
I37
sS'Montpellier'
p5
I37
sS'Lille'
p6
I37
sS'Nice'
p7
I37
sS'Saint-Etienne'
p8
I37
sS'Angers'
p9
I36
sS'Troyes'
p10
I37
sS'Caen'
p11
I37
sS'GFC Ajaccio'
p12
I37
sS'Paris Saint Germain'
p13
I36
sS'Monaco'
p14
I37
sS'SC Bastia'
p15
I37
sS'Rennes'
p16
I37
sS'Guingamp'
p17
I37
sS'Marseille'
p18
I36
sS'Bordeaux'
p19
I36
sS'Nantes'
p20
I37
s.