(dp0
S'Lorient'
p1
I29
sS'Reims'
p2
I29
sS'Lyon'
p3
I29
sS'Toulouse'
p4
I29
sS'Montpellier'
p5
I29
sS'Lille'
p6
I29
sS'Nantes'
p7
I28
sS'Saint-Etienne'
p8
I29
sS'Angers'
p9
I29
sS'Troyes'
p10
I29
sS'Caen'
p11
I29
sS'GFC Ajaccio'
p12
I28
sS'Paris Saint Germain'
p13
I29
sS'Monaco'
p14
I29
sS'Nice'
p15
I29
sS'Rennes'
p16
I29
sS'Guingamp'
p17
I29
sS'Marseille'
p18
I28
sS'Bordeaux'
p19
I29
sS'SC Bastia'
p20
I28
s.