(dp0
S'Lorient'
p1
I31
sS'Reims'
p2
I31
sS'Lyon'
p3
I30
sS'Toulouse'
p4
I30
sS'Montpellier'
p5
I30
sS'Lille'
p6
I30
sS'Nantes'
p7
I30
sS'Saint-Etienne'
p8
I30
sS'Angers'
p9
I30
sS'Troyes'
p10
I30
sS'Caen'
p11
I30
sS'GFC Ajaccio'
p12
I30
sS'Paris Saint Germain'
p13
I30
sS'Monaco'
p14
I31
sS'Nice'
p15
I30
sS'Rennes'
p16
I30
sS'Guingamp'
p17
I30
sS'Marseille'
p18
I31
sS'Bordeaux'
p19
I30
sS'SC Bastia'
p20
I30
s.