(dp0
S'Lorient'
p1
NsS'Reims'
p2
NsS'Lyon'
p3
NsS'Toulouse'
p4
NsS'Montpellier'
p5
NsS'Lille'
p6
NsS'Nice'
p7
NsS'Saint-Etienne'
p8
NsS'Angers'
p9
NsS'Troyes'
p10
NsS'Caen'
p11
NsS'GFC Ajaccio'
p12
NsS'Paris Saint Germain'
p13
NsS'Monaco'
p14
NsS'SC Bastia'
p15
NsS'Rennes'
p16
NsS'Guingamp'
p17
NsS'Marseille'
p18
NsS'Bordeaux'
p19
NsS'Nantes'
p20
Ns.