(dp0
S'Ligue1'
p1
(dp2
S'array'
p3
(lp4
(g1
VSaint-Etienne
p5
VBordeaux
p6
(lp7
V1
p8
aV1
p9
acnumpy.core.multiarray
scalar
p10
(cnumpy
dtype
p11
(S'i4'
p12
I0
I1
tp13
Rp14
(I3
S'<'
p15
NNNI-1
I-1
I0
tp16
bS'\xff\xff\xff\xff'
p17
tp18
Rp19
tp20
a(g1
g5
VSC Bastia
p21
(lp22
V2
p23
aV1
p24
ag10
(g14
S'\x01\x00\x00\x00'
p25
tp26
Rp27
tp28
a(g1
g5
VNantes
p29
(lp30
V2
p31
aV0
p32
ag10
(g14
S'\x01\x00\x00\x00'
p33
tp34
Rp35
tp36
a(g1
g5
VNice
p37
(lp38
V1
p39
aV4
p40
ag10
(g14
S'\xff\xff\xff\xff'
p41
tp42
Rp43
tp44
a(g1
g5
VGFC Ajaccio
p45
(lp46
V2
p47
aV0
p48
ag10
(g14
S'\x01\x00\x00\x00'
p49
tp50
Rp51
tp52
a(g1
g5
VReims
p53
(lp54
V3
p55
aV0
p56
ag10
(g14
S'\x01\x00\x00\x00'
p57
tp58
Rp59
tp60
a(g1
g5
VMarseille
p61
(lp62
V0
p63
aV2
p64
ag10
(g14
S'\xff\xff\xff\xff'
p65
tp66
Rp67
tp68
a(g1
g5
VGuingamp
p69
(lp70
V3
p71
aV0
p72
ag10
(g14
S'\x01\x00\x00\x00'
p73
tp74
Rp75
tp76
a(g1
g5
VRennes
p77
(lp78
V1
p79
aV1
p80
ag10
(g14
S'\x01\x00\x00\x00'
p81
tp82
Rp83
tp84
a(g1
g5
VAngers
p85
(lp86
V1
p87
aV0
p88
ag10
(g14
S'\x01\x00\x00\x00'
p89
tp90
Rp91
tp92
a(g1
g5
VLyon
p93
(lp94
V1
p95
aV0
p96
ag10
(g14
S'\xff\xff\xff\xff'
p97
tp98
Rp99
tp100
a(g1
g5
VParis Saint Germain
p101
(lp102
V0
p103
aV2
p104
ag10
(g14
S'\xff\xff\xff\xff'
p105
tp106
Rp107
tp108
a(g1
g5
VMonaco
p109
(lp110
V1
p111
aV1
p112
ag10
(g14
S'\x01\x00\x00\x00'
p113
tp114
Rp115
tp116
a(g1
g5
VCaen
p117
(lp118
V1
p119
aV2
p120
ag10
(g14
S'\x01\x00\x00\x00'
p121
tp122
Rp123
tp124
a(g1
VToulouse
p125
VSaint-Etienne
p126
(lp127
V2
p128
aV1
p129
ag10
(g14
S'\x01\x00\x00\x00'
p130
tp131
Rp132
tp133
a(g1
g125
VMonaco
p134
(lp135
V1
p136
aV1
p137
ag10
(g14
S'\x01\x00\x00\x00'
p138
tp139
Rp140
tp141
a(g1
g125
VReims
p142
(lp143
V2
p144
aV2
p145
ag10
(g14
S'\x01\x00\x00\x00'
p146
tp147
Rp148
tp149
a(g1
g125
VMarseille
p150
(lp151
V1
p152
aV1
p153
ag10
(g14
S'\xff\xff\xff\xff'
p154
tp155
Rp156
tp157
a(g1
g125
VAngers
p158
(lp159
V1
p160
aV2
p161
ag10
(g14
S'\x01\x00\x00\x00'
p162
tp163
Rp164
tp165
a(g1
g125
VMontpellier
p166
(lp167
V1
p168
aV1
p169
ag10
(g14
S'\x01\x00\x00\x00'
p170
tp171
Rp172
tp173
a(g1
g125
VNice
p174
(lp175
V2
p176
aV0
p177
ag10
(g14
S'\xff\xff\xff\xff'
p178
tp179
Rp180
tp181
a(g1
g125
VLorient
p182
(lp183
V2
p184
aV3
p185
ag10
(g14
S'\xff\xff\xff\xff'
p186
tp187
Rp188
tp189
a(g1
g125
VLille
p190
(lp191
V1
p192
aV1
p193
ag10
(g14
S'\x00\x00\x00\x00'
p194
tp195
Rp196
tp197
a(g1
g125
VParis Saint Germain
p198
(lp199
V0
p200
aV1
p201
ag10
(g14
S'\xff\xff\xff\xff'
p202
tp203
Rp204
tp205
a(g1
g125
VGuingamp
p206
(lp207
V1
p208
aV2
p209
ag10
(g14
S'\x01\x00\x00\x00'
p210
tp211
Rp212
tp213
a(g1
g125
VNantes
p214
(lp215
V0
p216
aV0
p217
ag10
(g14
S'\x01\x00\x00\x00'
p218
tp219
Rp220
tp221
a(g1
g125
VGFC Ajaccio
p222
(lp223
V1
p224
aV1
p225
ag10
(g14
S'\x00\x00\x00\x00'
p226
tp227
Rp228
tp229
a(g1
g125
VRennes
p230
(lp231
V1
p232
aV2
p233
ag10
(g14
S'\xff\xff\xff\xff'
p234
tp235
Rp236
tp237
a(g1
VRennes
p238
VMontpellier
p239
(lp240
V1
p241
aV0
p242
ag10
(g14
S'\x00\x00\x00\x00'
p243
tp244
Rp245
tp246
a(g1
g238
VToulouse
p247
(lp248
V3
p249
aV1
p250
ag10
(g14
S'\x00\x00\x00\x00'
p251
tp252
Rp253
tp254
a(g1
g238
VLille
p255
(lp256
V1
p257
aV1
p258
ag10
(g14
S'\x01\x00\x00\x00'
p259
tp260
Rp261
tp262
a(g1
g238
VTroyes
p263
(lp264
V1
p265
aV1
p266
ag10
(g14
S'\x00\x00\x00\x00'
p267
tp268
Rp269
tp270
a(g1
g238
VNice
p271
(lp272
V1
p273
aV4
p274
ag10
(g14
S'\xff\xff\xff\xff'
p275
tp276
Rp277
tp278
a(g1
g238
VParis Saint Germain
p279
(lp280
V0
p281
aV1
p282
ag10
(g14
S'\xff\xff\xff\xff'
p283
tp284
Rp285
tp286
a(g1
g238
VBordeaux
p287
(lp288
V2
p289
aV2
p290
ag10
(g14
S'\x00\x00\x00\x00'
p291
tp292
Rp293
tp294
a(g1
g238
VMarseille
p295
(lp296
V0
p297
aV1
p298
ag10
(g14
S'\xff\xff\xff\xff'
p299
tp300
Rp301
tp302
a(g1
g238
VCaen
p303
(lp304
V1
p305
aV1
p306
ag10
(g14
S'\x01\x00\x00\x00'
p307
tp308
Rp309
tp310
a(g1
g238
VLorient
p311
(lp312
V2
p313
aV2
p314
ag10
(g14
S'\x01\x00\x00\x00'
p315
tp316
Rp317
tp318
a(g1
g238
VGFC Ajaccio
p319
(lp320
V1
p321
aV0
p322
ag10
(g14
S'\x00\x00\x00\x00'
p323
tp324
Rp325
tp326
a(g1
g238
VSaint-Etienne
p327
(lp328
V0
p329
aV1
p330
ag10
(g14
S'\x00\x00\x00\x00'
p331
tp332
Rp333
tp334
a(g1
g238
VAngers
p335
(lp336
V1
p337
aV0
p338
ag10
(g14
S'\x00\x00\x00\x00'
p339
tp340
Rp341
tp342
a(g1
g238
VNantes
p343
(lp344
V4
p345
aV1
p346
ag10
(g14
S'\x01\x00\x00\x00'
p347
tp348
Rp349
tp350
a(g1
VNice
p351
VMonaco
p352
(lp353
V1
p354
aV2
p355
ag10
(g14
S'\x01\x00\x00\x00'
p356
tp357
Rp358
tp359
a(g1
g351
VCaen
p360
(lp361
V2
p362
aV1
p363
ag10
(g14
S'\x01\x00\x00\x00'
p364
tp365
Rp366
tp367
a(g1
g351
VGuingamp
p368
(lp369
V0
p370
aV1
p371
ag10
(g14
S'\x01\x00\x00\x00'
p372
tp373
Rp374
tp375
a(g1
g351
VBordeaux
p376
(lp377
V6
p378
aV1
p379
ag10
(g14
S'\x01\x00\x00\x00'
p380
tp381
Rp382
tp383
a(g1
g351
VLille
p384
(lp385
V0
p386
aV0
p387
ag10
(g14
S'\x01\x00\x00\x00'
p388
tp389
Rp390
tp391
a(g1
g351
VNantes
p392
(lp393
V1
p394
aV2
p395
ag10
(g14
S'\x01\x00\x00\x00'
p396
tp397
Rp398
tp399
a(g1
g351
VLyon
p400
(lp401
V3
p402
aV0
p403
ag10
(g14
S'\x00\x00\x00\x00'
p404
tp405
Rp406
tp407
a(g1
g351
VParis Saint Germain
p408
(lp409
V0
p410
aV3
p411
ag10
(g14
S'\xff\xff\xff\xff'
p412
tp413
Rp414
tp415
a(g1
g351
VMontpellier
p416
(lp417
V1
p418
aV0
p419
ag10
(g14
S'\x01\x00\x00\x00'
p420
tp421
Rp422
tp423
a(g1
g351
VAngers
p424
(lp425
V2
p426
aV1
p427
ag10
(g14
S'\x01\x00\x00\x00'
p428
tp429
Rp430
tp431
a(g1
g351
VLorient
p432
(lp433
V2
p434
aV1
p435
ag10
(g14
S'\x01\x00\x00\x00'
p436
tp437
Rp438
tp439
a(g1
g351
VToulouse
p440
(lp441
V1
p442
aV0
p443
ag10
(g14
S'\x01\x00\x00\x00'
p444
tp445
Rp446
tp447
a(g1
g351
VMarseille
p448
(lp449
V1
p450
aV1
p451
ag10
(g14
S'\x01\x00\x00\x00'
p452
tp453
Rp454
tp455
a(g1
g351
VSC Bastia
p456
(lp457
V0
p458
aV2
p459
ag10
(g14
S'\x01\x00\x00\x00'
p460
tp461
Rp462
tp463
a(g1
g351
VTroyes
p464
(lp465
V2
p466
aV1
p467
ag10
(g14
S'\x01\x00\x00\x00'
p468
tp469
Rp470
tp471
a(g1
VMontpellier
p472
VParis Saint Germain
p473
(lp474
V0
p475
aV1
p476
ag10
(g14
S'\xff\xff\xff\xff'
p477
tp478
Rp479
tp480
a(g1
g472
VSaint-Etienne
p481
(lp482
V1
p483
aV2
p484
ag10
(g14
S'\x01\x00\x00\x00'
p485
tp486
Rp487
tp488
a(g1
g472
VMonaco
p489
(lp490
V2
p491
aV3
p492
ag10
(g14
S'\x01\x00\x00\x00'
p493
tp494
Rp495
tp496
a(g1
g472
VLorient
p497
(lp498
V2
p499
aV1
p500
ag10
(g14
S'\x01\x00\x00\x00'
p501
tp502
Rp503
tp504
a(g1
g472
VSC Bastia
p505
(lp506
V2
p507
aV0
p508
ag10
(g14
S'\x01\x00\x00\x00'
p509
tp510
Rp511
tp512
a(g1
g472
VNantes
p513
(lp514
V2
p515
aV1
p516
ag10
(g14
S'\x01\x00\x00\x00'
p517
tp518
Rp519
tp520
a(g1
g472
VReims
p521
(lp522
V3
p523
aV1
p524
ag10
(g14
S'\x01\x00\x00\x00'
p525
tp526
Rp527
tp528
a(g1
g472
VGFC Ajaccio
p529
(lp530
V0
p531
aV2
p532
ag10
(g14
S'\x00\x00\x00\x00'
p533
tp534
Rp535
tp536
a(g1
g472
VGuingamp
p537
(lp538
V2
p539
aV1
p540
ag10
(g14
S'\x01\x00\x00\x00'
p541
tp542
Rp543
tp544
a(g1
g472
VBordeaux
p545
(lp546
V0
p547
aV1
p548
ag10
(g14
S'\x00\x00\x00\x00'
p549
tp550
Rp551
tp552
a(g1
g472
VCaen
p553
(lp554
V1
p555
aV2
p556
ag10
(g14
S'\x01\x00\x00\x00'
p557
tp558
Rp559
tp560
a(g1
g472
VMarseille
p561
(lp562
V0
p563
aV1
p564
ag10
(g14
S'\xff\xff\xff\xff'
p565
tp566
Rp567
tp568
a(g1
g472
VToulouse
p569
(lp570
V2
p571
aV0
p572
ag10
(g14
S'\x01\x00\x00\x00'
p573
tp574
Rp575
tp576
a(g1
g472
VLille
p577
(lp578
V3
p579
aV0
p580
ag10
(g14
S'\x00\x00\x00\x00'
p581
tp582
Rp583
tp584
a(g1
VMarseille
p585
VCaen
p586
(lp587
V0
p588
aV1
p589
ag10
(g14
S'\x01\x00\x00\x00'
p590
tp591
Rp592
tp593
a(g1
g585
VTroyes
p594
(lp595
V6
p596
aV0
p597
ag10
(g14
S'\x01\x00\x00\x00'
p598
tp599
Rp600
tp601
a(g1
g585
VSC Bastia
p602
(lp603
V4
p604
aV1
p605
ag10
(g14
S'\x01\x00\x00\x00'
p606
tp607
Rp608
tp609
a(g1
g585
VLyon
p610
(lp611
V1
p612
aV1
p613
ag10
(g14
S'\xff\xff\xff\xff'
p614
tp615
Rp616
tp617
a(g1
g585
VAngers
p618
(lp619
V1
p620
aV2
p621
ag10
(g14
S'\x01\x00\x00\x00'
p622
tp623
Rp624
tp625
a(g1
g585
VLorient
p626
(lp627
V1
p628
aV1
p629
ag10
(g14
S'\x01\x00\x00\x00'
p630
tp631
Rp632
tp633
a(g1
g585
VNice
p634
(lp635
V0
p636
aV1
p637
ag10
(g14
S'\xff\xff\xff\xff'
p638
tp639
Rp640
tp641
a(g1
g585
VMonaco
p642
(lp643
V3
p644
aV3
p645
ag10
(g14
S'\x01\x00\x00\x00'
p646
tp647
Rp648
tp649
a(g1
g585
VMontpellier
p650
(lp651
V2
p652
aV2
p653
ag10
(g14
S'\x01\x00\x00\x00'
p654
tp655
Rp656
tp657
a(g1
g585
VGFC Ajaccio
p658
(lp659
V1
p660
aV1
p661
ag10
(g14
S'\x01\x00\x00\x00'
p662
tp663
Rp664
tp665
a(g1
g585
VGuingamp
p666
(lp667
V0
p668
aV0
p669
ag10
(g14
S'\x01\x00\x00\x00'
p670
tp671
Rp672
tp673
a(g1
g585
VLille
p674
(lp675
V1
p676
aV1
p677
ag10
(g14
S'\x01\x00\x00\x00'
p678
tp679
Rp680
tp681
a(g1
g585
VParis Saint Germain
p682
(lp683
V1
p684
aV2
p685
ag10
(g14
S'\xff\xff\xff\xff'
p686
tp687
Rp688
tp689
a(g1
g585
VSaint-Etienne
p690
(lp691
V1
p692
aV1
p693
ag10
(g14
S'\x01\x00\x00\x00'
p694
tp695
Rp696
tp697
a(g1
g585
VToulouse
p698
(lp699
V1
p700
aV1
p701
ag10
(g14
S'\x01\x00\x00\x00'
p702
tp703
Rp704
tp705
a(g1
VLyon
p706
VLorient
p707
(lp708
V0
p709
aV0
p710
ag10
(g14
S'\x01\x00\x00\x00'
p711
tp712
Rp713
tp714
a(g1
g706
VRennes
p715
(lp716
V1
p717
aV2
p718
ag10
(g14
S'\x01\x00\x00\x00'
p719
tp720
Rp721
tp722
a(g1
g706
VLille
p723
(lp724
V0
p725
aV0
p726
ag10
(g14
S'\x01\x00\x00\x00'
p727
tp728
Rp729
tp730
a(g1
g706
VSC Bastia
p731
(lp732
V2
p733
aV0
p734
ag10
(g14
S'\x01\x00\x00\x00'
p735
tp736
Rp737
tp738
a(g1
g706
VReims
p739
(lp740
V1
p741
aV0
p742
ag10
(g14
S'\x01\x00\x00\x00'
p743
tp744
Rp745
tp746
a(g1
g706
VToulouse
p747
(lp748
V3
p749
aV0
p750
ag10
(g14
S'\x01\x00\x00\x00'
p751
tp752
Rp753
tp754
a(g1
g706
VSaint-Etienne
p755
(lp756
V3
p757
aV0
p758
ag10
(g14
S'\x01\x00\x00\x00'
p759
tp760
Rp761
tp762
a(g1
g706
VMontpellier
p763
(lp764
V2
p765
aV4
p766
ag10
(g14
S'\x01\x00\x00\x00'
p767
tp768
Rp769
tp770
a(g1
g706
VAngers
p771
(lp772
V0
p773
aV2
p774
ag10
(g14
S'\x01\x00\x00\x00'
p775
tp776
Rp777
tp778
a(g1
g706
VTroyes
p779
(lp780
V4
p781
aV1
p782
ag10
(g14
S'\x01\x00\x00\x00'
p783
tp784
Rp785
tp786
a(g1
g706
VMarseille
p787
(lp788
V1
p789
aV1
p790
ag10
(g14
S'\x01\x00\x00\x00'
p791
tp792
Rp793
tp794
a(g1
g706
VBordeaux
p795
(lp796
V3
p797
aV0
p798
ag10
(g14
S'\x01\x00\x00\x00'
p799
tp800
Rp801
tp802
a(g1
g706
VCaen
p803
(lp804
V4
p805
aV1
p806
ag10
(g14
S'\x01\x00\x00\x00'
p807
tp808
Rp809
tp810
a(g1
g706
VParis Saint Germain
p811
(lp812
V2
p813
aV1
p814
ag10
(g14
S'\xff\xff\xff\xff'
p815
tp816
Rp817
tp818
a(g1
g706
VGuingamp
p819
(lp820
V5
p821
aV1
p822
ag10
(g14
S'\x01\x00\x00\x00'
p823
tp824
Rp825
tp826
a(g1
VGFC Ajaccio
p827
VAngers
p828
(lp829
V0
p830
aV2
p831
ag10
(g14
S'\x01\x00\x00\x00'
p832
tp833
Rp834
tp835
a(g1
g827
VMonaco
p836
(lp837
V0
p838
aV1
p839
ag10
(g14
S'\x01\x00\x00\x00'
p840
tp841
Rp842
tp843
a(g1
g827
VRennes
p844
(lp845
V1
p846
aV1
p847
ag10
(g14
S'\xff\xff\xff\xff'
p848
tp849
Rp850
tp851
a(g1
g827
VToulouse
p852
(lp853
V2
p854
aV2
p855
ag10
(g14
S'\xff\xff\xff\xff'
p856
tp857
Rp858
tp859
a(g1
g827
VNice
p860
(lp861
V3
p862
aV1
p863
ag10
(g14
S'\xff\xff\xff\xff'
p864
tp865
Rp866
tp867
a(g1
g827
VBordeaux
p868
(lp869
V2
p870
aV0
p871
ag10
(g14
S'\xff\xff\xff\xff'
p872
tp873
Rp874
tp875
a(g1
g827
VLorient
p876
(lp877
V1
p878
aV1
p879
ag10
(g14
S'\xff\xff\xff\xff'
p880
tp881
Rp882
tp883
a(g1
g827
VNantes
p884
(lp885
V1
p886
aV1
p887
ag10
(g14
S'\x00\x00\x00\x00'
p888
tp889
Rp890
tp891
a(g1
g827
VLyon
p892
(lp893
V2
p894
aV1
p895
ag10
(g14
S'\xff\xff\xff\xff'
p896
tp897
Rp898
tp899
a(g1
g827
VReims
p900
(lp901
V2
p902
aV2
p903
ag10
(g14
S'\x00\x00\x00\x00'
p904
tp905
Rp906
tp907
a(g1
g827
VMontpellier
p908
(lp909
V0
p910
aV4
p911
ag10
(g14
S'\x01\x00\x00\x00'
p912
tp913
Rp914
tp915
a(g1
g827
VGuingamp
p916
(lp917
V0
p918
aV0
p919
ag10
(g14
S'\x01\x00\x00\x00'
p920
tp921
Rp922
tp923
a(g1
g827
VTroyes
p924
(lp925
V2
p926
aV3
p927
ag10
(g14
S'\x00\x00\x00\x00'
p928
tp929
Rp930
tp931
a(g1
g827
VMarseille
p932
(lp933
V1
p934
aV1
p935
ag10
(g14
S'\xff\xff\xff\xff'
p936
tp937
Rp938
tp939
a(g1
VGuingamp
p940
VLyon
p941
(lp942
V0
p943
aV1
p944
ag10
(g14
S'\xff\xff\xff\xff'
p945
tp946
Rp947
tp948
a(g1
g940
VMarseille
p949
(lp950
V2
p951
aV0
p952
ag10
(g14
S'\xff\xff\xff\xff'
p953
tp954
Rp955
tp956
a(g1
g940
VGFC Ajaccio
p957
(lp958
V2
p959
aV1
p960
ag10
(g14
S'\xff\xff\xff\xff'
p961
tp962
Rp963
tp964
a(g1
g940
VMonaco
p965
(lp966
V3
p967
aV3
p968
ag10
(g14
S'\xff\xff\xff\xff'
p969
tp970
Rp971
tp972
a(g1
g940
VLille
p973
(lp974
V1
p975
aV1
p976
ag10
(g14
S'\xff\xff\xff\xff'
p977
tp978
Rp979
tp980
a(g1
g940
VLorient
p981
(lp982
V2
p983
aV2
p984
ag10
(g14
S'\xff\xff\xff\xff'
p985
tp986
Rp987
tp988
a(g1
g940
VToulouse
p989
(lp990
V2
p991
aV0
p992
ag10
(g14
S'\x01\x00\x00\x00'
p993
tp994
Rp995
tp996
a(g1
g940
VReims
p997
(lp998
V1
p999
aV2
p1000
ag10
(g14
S'\xff\xff\xff\xff'
p1001
tp1002
Rp1003
tp1004
a(g1
g940
VRennes
p1005
(lp1006
V0
p1007
aV2
p1008
ag10
(g14
S'\xff\xff\xff\xff'
p1009
tp1010
Rp1011
tp1012
a(g1
g940
VNantes
p1013
(lp1014
V2
p1015
aV2
p1016
ag10
(g14
S'\xff\xff\xff\xff'
p1017
tp1018
Rp1019
tp1020
a(g1
g940
VSC Bastia
p1021
(lp1022
V1
p1023
aV0
p1024
ag10
(g14
S'\x00\x00\x00\x00'
p1025
tp1026
Rp1027
tp1028
a(g1
g940
VTroyes
p1029
(lp1030
V4
p1031
aV0
p1032
ag10
(g14
S'\xff\xff\xff\xff'
p1033
tp1034
Rp1035
tp1036
a(g1
g940
VBordeaux
p1037
(lp1038
V2
p1039
aV4
p1040
ag10
(g14
S'\xff\xff\xff\xff'
p1041
tp1042
Rp1043
tp1044
a(g1
g940
VAngers
p1045
(lp1046
V2
p1047
aV2
p1048
ag10
(g14
S'\xff\xff\xff\xff'
p1049
tp1050
Rp1051
tp1052
a(g1
VLorient
p1053
VSC Bastia
p1054
(lp1055
V1
p1056
aV1
p1057
ag10
(g14
S'\x01\x00\x00\x00'
p1058
tp1059
Rp1060
tp1061
a(g1
g1053
VSaint-Etienne
p1062
(lp1063
V0
p1064
aV1
p1065
ag10
(g14
S'\x01\x00\x00\x00'
p1066
tp1067
Rp1068
tp1069
a(g1
g1053
VAngers
p1070
(lp1071
V3
p1072
aV1
p1073
ag10
(g14
S'\x01\x00\x00\x00'
p1074
tp1075
Rp1076
tp1077
a(g1
g1053
VCaen
p1078
(lp1079
V2
p1080
aV0
p1081
ag10
(g14
S'\x01\x00\x00\x00'
p1082
tp1083
Rp1084
tp1085
a(g1
g1053
VBordeaux
p1086
(lp1087
V3
p1088
aV2
p1089
ag10
(g14
S'\x00\x00\x00\x00'
p1090
tp1091
Rp1092
tp1093
a(g1
g1053
VRennes
p1094
(lp1095
V1
p1096
aV1
p1097
ag10
(g14
S'\x01\x00\x00\x00'
p1098
tp1099
Rp1100
tp1101
a(g1
g1053
VTroyes
p1102
(lp1103
V4
p1104
aV1
p1105
ag10
(g14
S'\x00\x00\x00\x00'
p1106
tp1107
Rp1108
tp1109
a(g1
g1053
VParis Saint Germain
p1110
(lp1111
V1
p1112
aV2
p1113
ag10
(g14
S'\xff\xff\xff\xff'
p1114
tp1115
Rp1116
tp1117
a(g1
g1053
VNice
p1118
(lp1119
V0
p1120
aV0
p1121
ag10
(g14
S'\xff\xff\xff\xff'
p1122
tp1123
Rp1124
tp1125
a(g1
g1053
VNantes
p1126
(lp1127
V0
p1128
aV0
p1129
ag10
(g14
S'\x01\x00\x00\x00'
p1130
tp1131
Rp1132
tp1133
a(g1
g1053
VMonaco
p1134
(lp1135
V0
p1136
aV2
p1137
ag10
(g14
S'\x01\x00\x00\x00'
p1138
tp1139
Rp1140
tp1141
a(g1
g1053
VReims
p1142
(lp1143
V2
p1144
aV0
p1145
ag10
(g14
S'\x01\x00\x00\x00'
p1146
tp1147
Rp1148
tp1149
a(g1
g1053
VMontpellier
p1150
(lp1151
V1
p1152
aV1
p1153
ag10
(g14
S'\x01\x00\x00\x00'
p1154
tp1155
Rp1156
tp1157
a(g1
g1053
VGuingamp
p1158
(lp1159
V4
p1160
aV3
p1161
ag10
(g14
S'\x01\x00\x00\x00'
p1162
tp1163
Rp1164
tp1165
a(g1
g1053
VMarseille
p1166
(lp1167
V1
p1168
aV1
p1169
ag10
(g14
S'\x00\x00\x00\x00'
p1170
tp1171
Rp1172
tp1173
a(g1
VLille
p1174
VParis Saint Germain
p1175
(lp1176
V0
p1177
aV1
p1178
ag10
(g14
S'\xff\xff\xff\xff'
p1179
tp1180
Rp1181
tp1182
a(g1
g1174
VBordeaux
p1183
(lp1184
V0
p1185
aV0
p1186
ag10
(g14
S'\xff\xff\xff\xff'
p1187
tp1188
Rp1189
tp1190
a(g1
g1174
VGFC Ajaccio
p1191
(lp1192
V1
p1193
aV0
p1194
ag10
(g14
S'\x00\x00\x00\x00'
p1195
tp1196
Rp1197
tp1198
a(g1
g1174
VNantes
p1199
(lp1200
V0
p1201
aV1
p1202
ag10
(g14
S'\x01\x00\x00\x00'
p1203
tp1204
Rp1205
tp1206
a(g1
g1174
VMontpellier
p1207
(lp1208
V2
p1209
aV0
p1210
ag10
(g14
S'\xff\xff\xff\xff'
p1211
tp1212
Rp1213
tp1214
a(g1
g1174
VMarseille
p1215
(lp1216
V1
p1217
aV2
p1218
ag10
(g14
S'\xff\xff\xff\xff'
p1219
tp1220
Rp1221
tp1222
a(g1
g1174
VSC Bastia
p1223
(lp1224
V1
p1225
aV1
p1226
ag10
(g14
S'\x01\x00\x00\x00'
p1227
tp1228
Rp1229
tp1230
a(g1
g1174
VSaint-Etienne
p1231
(lp1232
V1
p1233
aV0
p1234
ag10
(g14
S'\x01\x00\x00\x00'
p1235
tp1236
Rp1237
tp1238
a(g1
g1174
VLorient
p1239
(lp1240
V3
p1241
aV0
p1242
ag10
(g14
S'\xff\xff\xff\xff'
p1243
tp1244
Rp1245
tp1246
a(g1
g1174
VNice
p1247
(lp1248
V1
p1249
aV1
p1250
ag10
(g14
S'\xff\xff\xff\xff'
p1251
tp1252
Rp1253
tp1254
a(g1
g1174
VTroyes
p1255
(lp1256
V1
p1257
aV3
p1258
ag10
(g14
S'\x01\x00\x00\x00'
p1259
tp1260
Rp1261
tp1262
a(g1
g1174
VCaen
p1263
(lp1264
V1
p1265
aV0
p1266
ag10
(g14
S'\x01\x00\x00\x00'
p1267
tp1268
Rp1269
tp1270
a(g1
g1174
VRennes
p1271
(lp1272
V1
p1273
aV1
p1274
ag10
(g14
S'\x01\x00\x00\x00'
p1275
tp1276
Rp1277
tp1278
a(g1
g1174
VLyon
p1279
(lp1280
V1
p1281
aV0
p1282
ag10
(g14
S'\xff\xff\xff\xff'
p1283
tp1284
Rp1285
tp1286
a(g1
g1174
VReims
p1287
(lp1288
V2
p1289
aV0
p1290
ag10
(g14
S'\x01\x00\x00\x00'
p1291
tp1292
Rp1293
tp1294
a(g1
VReims
p1295
VMarseille
p1296
(lp1297
V1
p1298
aV0
p1299
ag10
(g14
S'\xff\xff\xff\xff'
p1300
tp1301
Rp1302
tp1303
a(g1
g1295
VLorient
p1304
(lp1305
V4
p1306
aV1
p1307
ag10
(g14
S'\xff\xff\xff\xff'
p1308
tp1309
Rp1310
tp1311
a(g1
g1295
VParis Saint Germain
p1312
(lp1313
V1
p1314
aV1
p1315
ag10
(g14
S'\xff\xff\xff\xff'
p1316
tp1317
Rp1318
tp1319
a(g1
g1295
VLille
p1320
(lp1321
V1
p1322
aV0
p1323
ag10
(g14
S'\x00\x00\x00\x00'
p1324
tp1325
Rp1326
tp1327
a(g1
g1295
VCaen
p1328
(lp1329
V0
p1330
aV1
p1331
ag10
(g14
S'\x01\x00\x00\x00'
p1332
tp1333
Rp1334
tp1335
a(g1
g1295
VMonaco
p1336
(lp1337
V0
p1338
aV1
p1339
ag10
(g14
S'\x01\x00\x00\x00'
p1340
tp1341
Rp1342
tp1343
a(g1
g1295
VGFC Ajaccio
p1344
(lp1345
V1
p1346
aV2
p1347
ag10
(g14
S'\x00\x00\x00\x00'
p1348
tp1349
Rp1350
tp1351
a(g1
g1295
VRennes
p1352
(lp1353
V2
p1354
aV2
p1355
ag10
(g14
S'\x01\x00\x00\x00'
p1356
tp1357
Rp1358
tp1359
a(g1
g1295
VTroyes
p1360
(lp1361
V1
p1362
aV1
p1363
ag10
(g14
S'\x01\x00\x00\x00'
p1364
tp1365
Rp1366
tp1367
a(g1
g1295
VNice
p1368
(lp1369
V1
p1370
aV1
p1371
ag10
(g14
S'\xff\xff\xff\xff'
p1372
tp1373
Rp1374
tp1375
a(g1
g1295
VToulouse
p1376
(lp1377
V1
p1378
aV3
p1379
ag10
(g14
S'\x01\x00\x00\x00'
p1380
tp1381
Rp1382
tp1383
a(g1
g1295
VSaint-Etienne
p1384
(lp1385
V1
p1386
aV1
p1387
ag10
(g14
S'\x00\x00\x00\x00'
p1388
tp1389
Rp1390
tp1391
a(g1
g1295
VAngers
p1392
(lp1393
V2
p1394
aV1
p1395
ag10
(g14
S'\x00\x00\x00\x00'
p1396
tp1397
Rp1398
tp1399
a(g1
g1295
VSC Bastia
p1400
(lp1401
V0
p1402
aV1
p1403
ag10
(g14
S'\x01\x00\x00\x00'
p1404
tp1405
Rp1406
tp1407
a(g1
g1295
VBordeaux
p1408
(lp1409
V4
p1410
aV1
p1411
ag10
(g14
S'\xff\xff\xff\xff'
p1412
tp1413
Rp1414
tp1415
a(g1
VMonaco
p1416
VLille
p1417
(lp1418
V0
p1419
aV0
p1420
ag10
(g14
S'\x01\x00\x00\x00'
p1421
tp1422
Rp1423
tp1424
a(g1
g1416
VParis Saint Germain
p1425
(lp1426
V0
p1427
aV3
p1428
ag10
(g14
S'\xff\xff\xff\xff'
p1429
tp1430
Rp1431
tp1432
a(g1
g1416
VLorient
p1433
(lp1434
V2
p1435
aV3
p1436
ag10
(g14
S'\x01\x00\x00\x00'
p1437
tp1438
Rp1439
tp1440
a(g1
g1416
VRennes
p1441
(lp1442
V1
p1443
aV1
p1444
ag10
(g14
S'\x01\x00\x00\x00'
p1445
tp1446
Rp1447
tp1448
a(g1
g1416
VLyon
p1449
(lp1450
V1
p1451
aV1
p1452
ag10
(g14
S'\xff\xff\xff\xff'
p1453
tp1454
Rp1455
tp1456
a(g1
g1416
VAngers
p1457
(lp1458
V1
p1459
aV0
p1460
ag10
(g14
S'\x01\x00\x00\x00'
p1461
tp1462
Rp1463
tp1464
a(g1
g1416
VNantes
p1465
(lp1466
V1
p1467
aV0
p1468
ag10
(g14
S'\x01\x00\x00\x00'
p1469
tp1470
Rp1471
tp1472
a(g1
g1416
VCaen
p1473
(lp1474
V1
p1475
aV1
p1476
ag10
(g14
S'\x01\x00\x00\x00'
p1477
tp1478
Rp1479
tp1480
a(g1
g1416
VSaint-Etienne
p1481
(lp1482
V1
p1483
aV0
p1484
ag10
(g14
S'\x01\x00\x00\x00'
p1485
tp1486
Rp1487
tp1488
a(g1
g1416
VGFC Ajaccio
p1489
(lp1490
V2
p1491
aV2
p1492
ag10
(g14
S'\x00\x00\x00\x00'
p1493
tp1494
Rp1495
tp1496
a(g1
g1416
VToulouse
p1497
(lp1498
V4
p1499
aV0
p1500
ag10
(g14
S'\x01\x00\x00\x00'
p1501
tp1502
Rp1503
tp1504
a(g1
g1416
VSC Bastia
p1505
(lp1506
V2
p1507
aV0
p1508
ag10
(g14
S'\x01\x00\x00\x00'
p1509
tp1510
Rp1511
tp1512
a(g1
g1416
VNice
p1513
(lp1514
V1
p1515
aV0
p1516
ag10
(g14
S'\xff\xff\xff\xff'
p1517
tp1518
Rp1519
tp1520
a(g1
g1416
VTroyes
p1521
(lp1522
V3
p1523
aV1
p1524
ag10
(g14
S'\x01\x00\x00\x00'
p1525
tp1526
Rp1527
tp1528
a(g1
g1416
VReims
p1529
(lp1530
V2
p1531
aV2
p1532
ag10
(g14
S'\x01\x00\x00\x00'
p1533
tp1534
Rp1535
tp1536
a(g1
VTroyes
p1537
VNice
p1538
(lp1539
V3
p1540
aV3
p1541
ag10
(g14
S'\xff\xff\xff\xff'
p1542
tp1543
Rp1544
tp1545
a(g1
g1537
VMontpellier
p1546
(lp1547
V0
p1548
aV0
p1549
ag10
(g14
S'\xff\xff\xff\xff'
p1550
tp1551
Rp1552
tp1553
a(g1
g1537
VCaen
p1554
(lp1555
V1
p1556
aV3
p1557
ag10
(g14
S'\x01\x00\x00\x00'
p1558
tp1559
Rp1560
tp1561
a(g1
g1537
VSaint-Etienne
p1562
(lp1563
V0
p1564
aV1
p1565
ag10
(g14
S'\x00\x00\x00\x00'
p1566
tp1567
Rp1568
tp1569
a(g1
g1537
VGuingamp
p1570
(lp1571
V0
p1572
aV1
p1573
ag10
(g14
S'\x01\x00\x00\x00'
p1574
tp1575
Rp1576
tp1577
a(g1
g1537
VLyon
p1578
(lp1579
V0
p1580
aV1
p1581
ag10
(g14
S'\xff\xff\xff\xff'
p1582
tp1583
Rp1584
tp1585
a(g1
g1537
VLille
p1586
(lp1587
V1
p1588
aV1
p1589
ag10
(g14
S'\x01\x00\x00\x00'
p1590
tp1591
Rp1592
tp1593
a(g1
g1537
VToulouse
p1594
(lp1595
V0
p1596
aV3
p1597
ag10
(g14
S'\x01\x00\x00\x00'
p1598
tp1599
Rp1600
tp1601
a(g1
g1537
VSC Bastia
p1602
(lp1603
V1
p1604
aV1
p1605
ag10
(g14
S'\x01\x00\x00\x00'
p1606
tp1607
Rp1608
tp1609
a(g1
g1537
VMonaco
p1610
(lp1611
V0
p1612
aV0
p1613
ag10
(g14
S'\x01\x00\x00\x00'
p1614
tp1615
Rp1616
tp1617
a(g1
g1537
VRennes
p1618
(lp1619
V2
p1620
aV4
p1621
ag10
(g14
S'\x01\x00\x00\x00'
p1622
tp1623
Rp1624
tp1625
a(g1
g1537
VNantes
p1626
(lp1627
V0
p1628
aV1
p1629
ag10
(g14
S'\x01\x00\x00\x00'
p1630
tp1631
Rp1632
tp1633
a(g1
g1537
VLorient
p1634
(lp1635
V0
p1636
aV1
p1637
ag10
(g14
S'\x01\x00\x00\x00'
p1638
tp1639
Rp1640
tp1641
a(g1
VParis Saint Germain
p1642
VGFC Ajaccio
p1643
(lp1644
V2
p1645
aV0
p1646
ag10
(g14
S'\x01\x00\x00\x00'
p1647
tp1648
Rp1649
tp1650
a(g1
g1642
VBordeaux
p1651
(lp1652
V2
p1653
aV2
p1654
ag10
(g14
S'\x01\x00\x00\x00'
p1655
tp1656
Rp1657
tp1658
a(g1
g1642
VGuingamp
p1659
(lp1660
V3
p1661
aV0
p1662
ag10
(g14
S'\x01\x00\x00\x00'
p1663
tp1664
Rp1665
tp1666
a(g1
g1642
VMarseille
p1667
(lp1668
V2
p1669
aV1
p1670
ag10
(g14
S'\x01\x00\x00\x00'
p1671
tp1672
Rp1673
tp1674
a(g1
g1642
VSaint-Etienne
p1675
(lp1676
V4
p1677
aV1
p1678
ag10
(g14
S'\x01\x00\x00\x00'
p1679
tp1680
Rp1681
tp1682
a(g1
g1642
VToulouse
p1683
(lp1684
V5
p1685
aV0
p1686
ag10
(g14
S'\x01\x00\x00\x00'
p1687
tp1688
Rp1689
tp1690
a(g1
g1642
VTroyes
p1691
(lp1692
V4
p1693
aV1
p1694
ag10
(g14
S'\x01\x00\x00\x00'
p1695
tp1696
Rp1697
tp1698
a(g1
g1642
VLyon
p1699
(lp1700
V5
p1701
aV1
p1702
ag10
(g14
S'\x01\x00\x00\x00'
p1703
tp1704
Rp1705
tp1706
a(g1
g1642
VSC Bastia
p1707
(lp1708
V2
p1709
aV0
p1710
ag10
(g14
S'\x01\x00\x00\x00'
p1711
tp1712
Rp1713
tp1714
a(g1
g1642
VAngers
p1715
(lp1716
V5
p1717
aV1
p1718
ag10
(g14
S'\x01\x00\x00\x00'
p1719
tp1720
Rp1721
tp1722
a(g1
g1642
VLorient
p1723
(lp1724
V3
p1725
aV1
p1726
ag10
(g14
S'\x01\x00\x00\x00'
p1727
tp1728
Rp1729
tp1730
a(g1
g1642
VLille
p1731
(lp1732
V0
p1733
aV0
p1734
ag10
(g14
S'\x01\x00\x00\x00'
p1735
tp1736
Rp1737
tp1738
a(g1
g1642
VReims
p1739
(lp1740
V4
p1741
aV1
p1742
ag10
(g14
S'\x01\x00\x00\x00'
p1743
tp1744
Rp1745
tp1746
a(g1
g1642
VMontpellier
p1747
(lp1748
V0
p1749
aV0
p1750
ag10
(g14
S'\x01\x00\x00\x00'
p1751
tp1752
Rp1753
tp1754
a(g1
VAngers
p1755
VNantes
p1756
(lp1757
V0
p1758
aV0
p1759
ag10
(g14
S'\xff\xff\xff\xff'
p1760
tp1761
Rp1762
tp1763
a(g1
g1755
VNice
p1764
(lp1765
V1
p1766
aV1
p1767
ag10
(g14
S'\xff\xff\xff\xff'
p1768
tp1769
Rp1770
tp1771
a(g1
g1755
VTroyes
p1772
(lp1773
V1
p1774
aV0
p1775
ag10
(g14
S'\xff\xff\xff\xff'
p1776
tp1777
Rp1778
tp1779
a(g1
g1755
VReims
p1780
(lp1781
V0
p1782
aV0
p1783
ag10
(g14
S'\xff\xff\xff\xff'
p1784
tp1785
Rp1786
tp1787
a(g1
g1755
VSC Bastia
p1788
(lp1789
V1
p1790
aV0
p1791
ag10
(g14
S'\x00\x00\x00\x00'
p1792
tp1793
Rp1794
tp1795
a(g1
g1755
VGuingamp
p1796
(lp1797
V0
p1798
aV0
p1799
ag10
(g14
S'\x01\x00\x00\x00'
p1800
tp1801
Rp1802
tp1803
a(g1
g1755
VRennes
p1804
(lp1805
V0
p1806
aV2
p1807
ag10
(g14
S'\xff\xff\xff\xff'
p1808
tp1809
Rp1810
tp1811
a(g1
g1755
VLille
p1812
(lp1813
V2
p1814
aV0
p1815
ag10
(g14
S'\x01\x00\x00\x00'
p1816
tp1817
Rp1818
tp1819
a(g1
g1755
VParis Saint Germain
p1820
(lp1821
V0
p1822
aV0
p1823
ag10
(g14
S'\xff\xff\xff\xff'
p1824
tp1825
Rp1826
tp1827
a(g1
g1755
VBordeaux
p1828
(lp1829
V1
p1830
aV1
p1831
ag10
(g14
S'\xff\xff\xff\xff'
p1832
tp1833
Rp1834
tp1835
a(g1
g1755
VCaen
p1836
(lp1837
V2
p1838
aV0
p1839
ag10
(g14
S'\x01\x00\x00\x00'
p1840
tp1841
Rp1842
tp1843
a(g1
g1755
VMonaco
p1844
(lp1845
V3
p1846
aV0
p1847
ag10
(g14
S'\xff\xff\xff\xff'
p1848
tp1849
Rp1850
tp1851
a(g1
g1755
VLyon
p1852
(lp1853
V0
p1854
aV3
p1855
ag10
(g14
S'\xff\xff\xff\xff'
p1856
tp1857
Rp1858
tp1859
a(g1
g1755
VMontpellier
p1860
(lp1861
V2
p1862
aV3
p1863
ag10
(g14
S'\xff\xff\xff\xff'
p1864
tp1865
Rp1866
tp1867
a(g1
g1755
VSaint-Etienne
p1868
(lp1869
V0
p1870
aV0
p1871
ag10
(g14
S'\xff\xff\xff\xff'
p1872
tp1873
Rp1874
tp1875
a(g1
VNantes
p1876
VGuingamp
p1877
(lp1878
V1
p1879
aV0
p1880
ag10
(g14
S'\x01\x00\x00\x00'
p1881
tp1882
Rp1883
tp1884
a(g1
g1876
VReims
p1885
(lp1886
V1
p1887
aV0
p1888
ag10
(g14
S'\x01\x00\x00\x00'
p1889
tp1890
Rp1891
tp1892
a(g1
g1876
VRennes
p1893
(lp1894
V0
p1895
aV2
p1896
ag10
(g14
S'\x01\x00\x00\x00'
p1897
tp1898
Rp1899
tp1900
a(g1
g1876
VParis Saint Germain
p1901
(lp1902
V1
p1903
aV4
p1904
ag10
(g14
S'\xff\xff\xff\xff'
p1905
tp1906
Rp1907
tp1908
a(g1
g1876
VTroyes
p1909
(lp1910
V3
p1911
aV0
p1912
ag10
(g14
S'\x01\x00\x00\x00'
p1913
tp1914
Rp1915
tp1916
a(g1
g1876
VMarseille
p1917
(lp1918
V0
p1919
aV1
p1920
ag10
(g14
S'\xff\xff\xff\xff'
p1921
tp1922
Rp1923
tp1924
a(g1
g1876
VSC Bastia
p1925
(lp1926
V0
p1927
aV0
p1928
ag10
(g14
S'\x01\x00\x00\x00'
p1929
tp1930
Rp1931
tp1932
a(g1
g1876
VLyon
p1933
(lp1934
V0
p1935
aV0
p1936
ag10
(g14
S'\xff\xff\xff\xff'
p1937
tp1938
Rp1939
tp1940
a(g1
g1876
VToulouse
p1941
(lp1942
V1
p1943
aV1
p1944
ag10
(g14
S'\x01\x00\x00\x00'
p1945
tp1946
Rp1947
tp1948
a(g1
g1876
VSaint-Etienne
p1949
(lp1950
V2
p1951
aV1
p1952
ag10
(g14
S'\x00\x00\x00\x00'
p1953
tp1954
Rp1955
tp1956
a(g1
g1876
VBordeaux
p1957
(lp1958
V2
p1959
aV2
p1960
ag10
(g14
S'\xff\xff\xff\xff'
p1961
tp1962
Rp1963
tp1964
a(g1
g1876
VGFC Ajaccio
p1965
(lp1966
V3
p1967
aV1
p1968
ag10
(g14
S'\x00\x00\x00\x00'
p1969
tp1970
Rp1971
tp1972
a(g1
g1876
VLorient
p1973
(lp1974
V2
p1975
aV1
p1976
ag10
(g14
S'\xff\xff\xff\xff'
p1977
tp1978
Rp1979
tp1980
a(g1
g1876
VMonaco
p1981
(lp1982
V0
p1983
aV0
p1984
ag10
(g14
S'\x00\x00\x00\x00'
p1985
tp1986
Rp1987
tp1988
a(g1
VSC Bastia
p1989
VRennes
p1990
(lp1991
V2
p1992
aV1
p1993
ag10
(g14
S'\xff\xff\xff\xff'
p1994
tp1995
Rp1996
tp1997
a(g1
g1989
VGuingamp
p1998
(lp1999
V3
p2000
aV0
p2001
ag10
(g14
S'\x01\x00\x00\x00'
p2002
tp2003
Rp2004
tp2005
a(g1
g1989
VNice
p2006
(lp2007
V1
p2008
aV3
p2009
ag10
(g14
S'\xff\xff\xff\xff'
p2010
tp2011
Rp2012
tp2013
a(g1
g1989
VToulouse
p2014
(lp2015
V3
p2016
aV0
p2017
ag10
(g14
S'\xff\xff\xff\xff'
p2018
tp2019
Rp2020
tp2021
a(g1
g1989
VParis Saint Germain
p2022
(lp2023
V0
p2024
aV2
p2025
ag10
(g14
S'\xff\xff\xff\xff'
p2026
tp2027
Rp2028
tp2029
a(g1
g1989
VCaen
p2030
(lp2031
V1
p2032
aV0
p2033
ag10
(g14
S'\x01\x00\x00\x00'
p2034
tp2035
Rp2036
tp2037
a(g1
g1989
VGFC Ajaccio
p2038
(lp2039
V1
p2040
aV2
p2041
ag10
(g14
S'\xff\xff\xff\xff'
p2042
tp2043
Rp2044
tp2045
a(g1
g1989
VBordeaux
p2046
(lp2047
V1
p2048
aV0
p2049
ag10
(g14
S'\xff\xff\xff\xff'
p2050
tp2051
Rp2052
tp2053
a(g1
g1989
VMonaco
p2054
(lp2055
V1
p2056
aV2
p2057
ag10
(g14
S'\xff\xff\xff\xff'
p2058
tp2059
Rp2060
tp2061
a(g1
g1989
VReims
p2062
(lp2063
V2
p2064
aV0
p2065
ag10
(g14
S'\xff\xff\xff\xff'
p2066
tp2067
Rp2068
tp2069
a(g1
g1989
VMontpellier
p2070
(lp2071
V1
p2072
aV0
p2073
ag10
(g14
S'\xff\xff\xff\xff'
p2074
tp2075
Rp2076
tp2077
a(g1
g1989
VLyon
p2078
(lp2079
V1
p2080
aV0
p2081
ag10
(g14
S'\xff\xff\xff\xff'
p2082
tp2083
Rp2084
tp2085
a(g1
g1989
VTroyes
p2086
(lp2087
V2
p2088
aV0
p2089
ag10
(g14
S'\xff\xff\xff\xff'
p2090
tp2091
Rp2092
tp2093
a(g1
g1989
VLorient
p2094
(lp2095
V0
p2096
aV0
p2097
ag10
(g14
S'\xff\xff\xff\xff'
p2098
tp2099
Rp2100
tp2101
a(g1
g1989
VNantes
p2102
(lp2103
V0
p2104
aV0
p2105
ag10
(g14
S'\xff\xff\xff\xff'
p2106
tp2107
Rp2108
tp2109
a(g1
VCaen
p2110
VToulouse
p2111
(lp2112
V1
p2113
aV0
p2114
ag10
(g14
S'\xff\xff\xff\xff'
p2115
tp2116
Rp2117
tp2118
a(g1
g2110
VLyon
p2119
(lp2120
V0
p2121
aV4
p2122
ag10
(g14
S'\xff\xff\xff\xff'
p2123
tp2124
Rp2125
tp2126
a(g1
g2110
VMontpellier
p2127
(lp2128
V2
p2129
aV1
p2130
ag10
(g14
S'\xff\xff\xff\xff'
p2131
tp2132
Rp2133
tp2134
a(g1
g2110
VGFC Ajaccio
p2135
(lp2136
V2
p2137
aV0
p2138
ag10
(g14
S'\xff\xff\xff\xff'
p2139
tp2140
Rp2141
tp2142
a(g1
g2110
VSaint-Etienne
p2143
(lp2144
V1
p2145
aV0
p2146
ag10
(g14
S'\xff\xff\xff\xff'
p2147
tp2148
Rp2149
tp2150
a(g1
g2110
VNantes
p2151
(lp2152
V0
p2153
aV2
p2154
ag10
(g14
S'\xff\xff\xff\xff'
p2155
tp2156
Rp2157
tp2158
a(g1
g2110
VGuingamp
p2159
(lp2160
V2
p2161
aV1
p2162
ag10
(g14
S'\x01\x00\x00\x00'
p2163
tp2164
Rp2165
tp2166
a(g1
g2110
VAngers
p2167
(lp2168
V0
p2169
aV0
p2170
ag10
(g14
S'\xff\xff\xff\xff'
p2171
tp2172
Rp2173
tp2174
a(g1
g2110
VLille
p2175
(lp2176
V1
p2177
aV2
p2178
ag10
(g14
S'\x01\x00\x00\x00'
p2179
tp2180
Rp2181
tp2182
a(g1
g2110
VParis Saint Germain
p2183
(lp2184
V0
p2185
aV3
p2186
ag10
(g14
S'\xff\xff\xff\xff'
p2187
tp2188
Rp2189
tp2190
a(g1
g2110
VMarseille
p2191
(lp2192
V1
p2193
aV3
p2194
ag10
(g14
S'\xff\xff\xff\xff'
p2195
tp2196
Rp2197
tp2198
a(g1
g2110
VNice
p2199
(lp2200
V2
p2201
aV0
p2202
ag10
(g14
S'\xff\xff\xff\xff'
p2203
tp2204
Rp2205
tp2206
a(g1
g2110
VReims
p2207
(lp2208
V0
p2209
aV2
p2210
ag10
(g14
S'\x01\x00\x00\x00'
p2211
tp2212
Rp2213
tp2214
a(g1
g2110
VRennes
p2215
(lp2216
V1
p2217
aV0
p2218
ag10
(g14
S'\xff\xff\xff\xff'
p2219
tp2220
Rp2221
tp2222
a(g1
g2110
VMonaco
p2223
(lp2224
V2
p2225
aV2
p2226
ag10
(g14
S'\xff\xff\xff\xff'
p2227
tp2228
Rp2229
tp2230
a(g1
VBordeaux
p2231
VReims
p2232
(lp2233
V1
p2234
aV2
p2235
ag10
(g14
S'\x01\x00\x00\x00'
p2236
tp2237
Rp2238
tp2239
a(g1
g2231
VNantes
p2240
(lp2241
V2
p2242
aV0
p2243
ag10
(g14
S'\x01\x00\x00\x00'
p2244
tp2245
Rp2246
tp2247
a(g1
g2231
VToulouse
p2248
(lp2249
V1
p2250
aV1
p2251
ag10
(g14
S'\x00\x00\x00\x00'
p2252
tp2253
Rp2254
tp2255
a(g1
g2231
VLyon
p2256
(lp2257
V3
p2258
aV1
p2259
ag10
(g14
S'\xff\xff\xff\xff'
p2260
tp2261
Rp2262
tp2263
a(g1
g2231
VMontpellier
p2264
(lp2265
V0
p2266
aV0
p2267
ag10
(g14
S'\x00\x00\x00\x00'
p2268
tp2269
Rp2270
tp2271
a(g1
g2231
VTroyes
p2272
(lp2273
V1
p2274
aV0
p2275
ag10
(g14
S'\x01\x00\x00\x00'
p2276
tp2277
Rp2278
tp2279
a(g1
g2231
VMonaco
p2280
(lp2281
V3
p2282
aV1
p2283
ag10
(g14
S'\x01\x00\x00\x00'
p2284
tp2285
Rp2286
tp2287
a(g1
g2231
VCaen
p2288
(lp2289
V1
p2290
aV4
p2291
ag10
(g14
S'\x01\x00\x00\x00'
p2292
tp2293
Rp2294
tp2295
a(g1
g2231
VGuingamp
p2296
(lp2297
V1
p2298
aV0
p2299
ag10
(g14
S'\x01\x00\x00\x00'
p2300
tp2301
Rp2302
tp2303
a(g1
g2231
VMarseille
p2304
(lp2305
V1
p2306
aV1
p2307
ag10
(g14
S'\xff\xff\xff\xff'
p2308
tp2309
Rp2310
tp2311
a(g1
g2231
VLille
p2312
(lp2313
V1
p2314
aV0
p2315
ag10
(g14
S'\x00\x00\x00\x00'
p2316
tp2317
Rp2318
tp2319
a(g1
g2231
VRennes
p2320
(lp2321
V4
p2322
aV0
p2323
ag10
(g14
S'\x01\x00\x00\x00'
p2324
tp2325
Rp2326
tp2327
a(g1
g2231
VSaint-Etienne
p2328
(lp2329
V1
p2330
aV4
p2331
ag10
(g14
S'\x00\x00\x00\x00'
p2332
tp2333
Rp2334
tp2335
a(g1
g2231
VNice
p2336
(lp2337
V0
p2338
aV0
p2339
ag10
(g14
S'\xff\xff\xff\xff'
p2340
tp2341
Rp2342
tp2343
a(g1
g2231
VGFC Ajaccio
p2344
(lp2345
V1
p2346
aV1
p2347
ag10
(g14
S'\x00\x00\x00\x00'
p2348
tp2349
Rp2350
tp2351
asS'score'
p2352
g10
(g11
(S'f8'
p2353
I0
I1
tp2354
Rp2355
(I3
S'<'
p2356
NNNI-1
I-1
I0
tp2357
bS'}\xa9\xa0\xd5\x97\n\xda?'
p2358
tp2359
Rp2360
sS'dict'
p2361
(dp2362
I0
F0.0
sI1
F0.375
sI2
F0.2
sI3
F0.5
sI4
F0.4
sI5
F0.2
sI6
F0.3
sI7
F0.5
sI8
F0.3
sI9
F0.3
sI10
F0.4444444444444444
sI11
F0.5833333333333334
sI12
F0.5555555555555556
sI13
F0.7
sI14
F0.7
sI15
F0.3
sI16
F0.3
sI17
F0.5
sI18
F0.3
sI19
F0.5
sI20
F0.4
sI21
F0.4
sI22
F0.4
sI23
F0.3
sI24
F0.6
sI25
F0.2
sI26
F0.3
sI27
F0.6
sI28
F0.1
sI29
F0.5
sI30
F0.5
sI31
F0.0
sI32
F0.0
sI33
F0.0
sI34
F0.0
sI35
F0.0
sI36
F0.0
sI37
F0.0
sI38
F0.0
sI39
F0.0
sI40
F0.0
sI41
F0.0
sI42
F0.0
sI43
F0.0
sI44
F0.0
sI45
F0.0
sI46
F0.0
sI47
F0.0
sI48
F0.0
sI49
F0.0
sI50
F0.0
sI51
F0.0
sI52
F0.0
sI53
F0.0
sI54
F0.0
sI55
F0.0
sI56
F0.0
sI57
F0.0
sI58
F0.0
sI59
F0.0
sI60
F0.0
sssS'Primer_League'
p2363
(dp2364
g3
(lp2365
(g2363
VWest Ham
p2366
VLeicester
p2367
(lp2368
V1
p2369
aV2
p2370
ag10
(g14
S'\x01\x00\x00\x00'
p2371
tp2372
Rp2373
tp2374
a(g2363
g2366
VBournemouth
p2375
(lp2376
V3
p2377
aV4
p2378
ag10
(g14
S'\x01\x00\x00\x00'
p2379
tp2380
Rp2381
tp2382
a(g2363
g2366
VNewcastle United
p2383
(lp2384
V2
p2385
aV0
p2386
ag10
(g14
S'\x01\x00\x00\x00'
p2387
tp2388
Rp2389
tp2390
a(g2363
g2366
VNorwich
p2391
(lp2392
V2
p2393
aV2
p2394
ag10
(g14
S'\x01\x00\x00\x00'
p2395
tp2396
Rp2397
tp2398
a(g2363
g2366
VChelsea
p2399
(lp2400
V2
p2401
aV1
p2402
ag10
(g14
S'\xff\xff\xff\xff'
p2403
tp2404
Rp2405
tp2406
a(g2363
g2366
VEverton
p2407
(lp2408
V1
p2409
aV1
p2410
ag10
(g14
S'\xff\xff\xff\xff'
p2411
tp2412
Rp2413
tp2414
a(g2363
g2366
VWest Bromwich Albion
p2415
(lp2416
V1
p2417
aV1
p2418
ag10
(g14
S'\x01\x00\x00\x00'
p2419
tp2420
Rp2421
tp2422
a(g2363
g2366
VStoke
p2423
(lp2424
V0
p2425
aV0
p2426
ag10
(g14
S'\x01\x00\x00\x00'
p2427
tp2428
Rp2429
tp2430
a(g2363
g2366
VSouthampton
p2431
(lp2432
V2
p2433
aV1
p2434
ag10
(g14
S'\x00\x00\x00\x00'
p2435
tp2436
Rp2437
tp2438
a(g2363
g2366
VLiverpool
p2439
(lp2440
V2
p2441
aV0
p2442
ag10
(g14
S'\xff\xff\xff\xff'
p2443
tp2444
Rp2445
tp2446
a(g2363
g2366
VManchester City
p2447
(lp2448
V2
p2449
aV2
p2450
ag10
(g14
S'\xff\xff\xff\xff'
p2451
tp2452
Rp2453
tp2454
a(g2363
g2366
VAston Villa
p2455
(lp2456
V2
p2457
aV0
p2458
ag10
(g14
S'\x01\x00\x00\x00'
p2459
tp2460
Rp2461
tp2462
a(g2363
g2366
VSunderland
p2463
(lp2464
V1
p2465
aV0
p2466
ag10
(g14
S'\x01\x00\x00\x00'
p2467
tp2468
Rp2469
tp2470
a(g2363
g2366
VTottenham
p2471
(lp2472
V1
p2473
aV0
p2474
ag10
(g14
S'\xff\xff\xff\xff'
p2475
tp2476
Rp2477
tp2478
a(g2363
VTottenham
p2479
VStoke
p2480
(lp2481
V2
p2482
aV2
p2483
ag10
(g14
S'\x01\x00\x00\x00'
p2484
tp2485
Rp2486
tp2487
a(g2363
g2479
VEverton
p2488
(lp2489
V0
p2490
aV0
p2491
ag10
(g14
S'\x01\x00\x00\x00'
p2492
tp2493
Rp2494
tp2495
a(g2363
g2479
VCrystal Palace
p2496
(lp2497
V1
p2498
aV0
p2499
ag10
(g14
S'\x01\x00\x00\x00'
p2500
tp2501
Rp2502
tp2503
a(g2363
g2479
VManchester City
p2504
(lp2505
V4
p2506
aV1
p2507
ag10
(g14
S'\x01\x00\x00\x00'
p2508
tp2509
Rp2510
tp2511
a(g2363
g2479
VLiverpool
p2512
(lp2513
V0
p2514
aV0
p2515
ag10
(g14
S'\x01\x00\x00\x00'
p2516
tp2517
Rp2518
tp2519
a(g2363
g2479
VAston Villa
p2520
(lp2521
V3
p2522
aV1
p2523
ag10
(g14
S'\x01\x00\x00\x00'
p2524
tp2525
Rp2526
tp2527
a(g2363
g2479
VWest Ham
p2528
(lp2529
V4
p2530
aV1
p2531
ag10
(g14
S'\x01\x00\x00\x00'
p2532
tp2533
Rp2534
tp2535
a(g2363
g2479
VChelsea
p2536
(lp2537
V0
p2538
aV0
p2539
ag10
(g14
S'\x01\x00\x00\x00'
p2540
tp2541
Rp2542
tp2543
a(g2363
g2479
VNewcastle United
p2544
(lp2545
V1
p2546
aV2
p2547
ag10
(g14
S'\x01\x00\x00\x00'
p2548
tp2549
Rp2550
tp2551
a(g2363
g2479
VNorwich
p2552
(lp2553
V3
p2554
aV0
p2555
ag10
(g14
S'\x01\x00\x00\x00'
p2556
tp2557
Rp2558
tp2559
a(g2363
g2479
VLeicester
p2560
(lp2561
V0
p2562
aV1
p2563
ag10
(g14
S'\x01\x00\x00\x00'
p2564
tp2565
Rp2566
tp2567
a(g2363
g2479
VSunderland
p2568
(lp2569
V4
p2570
aV1
p2571
ag10
(g14
S'\x01\x00\x00\x00'
p2572
tp2573
Rp2574
tp2575
a(g2363
g2479
VWatford
p2576
(lp2577
V1
p2578
aV0
p2579
ag10
(g14
S'\x01\x00\x00\x00'
p2580
tp2581
Rp2582
tp2583
a(g2363
g2479
VSwansea
p2584
(lp2585
V2
p2586
aV1
p2587
ag10
(g14
S'\x01\x00\x00\x00'
p2588
tp2589
Rp2590
tp2591
a(g2363
g2479
VArsenal
p2592
(lp2593
V2
p2594
aV2
p2595
ag10
(g14
S'\x01\x00\x00\x00'
p2596
tp2597
Rp2598
tp2599
a(g2363
VSwansea
p2600
VNewcastle United
p2601
(lp2602
V2
p2603
aV0
p2604
ag10
(g14
S'\x01\x00\x00\x00'
p2605
tp2606
Rp2607
tp2608
a(g2363
g2600
VManchester United
p2609
(lp2610
V2
p2611
aV1
p2612
ag10
(g14
S'\x01\x00\x00\x00'
p2613
tp2614
Rp2615
tp2616
a(g2363
g2600
VEverton
p2617
(lp2618
V0
p2619
aV0
p2620
ag10
(g14
S'\x01\x00\x00\x00'
p2621
tp2622
Rp2623
tp2624
a(g2363
g2600
VTottenham
p2625
(lp2626
V2
p2627
aV2
p2628
ag10
(g14
S'\xff\xff\xff\xff'
p2629
tp2630
Rp2631
tp2632
a(g2363
g2600
VStoke
p2633
(lp2634
V0
p2635
aV1
p2636
ag10
(g14
S'\x01\x00\x00\x00'
p2637
tp2638
Rp2639
tp2640
a(g2363
g2600
VArsenal
p2641
(lp2642
V0
p2643
aV3
p2644
ag10
(g14
S'\xff\xff\xff\xff'
p2645
tp2646
Rp2647
tp2648
a(g2363
g2600
VBournemouth
p2649
(lp2650
V2
p2651
aV2
p2652
ag10
(g14
S'\x00\x00\x00\x00'
p2653
tp2654
Rp2655
tp2656
a(g2363
g2600
VLeicester
p2657
(lp2658
V0
p2659
aV3
p2660
ag10
(g14
S'\x01\x00\x00\x00'
p2661
tp2662
Rp2663
tp2664
a(g2363
g2600
VWest Ham
p2665
(lp2666
V0
p2667
aV0
p2668
ag10
(g14
S'\xff\xff\xff\xff'
p2669
tp2670
Rp2671
tp2672
a(g2363
g2600
VWest Bromwich Albion
p2673
(lp2674
V1
p2675
aV0
p2676
ag10
(g14
S'\x01\x00\x00\x00'
p2677
tp2678
Rp2679
tp2680
a(g2363
g2600
VSunderland
p2681
(lp2682
V2
p2683
aV4
p2684
ag10
(g14
S'\x01\x00\x00\x00'
p2685
tp2686
Rp2687
tp2688
a(g2363
g2600
VWatford
p2689
(lp2690
V1
p2691
aV0
p2692
ag10
(g14
S'\x01\x00\x00\x00'
p2693
tp2694
Rp2695
tp2696
a(g2363
g2600
VCrystal Palace
p2697
(lp2698
V1
p2699
aV1
p2700
ag10
(g14
S'\x01\x00\x00\x00'
p2701
tp2702
Rp2703
tp2704
a(g2363
g2600
VSouthampton
p2705
(lp2706
V0
p2707
aV1
p2708
ag10
(g14
S'\x00\x00\x00\x00'
p2709
tp2710
Rp2711
tp2712
a(g2363
g2600
VNorwich
p2713
(lp2714
V1
p2715
aV0
p2716
ag10
(g14
S'\x01\x00\x00\x00'
p2717
tp2718
Rp2719
tp2720
a(g2363
VStoke
p2721
VLiverpool
p2722
(lp2723
V0
p2724
aV1
p2725
ag10
(g14
S'\xff\xff\xff\xff'
p2726
tp2727
Rp2728
tp2729
a(g2363
g2721
VWest Bromwich Albion
p2730
(lp2731
V0
p2732
aV1
p2733
ag10
(g14
S'\x01\x00\x00\x00'
p2734
tp2735
Rp2736
tp2737
a(g2363
g2721
VLeicester
p2738
(lp2739
V2
p2740
aV2
p2741
ag10
(g14
S'\x01\x00\x00\x00'
p2742
tp2743
Rp2744
tp2745
a(g2363
g2721
VBournemouth
p2746
(lp2747
V2
p2748
aV1
p2749
ag10
(g14
S'\xff\xff\xff\xff'
p2750
tp2751
Rp2752
tp2753
a(g2363
g2721
VWatford
p2754
(lp2755
V0
p2756
aV2
p2757
ag10
(g14
S'\x01\x00\x00\x00'
p2758
tp2759
Rp2760
tp2761
a(g2363
g2721
VChelsea
p2762
(lp2763
V1
p2764
aV0
p2765
ag10
(g14
S'\xff\xff\xff\xff'
p2766
tp2767
Rp2768
tp2769
a(g2363
g2721
VManchester City
p2770
(lp2771
V2
p2772
aV0
p2773
ag10
(g14
S'\xff\xff\xff\xff'
p2774
tp2775
Rp2776
tp2777
a(g2363
g2721
VCrystal Palace
p2778
(lp2779
V1
p2780
aV2
p2781
ag10
(g14
S'\x01\x00\x00\x00'
p2782
tp2783
Rp2784
tp2785
a(g2363
g2721
VManchester United
p2786
(lp2787
V2
p2788
aV0
p2789
ag10
(g14
S'\xff\xff\xff\xff'
p2790
tp2791
Rp2792
tp2793
a(g2363
g2721
VNorwich
p2794
(lp2795
V3
p2796
aV1
p2797
ag10
(g14
S'\x01\x00\x00\x00'
p2798
tp2799
Rp2800
tp2801
a(g2363
g2721
VArsenal
p2802
(lp2803
V0
p2804
aV0
p2805
ag10
(g14
S'\xff\xff\xff\xff'
p2806
tp2807
Rp2808
tp2809
a(g2363
g2721
VEverton
p2810
(lp2811
V0
p2812
aV3
p2813
ag10
(g14
S'\xff\xff\xff\xff'
p2814
tp2815
Rp2816
tp2817
a(g2363
g2721
VAston Villa
p2818
(lp2819
V2
p2820
aV1
p2821
ag10
(g14
S'\x01\x00\x00\x00'
p2822
tp2823
Rp2824
tp2825
a(g2363
g2721
VNewcastle United
p2826
(lp2827
V1
p2828
aV0
p2829
ag10
(g14
S'\x01\x00\x00\x00'
p2830
tp2831
Rp2832
tp2833
a(g2363
g2721
VSouthampton
p2834
(lp2835
V1
p2836
aV2
p2837
ag10
(g14
S'\x00\x00\x00\x00'
p2838
tp2839
Rp2840
tp2841
a(g2363
VBournemouth
p2842
VLeicester
p2843
(lp2844
V1
p2845
aV1
p2846
ag10
(g14
S'\x01\x00\x00\x00'
p2847
tp2848
Rp2849
tp2850
a(g2363
g2842
VSunderland
p2851
(lp2852
V2
p2853
aV0
p2854
ag10
(g14
S'\x01\x00\x00\x00'
p2855
tp2856
Rp2857
tp2858
a(g2363
g2842
VWatford
p2859
(lp2860
V1
p2861
aV1
p2862
ag10
(g14
S'\x01\x00\x00\x00'
p2863
tp2864
Rp2865
tp2866
a(g2363
g2842
VTottenham
p2867
(lp2868
V1
p2869
aV5
p2870
ag10
(g14
S'\x01\x00\x00\x00'
p2871
tp2872
Rp2873
tp2874
a(g2363
g2842
VNewcastle United
p2875
(lp2876
V0
p2877
aV1
p2878
ag10
(g14
S'\x01\x00\x00\x00'
p2879
tp2880
Rp2881
tp2882
a(g2363
g2842
VEverton
p2883
(lp2884
V3
p2885
aV3
p2886
ag10
(g14
S'\x01\x00\x00\x00'
p2887
tp2888
Rp2889
tp2890
a(g2363
g2842
VManchester United
p2891
(lp2892
V2
p2893
aV1
p2894
ag10
(g14
S'\xff\xff\xff\xff'
p2895
tp2896
Rp2897
tp2898
a(g2363
g2842
VCrystal Palace
p2899
(lp2900
V0
p2901
aV0
p2902
ag10
(g14
S'\x01\x00\x00\x00'
p2903
tp2904
Rp2905
tp2906
a(g2363
g2842
VWest Ham
p2907
(lp2908
V1
p2909
aV3
p2910
ag10
(g14
S'\x01\x00\x00\x00'
p2911
tp2912
Rp2913
tp2914
a(g2363
g2842
VNorwich
p2915
(lp2916
V3
p2917
aV0
p2918
ag10
(g14
S'\x01\x00\x00\x00'
p2919
tp2920
Rp2921
tp2922
a(g2363
g2842
VArsenal
p2923
(lp2924
V0
p2925
aV2
p2926
ag10
(g14
S'\xff\xff\xff\xff'
p2927
tp2928
Rp2929
tp2930
a(g2363
g2842
VStoke
p2931
(lp2932
V1
p2933
aV3
p2934
ag10
(g14
S'\x01\x00\x00\x00'
p2935
tp2936
Rp2937
tp2938
a(g2363
g2842
VSouthampton
p2939
(lp2940
V2
p2941
aV0
p2942
ag10
(g14
S'\x00\x00\x00\x00'
p2943
tp2944
Rp2945
tp2946
a(g2363
g2842
VSwansea
p2947
(lp2948
V3
p2949
aV2
p2950
ag10
(g14
S'\x01\x00\x00\x00'
p2951
tp2952
Rp2953
tp2954
a(g2363
VManchester City
p2955
VChelsea
p2956
(lp2957
V3
p2958
aV0
p2959
ag10
(g14
S'\x01\x00\x00\x00'
p2960
tp2961
Rp2962
tp2963
a(g2363
g2955
VWatford
p2964
(lp2965
V2
p2966
aV0
p2967
ag10
(g14
S'\x01\x00\x00\x00'
p2968
tp2969
Rp2970
tp2971
a(g2363
g2955
VWest Ham
p2972
(lp2973
V1
p2974
aV2
p2975
ag10
(g14
S'\x01\x00\x00\x00'
p2976
tp2977
Rp2978
tp2979
a(g2363
g2955
VNewcastle United
p2980
(lp2981
V6
p2982
aV1
p2983
ag10
(g14
S'\x01\x00\x00\x00'
p2984
tp2985
Rp2986
tp2987
a(g2363
g2955
VBournemouth
p2988
(lp2989
V5
p2990
aV1
p2991
ag10
(g14
S'\x01\x00\x00\x00'
p2992
tp2993
Rp2994
tp2995
a(g2363
g2955
VNorwich
p2996
(lp2997
V2
p2998
aV1
p2999
ag10
(g14
S'\x01\x00\x00\x00'
p3000
tp3001
Rp3002
tp3003
a(g2363
g2955
VLiverpool
p3004
(lp3005
V1
p3006
aV4
p3007
ag10
(g14
S'\x01\x00\x00\x00'
p3008
tp3009
Rp3010
tp3011
a(g2363
g2955
VSouthampton
p3012
(lp3013
V3
p3014
aV1
p3015
ag10
(g14
S'\x01\x00\x00\x00'
p3016
tp3017
Rp3018
tp3019
a(g2363
g2955
VSwansea
p3020
(lp3021
V2
p3022
aV1
p3023
ag10
(g14
S'\x01\x00\x00\x00'
p3024
tp3025
Rp3026
tp3027
a(g2363
g2955
VSunderland
p3028
(lp3029
V4
p3030
aV1
p3031
ag10
(g14
S'\x01\x00\x00\x00'
p3032
tp3033
Rp3034
tp3035
a(g2363
g2955
VEverton
p3036
(lp3037
V0
p3038
aV0
p3039
ag10
(g14
S'\x01\x00\x00\x00'
p3040
tp3041
Rp3042
tp3043
a(g2363
g2955
VCrystal Palace
p3044
(lp3045
V4
p3046
aV0
p3047
ag10
(g14
S'\x01\x00\x00\x00'
p3048
tp3049
Rp3050
tp3051
a(g2363
g2955
VLeicester
p3052
(lp3053
V1
p3054
aV3
p3055
ag10
(g14
S'\x01\x00\x00\x00'
p3056
tp3057
Rp3058
tp3059
a(g2363
g2955
VTottenham
p3060
(lp3061
V1
p3062
aV2
p3063
ag10
(g14
S'\x01\x00\x00\x00'
p3064
tp3065
Rp3066
tp3067
a(g2363
g2955
VAston Villa
p3068
(lp3069
V4
p3070
aV0
p3071
ag10
(g14
S'\x01\x00\x00\x00'
p3072
tp3073
Rp3074
tp3075
a(g2363
VSunderland
p3076
VNorwich
p3077
(lp3078
V1
p3079
aV3
p3080
ag10
(g14
S'\xff\xff\xff\xff'
p3081
tp3082
Rp3083
tp3084
a(g2363
g3076
VSwansea
p3085
(lp3086
V1
p3087
aV1
p3088
ag10
(g14
S'\xff\xff\xff\xff'
p3089
tp3090
Rp3091
tp3092
a(g2363
g3076
VTottenham
p3093
(lp3094
V0
p3095
aV1
p3096
ag10
(g14
S'\xff\xff\xff\xff'
p3097
tp3098
Rp3099
tp3100
a(g2363
g3076
VWest Ham
p3101
(lp3102
V2
p3103
aV2
p3104
ag10
(g14
S'\xff\xff\xff\xff'
p3105
tp3106
Rp3107
tp3108
a(g2363
g3076
VNewcastle United
p3109
(lp3110
V3
p3111
aV0
p3112
ag10
(g14
S'\x01\x00\x00\x00'
p3113
tp3114
Rp3115
tp3116
a(g2363
g3076
VSouthampton
p3117
(lp3118
V0
p3119
aV1
p3120
ag10
(g14
S'\xff\xff\xff\xff'
p3121
tp3122
Rp3123
tp3124
a(g2363
g3076
VStoke
p3125
(lp3126
V2
p3127
aV0
p3128
ag10
(g14
S'\xff\xff\xff\xff'
p3129
tp3130
Rp3131
tp3132
a(g2363
g3076
VWatford
p3133
(lp3134
V0
p3135
aV1
p3136
ag10
(g14
S'\xff\xff\xff\xff'
p3137
tp3138
Rp3139
tp3140
a(g2363
g3076
VLiverpool
p3141
(lp3142
V0
p3143
aV1
p3144
ag10
(g14
S'\xff\xff\xff\xff'
p3145
tp3146
Rp3147
tp3148
a(g2363
g3076
VAston Villa
p3149
(lp3150
V3
p3151
aV1
p3152
ag10
(g14
S'\xff\xff\xff\xff'
p3153
tp3154
Rp3155
tp3156
a(g2363
g3076
VBournemouth
p3157
(lp3158
V1
p3159
aV1
p3160
ag10
(g14
S'\xff\xff\xff\xff'
p3161
tp3162
Rp3163
tp3164
a(g2363
g3076
VManchester City
p3165
(lp3166
V0
p3167
aV1
p3168
ag10
(g14
S'\xff\xff\xff\xff'
p3169
tp3170
Rp3171
tp3172
a(g2363
g3076
VManchester United
p3173
(lp3174
V2
p3175
aV1
p3176
ag10
(g14
S'\xff\xff\xff\xff'
p3177
tp3178
Rp3179
tp3180
a(g2363
g3076
VCrystal Palace
p3181
(lp3182
V2
p3183
aV2
p3184
ag10
(g14
S'\xff\xff\xff\xff'
p3185
tp3186
Rp3187
tp3188
a(g2363
VAston Villa
p3189
VManchester United
p3190
(lp3191
V0
p3192
aV1
p3193
ag10
(g14
S'\xff\xff\xff\xff'
p3194
tp3195
Rp3196
tp3197
a(g2363
g3189
VSunderland
p3198
(lp3199
V2
p3200
aV2
p3201
ag10
(g14
S'\x01\x00\x00\x00'
p3202
tp3203
Rp3204
tp3205
a(g2363
g3189
VWest Bromwich Albion
p3206
(lp3207
V0
p3208
aV1
p3209
ag10
(g14
S'\x01\x00\x00\x00'
p3210
tp3211
Rp3212
tp3213
a(g2363
g3189
VStoke
p3214
(lp3215
V0
p3216
aV1
p3217
ag10
(g14
S'\x01\x00\x00\x00'
p3218
tp3219
Rp3220
tp3221
a(g2363
g3189
VSwansea
p3222
(lp3223
V1
p3224
aV2
p3225
ag10
(g14
S'\x01\x00\x00\x00'
p3226
tp3227
Rp3228
tp3229
a(g2363
g3189
VManchester City
p3230
(lp3231
V0
p3232
aV0
p3233
ag10
(g14
S'\xff\xff\xff\xff'
p3234
tp3235
Rp3236
tp3237
a(g2363
g3189
VWatford
p3238
(lp3239
V2
p3240
aV3
p3241
ag10
(g14
S'\x01\x00\x00\x00'
p3242
tp3243
Rp3244
tp3245
a(g2363
g3189
VArsenal
p3246
(lp3247
V0
p3248
aV2
p3249
ag10
(g14
S'\xff\xff\xff\xff'
p3250
tp3251
Rp3252
tp3253
a(g2363
g3189
VWest Ham
p3254
(lp3255
V1
p3256
aV1
p3257
ag10
(g14
S'\xff\xff\xff\xff'
p3258
tp3259
Rp3260
tp3261
a(g2363
g3189
VCrystal Palace
p3262
(lp3263
V1
p3264
aV0
p3265
ag10
(g14
S'\x01\x00\x00\x00'
p3266
tp3267
Rp3268
tp3269
a(g2363
g3189
VLeicester
p3270
(lp3271
V1
p3272
aV1
p3273
ag10
(g14
S'\x01\x00\x00\x00'
p3274
tp3275
Rp3276
tp3277
a(g2363
g3189
VNorwich
p3278
(lp3279
V2
p3280
aV0
p3281
ag10
(g14
S'\xff\xff\xff\xff'
p3282
tp3283
Rp3284
tp3285
a(g2363
g3189
VLiverpool
p3286
(lp3287
V0
p3288
aV6
p3289
ag10
(g14
S'\xff\xff\xff\xff'
p3290
tp3291
Rp3292
tp3293
a(g2363
g3189
VEverton
p3294
(lp3295
V1
p3296
aV3
p3297
ag10
(g14
S'\xff\xff\xff\xff'
p3298
tp3299
Rp3300
tp3301
a(g2363
g3189
VTottenham
p3302
(lp3303
V0
p3304
aV2
p3305
ag10
(g14
S'\xff\xff\xff\xff'
p3306
tp3307
Rp3308
tp3309
a(g2363
VManchester United
p3310
VTottenham
p3311
(lp3312
V1
p3313
aV0
p3314
ag10
(g14
S'\x00\x00\x00\x00'
p3315
tp3316
Rp3317
tp3318
a(g2363
g3310
VNewcastle United
p3319
(lp3320
V0
p3321
aV0
p3322
ag10
(g14
S'\x01\x00\x00\x00'
p3323
tp3324
Rp3325
tp3326
a(g2363
g3310
VLiverpool
p3327
(lp3328
V3
p3329
aV1
p3330
ag10
(g14
S'\x00\x00\x00\x00'
p3331
tp3332
Rp3333
tp3334
a(g2363
g3310
VSunderland
p3335
(lp3336
V3
p3337
aV0
p3338
ag10
(g14
S'\x01\x00\x00\x00'
p3339
tp3340
Rp3341
tp3342
a(g2363
g3310
VManchester City
p3343
(lp3344
V0
p3345
aV0
p3346
ag10
(g14
S'\x01\x00\x00\x00'
p3347
tp3348
Rp3349
tp3350
a(g2363
g3310
VWest Bromwich Albion
p3351
(lp3352
V2
p3353
aV0
p3354
ag10
(g14
S'\x01\x00\x00\x00'
p3355
tp3356
Rp3357
tp3358
a(g2363
g3310
VWest Ham
p3359
(lp3360
V0
p3361
aV0
p3362
ag10
(g14
S'\x01\x00\x00\x00'
p3363
tp3364
Rp3365
tp3366
a(g2363
g3310
VNorwich
p3367
(lp3368
V1
p3369
aV2
p3370
ag10
(g14
S'\x01\x00\x00\x00'
p3371
tp3372
Rp3373
tp3374
a(g2363
g3310
VChelsea
p3375
(lp3376
V0
p3377
aV0
p3378
ag10
(g14
S'\x01\x00\x00\x00'
p3379
tp3380
Rp3381
tp3382
a(g2363
g3310
VSwansea
p3383
(lp3384
V2
p3385
aV1
p3386
ag10
(g14
S'\x00\x00\x00\x00'
p3387
tp3388
Rp3389
tp3390
a(g2363
g3310
VSouthampton
p3391
(lp3392
V0
p3393
aV1
p3394
ag10
(g14
S'\x01\x00\x00\x00'
p3395
tp3396
Rp3397
tp3398
a(g2363
g3310
VStoke
p3399
(lp3400
V3
p3401
aV0
p3402
ag10
(g14
S'\x01\x00\x00\x00'
p3403
tp3404
Rp3405
tp3406
a(g2363
g3310
VArsenal
p3407
(lp3408
V3
p3409
aV2
p3410
ag10
(g14
S'\x01\x00\x00\x00'
p3411
tp3412
Rp3413
tp3414
a(g2363
g3310
VWatford
p3415
(lp3416
V1
p3417
aV0
p3418
ag10
(g14
S'\x01\x00\x00\x00'
p3419
tp3420
Rp3421
tp3422
a(g2363
VLiverpool
p3423
VBournemouth
p3424
(lp3425
V1
p3426
aV0
p3427
ag10
(g14
S'\x01\x00\x00\x00'
p3428
tp3429
Rp3430
tp3431
a(g2363
g3423
VWest Ham
p3432
(lp3433
V0
p3434
aV3
p3435
ag10
(g14
S'\x01\x00\x00\x00'
p3436
tp3437
Rp3438
tp3439
a(g2363
g3423
VNorwich
p3440
(lp3441
V1
p3442
aV1
p3443
ag10
(g14
S'\x01\x00\x00\x00'
p3444
tp3445
Rp3446
tp3447
a(g2363
g3423
VAston Villa
p3448
(lp3449
V3
p3450
aV2
p3451
ag10
(g14
S'\x01\x00\x00\x00'
p3452
tp3453
Rp3454
tp3455
a(g2363
g3423
VSouthampton
p3456
(lp3457
V1
p3458
aV1
p3459
ag10
(g14
S'\x01\x00\x00\x00'
p3460
tp3461
Rp3462
tp3463
a(g2363
g3423
VCrystal Palace
p3464
(lp3465
V1
p3466
aV2
p3467
ag10
(g14
S'\x01\x00\x00\x00'
p3468
tp3469
Rp3470
tp3471
a(g2363
g3423
VSwansea
p3472
(lp3473
V1
p3474
aV0
p3475
ag10
(g14
S'\x01\x00\x00\x00'
p3476
tp3477
Rp3478
tp3479
a(g2363
g3423
VWest Bromwich Albion
p3480
(lp3481
V2
p3482
aV2
p3483
ag10
(g14
S'\x01\x00\x00\x00'
p3484
tp3485
Rp3486
tp3487
a(g2363
g3423
VLeicester
p3488
(lp3489
V1
p3490
aV0
p3491
ag10
(g14
S'\x01\x00\x00\x00'
p3492
tp3493
Rp3494
tp3495
a(g2363
g3423
VArsenal
p3496
(lp3497
V3
p3498
aV3
p3499
ag10
(g14
S'\x01\x00\x00\x00'
p3500
tp3501
Rp3502
tp3503
a(g2363
g3423
VManchester United
p3504
(lp3505
V0
p3506
aV1
p3507
ag10
(g14
S'\x01\x00\x00\x00'
p3508
tp3509
Rp3510
tp3511
a(g2363
g3423
VSunderland
p3512
(lp3513
V2
p3514
aV2
p3515
ag10
(g14
S'\x01\x00\x00\x00'
p3516
tp3517
Rp3518
tp3519
a(g2363
g3423
VManchester City
p3520
(lp3521
V3
p3522
aV0
p3523
ag10
(g14
S'\x01\x00\x00\x00'
p3524
tp3525
Rp3526
tp3527
a(g2363
VWatford
p3528
VWest Bromwich Albion
p3529
(lp3530
V0
p3531
aV0
p3532
ag10
(g14
S'\x01\x00\x00\x00'
p3533
tp3534
Rp3535
tp3536
a(g2363
g3528
VSouthampton
p3537
(lp3538
V0
p3539
aV0
p3540
ag10
(g14
S'\x01\x00\x00\x00'
p3541
tp3542
Rp3543
tp3544
a(g2363
g3528
VSwansea
p3545
(lp3546
V1
p3547
aV0
p3548
ag10
(g14
S'\xff\xff\xff\xff'
p3549
tp3550
Rp3551
tp3552
a(g2363
g3528
VCrystal Palace
p3553
(lp3554
V0
p3555
aV1
p3556
ag10
(g14
S'\x01\x00\x00\x00'
p3557
tp3558
Rp3559
tp3560
a(g2363
g3528
VArsenal
p3561
(lp3562
V0
p3563
aV3
p3564
ag10
(g14
S'\xff\xff\xff\xff'
p3565
tp3566
Rp3567
tp3568
a(g2363
g3528
VWest Ham
p3569
(lp3570
V2
p3571
aV0
p3572
ag10
(g14
S'\xff\xff\xff\xff'
p3573
tp3574
Rp3575
tp3576
a(g2363
g3528
VManchester United
p3577
(lp3578
V1
p3579
aV2
p3580
ag10
(g14
S'\xff\xff\xff\xff'
p3581
tp3582
Rp3583
tp3584
a(g2363
g3528
VNorwich
p3585
(lp3586
V2
p3587
aV0
p3588
ag10
(g14
S'\x01\x00\x00\x00'
p3589
tp3590
Rp3591
tp3592
a(g2363
g3528
VLiverpool
p3593
(lp3594
V3
p3595
aV0
p3596
ag10
(g14
S'\xff\xff\xff\xff'
p3597
tp3598
Rp3599
tp3600
a(g2363
g3528
VTottenham
p3601
(lp3602
V1
p3603
aV2
p3604
ag10
(g14
S'\xff\xff\xff\xff'
p3605
tp3606
Rp3607
tp3608
a(g2363
g3528
VManchester City
p3609
(lp3610
V1
p3611
aV2
p3612
ag10
(g14
S'\xff\xff\xff\xff'
p3613
tp3614
Rp3615
tp3616
a(g2363
g3528
VNewcastle United
p3617
(lp3618
V2
p3619
aV1
p3620
ag10
(g14
S'\x01\x00\x00\x00'
p3621
tp3622
Rp3623
tp3624
a(g2363
g3528
VChelsea
p3625
(lp3626
V0
p3627
aV0
p3628
ag10
(g14
S'\xff\xff\xff\xff'
p3629
tp3630
Rp3631
tp3632
a(g2363
g3528
VBournemouth
p3633
(lp3634
V0
p3635
aV0
p3636
ag10
(g14
S'\xff\xff\xff\xff'
p3637
tp3638
Rp3639
tp3640
a(g2363
g3528
VLeicester
p3641
(lp3642
V0
p3643
aV1
p3644
ag10
(g14
S'\xff\xff\xff\xff'
p3645
tp3646
Rp3647
tp3648
a(g2363
VLeicester
p3649
VSunderland
p3650
(lp3651
V4
p3652
aV2
p3653
ag10
(g14
S'\x01\x00\x00\x00'
p3654
tp3655
Rp3656
tp3657
a(g2363
g3649
VTottenham
p3658
(lp3659
V1
p3660
aV1
p3661
ag10
(g14
S'\xff\xff\xff\xff'
p3662
tp3663
Rp3664
tp3665
a(g2363
g3649
VAston Villa
p3666
(lp3667
V3
p3668
aV2
p3669
ag10
(g14
S'\x01\x00\x00\x00'
p3670
tp3671
Rp3672
tp3673
a(g2363
g3649
VArsenal
p3674
(lp3675
V2
p3676
aV5
p3677
ag10
(g14
S'\xff\xff\xff\xff'
p3678
tp3679
Rp3680
tp3681
a(g2363
g3649
VCrystal Palace
p3682
(lp3683
V1
p3684
aV0
p3685
ag10
(g14
S'\x01\x00\x00\x00'
p3686
tp3687
Rp3688
tp3689
a(g2363
g3649
VWatford
p3690
(lp3691
V2
p3692
aV1
p3693
ag10
(g14
S'\x01\x00\x00\x00'
p3694
tp3695
Rp3696
tp3697
a(g2363
g3649
VManchester United
p3698
(lp3699
V1
p3700
aV1
p3701
ag10
(g14
S'\xff\xff\xff\xff'
p3702
tp3703
Rp3704
tp3705
a(g2363
g3649
VChelsea
p3706
(lp3707
V2
p3708
aV1
p3709
ag10
(g14
S'\xff\xff\xff\xff'
p3710
tp3711
Rp3712
tp3713
a(g2363
g3649
VManchester City
p3714
(lp3715
V0
p3716
aV0
p3717
ag10
(g14
S'\xff\xff\xff\xff'
p3718
tp3719
Rp3720
tp3721
a(g2363
g3649
VBournemouth
p3722
(lp3723
V0
p3724
aV0
p3725
ag10
(g14
S'\xff\xff\xff\xff'
p3726
tp3727
Rp3728
tp3729
a(g2363
g3649
VStoke
p3730
(lp3731
V3
p3732
aV0
p3733
ag10
(g14
S'\xff\xff\xff\xff'
p3734
tp3735
Rp3736
tp3737
a(g2363
g3649
VLiverpool
p3738
(lp3739
V2
p3740
aV0
p3741
ag10
(g14
S'\xff\xff\xff\xff'
p3742
tp3743
Rp3744
tp3745
a(g2363
g3649
VNorwich
p3746
(lp3747
V1
p3748
aV0
p3749
ag10
(g14
S'\x01\x00\x00\x00'
p3750
tp3751
Rp3752
tp3753
a(g2363
g3649
VWest Bromwich Albion
p3754
(lp3755
V2
p3756
aV2
p3757
ag10
(g14
S'\x01\x00\x00\x00'
p3758
tp3759
Rp3760
tp3761
a(g2363
g3649
VNewcastle United
p3762
(lp3763
V1
p3764
aV0
p3765
ag10
(g14
S'\x01\x00\x00\x00'
p3766
tp3767
Rp3768
tp3769
a(g2363
VCrystal Palace
p3770
VArsenal
p3771
(lp3772
V1
p3773
aV2
p3774
ag10
(g14
S'\xff\xff\xff\xff'
p3775
tp3776
Rp3777
tp3778
a(g2363
g3770
VAston Villa
p3779
(lp3780
V2
p3781
aV1
p3782
ag10
(g14
S'\x01\x00\x00\x00'
p3783
tp3784
Rp3785
tp3786
a(g2363
g3770
VManchester City
p3787
(lp3788
V0
p3789
aV1
p3790
ag10
(g14
S'\xff\xff\xff\xff'
p3791
tp3792
Rp3793
tp3794
a(g2363
g3770
VWest Bromwich Albion
p3795
(lp3796
V2
p3797
aV0
p3798
ag10
(g14
S'\x01\x00\x00\x00'
p3799
tp3800
Rp3801
tp3802
a(g2363
g3770
VWest Ham
p3803
(lp3804
V1
p3805
aV3
p3806
ag10
(g14
S'\xff\xff\xff\xff'
p3807
tp3808
Rp3809
tp3810
a(g2363
g3770
VManchester United
p3811
(lp3812
V0
p3813
aV0
p3814
ag10
(g14
S'\xff\xff\xff\xff'
p3815
tp3816
Rp3817
tp3818
a(g2363
g3770
VSunderland
p3819
(lp3820
V0
p3821
aV1
p3822
ag10
(g14
S'\x01\x00\x00\x00'
p3823
tp3824
Rp3825
tp3826
a(g2363
g3770
VNewcastle United
p3827
(lp3828
V5
p3829
aV1
p3830
ag10
(g14
S'\x01\x00\x00\x00'
p3831
tp3832
Rp3833
tp3834
a(g2363
g3770
VSouthampton
p3835
(lp3836
V1
p3837
aV0
p3838
ag10
(g14
S'\xff\xff\xff\xff'
p3839
tp3840
Rp3841
tp3842
a(g2363
g3770
VSwansea
p3843
(lp3844
V0
p3845
aV0
p3846
ag10
(g14
S'\xff\xff\xff\xff'
p3847
tp3848
Rp3849
tp3850
a(g2363
g3770
VChelsea
p3851
(lp3852
V0
p3853
aV3
p3854
ag10
(g14
S'\xff\xff\xff\xff'
p3855
tp3856
Rp3857
tp3858
a(g2363
g3770
VTottenham
p3859
(lp3860
V1
p3861
aV3
p3862
ag10
(g14
S'\xff\xff\xff\xff'
p3863
tp3864
Rp3865
tp3866
a(g2363
g3770
VBournemouth
p3867
(lp3868
V1
p3869
aV2
p3870
ag10
(g14
S'\xff\xff\xff\xff'
p3871
tp3872
Rp3873
tp3874
a(g2363
g3770
VWatford
p3875
(lp3876
V1
p3877
aV2
p3878
ag10
(g14
S'\x01\x00\x00\x00'
p3879
tp3880
Rp3881
tp3882
a(g2363
g3770
VLiverpool
p3883
(lp3884
V1
p3885
aV2
p3886
ag10
(g14
S'\xff\xff\xff\xff'
p3887
tp3888
Rp3889
tp3890
a(g2363
VWest Bromwich Albion
p3891
VManchester City
p3892
(lp3893
V0
p3894
aV3
p3895
ag10
(g14
S'\xff\xff\xff\xff'
p3896
tp3897
Rp3898
tp3899
a(g2363
g3891
VChelsea
p3900
(lp3901
V2
p3902
aV3
p3903
ag10
(g14
S'\xff\xff\xff\xff'
p3904
tp3905
Rp3906
tp3907
a(g2363
g3891
VSouthampton
p3908
(lp3909
V0
p3910
aV0
p3911
ag10
(g14
S'\xff\xff\xff\xff'
p3912
tp3913
Rp3914
tp3915
a(g2363
g3891
VEverton
p3916
(lp3917
V2
p3918
aV3
p3919
ag10
(g14
S'\xff\xff\xff\xff'
p3920
tp3921
Rp3922
tp3923
a(g2363
g3891
VSunderland
p3924
(lp3925
V1
p3926
aV0
p3927
ag10
(g14
S'\x01\x00\x00\x00'
p3928
tp3929
Rp3930
tp3931
a(g2363
g3891
VLeicester
p3932
(lp3933
V2
p3934
aV3
p3935
ag10
(g14
S'\xff\xff\xff\xff'
p3936
tp3937
Rp3938
tp3939
a(g2363
g3891
VArsenal
p3940
(lp3941
V2
p3942
aV1
p3943
ag10
(g14
S'\xff\xff\xff\xff'
p3944
tp3945
Rp3946
tp3947
a(g2363
g3891
VBournemouth
p3948
(lp3949
V1
p3950
aV2
p3951
ag10
(g14
S'\xff\xff\xff\xff'
p3952
tp3953
Rp3954
tp3955
a(g2363
g3891
VNewcastle United
p3956
(lp3957
V1
p3958
aV0
p3959
ag10
(g14
S'\xff\xff\xff\xff'
p3960
tp3961
Rp3962
tp3963
a(g2363
g3891
VStoke
p3964
(lp3965
V2
p3966
aV1
p3967
ag10
(g14
S'\xff\xff\xff\xff'
p3968
tp3969
Rp3970
tp3971
a(g2363
g3891
VAston Villa
p3972
(lp3973
V0
p3974
aV0
p3975
ag10
(g14
S'\xff\xff\xff\xff'
p3976
tp3977
Rp3978
tp3979
a(g2363
g3891
VSwansea
p3980
(lp3981
V1
p3982
aV1
p3983
ag10
(g14
S'\xff\xff\xff\xff'
p3984
tp3985
Rp3986
tp3987
a(g2363
g3891
VCrystal Palace
p3988
(lp3989
V3
p3990
aV2
p3991
ag10
(g14
S'\xff\xff\xff\xff'
p3992
tp3993
Rp3994
tp3995
a(g2363
g3891
VManchester United
p3996
(lp3997
V1
p3998
aV0
p3999
ag10
(g14
S'\xff\xff\xff\xff'
p4000
tp4001
Rp4002
tp4003
a(g2363
VSouthampton
p4004
VEverton
p4005
(lp4006
V0
p4007
aV3
p4008
ag10
(g14
S'\xff\xff\xff\xff'
p4009
tp4010
Rp4011
tp4012
a(g2363
g4004
VNorwich
p4013
(lp4014
V3
p4015
aV0
p4016
ag10
(g14
S'\xff\xff\xff\xff'
p4017
tp4018
Rp4019
tp4020
a(g2363
g4004
VManchester United
p4021
(lp4022
V2
p4023
aV3
p4024
ag10
(g14
S'\xff\xff\xff\xff'
p4025
tp4026
Rp4027
tp4028
a(g2363
g4004
VSwansea
p4029
(lp4030
V3
p4031
aV1
p4032
ag10
(g14
S'\x01\x00\x00\x00'
p4033
tp4034
Rp4035
tp4036
a(g2363
g4004
VLeicester
p4037
(lp4038
V2
p4039
aV2
p4040
ag10
(g14
S'\xff\xff\xff\xff'
p4041
tp4042
Rp4043
tp4044
a(g2363
g4004
VBournemouth
p4045
(lp4046
V2
p4047
aV0
p4048
ag10
(g14
S'\x01\x00\x00\x00'
p4049
tp4050
Rp4051
tp4052
a(g2363
g4004
VStoke
p4053
(lp4054
V0
p4055
aV1
p4056
ag10
(g14
S'\x01\x00\x00\x00'
p4057
tp4058
Rp4059
tp4060
a(g2363
g4004
VAston Villa
p4061
(lp4062
V1
p4063
aV1
p4064
ag10
(g14
S'\x01\x00\x00\x00'
p4065
tp4066
Rp4067
tp4068
a(g2363
g4004
VTottenham
p4069
(lp4070
V0
p4071
aV2
p4072
ag10
(g14
S'\xff\xff\xff\xff'
p4073
tp4074
Rp4075
tp4076
a(g2363
g4004
VArsenal
p4077
(lp4078
V4
p4079
aV0
p4080
ag10
(g14
S'\xff\xff\xff\xff'
p4081
tp4082
Rp4083
tp4084
a(g2363
g4004
VWatford
p4085
(lp4086
V2
p4087
aV0
p4088
ag10
(g14
S'\xff\xff\xff\xff'
p4089
tp4090
Rp4091
tp4092
a(g2363
g4004
VWest Bromwich Albion
p4093
(lp4094
V3
p4095
aV0
p4096
ag10
(g14
S'\x01\x00\x00\x00'
p4097
tp4098
Rp4099
tp4100
a(g2363
g4004
VWest Ham
p4101
(lp4102
V1
p4103
aV0
p4104
ag10
(g14
S'\x01\x00\x00\x00'
p4105
tp4106
Rp4107
tp4108
a(g2363
g4004
VChelsea
p4109
(lp4110
V1
p4111
aV2
p4112
ag10
(g14
S'\xff\xff\xff\xff'
p4113
tp4114
Rp4115
tp4116
a(g2363
g4004
VSunderland
p4117
(lp4118
V1
p4119
aV1
p4120
ag10
(g14
S'\x01\x00\x00\x00'
p4121
tp4122
Rp4123
tp4124
a(g2363
VNewcastle United
p4125
VSouthampton
p4126
(lp4127
V2
p4128
aV2
p4129
ag10
(g14
S'\x00\x00\x00\x00'
p4130
tp4131
Rp4132
tp4133
a(g2363
g4125
VArsenal
p4134
(lp4135
V0
p4136
aV1
p4137
ag10
(g14
S'\xff\xff\xff\xff'
p4138
tp4139
Rp4140
tp4141
a(g2363
g4125
VWatford
p4142
(lp4143
V1
p4144
aV2
p4145
ag10
(g14
S'\x00\x00\x00\x00'
p4146
tp4147
Rp4148
tp4149
a(g2363
g4125
VChelsea
p4150
(lp4151
V2
p4152
aV2
p4153
ag10
(g14
S'\xff\xff\xff\xff'
p4154
tp4155
Rp4156
tp4157
a(g2363
g4125
VNorwich
p4158
(lp4159
V6
p4160
aV2
p4161
ag10
(g14
S'\x01\x00\x00\x00'
p4162
tp4163
Rp4164
tp4165
a(g2363
g4125
VStoke
p4166
(lp4167
V0
p4168
aV0
p4169
ag10
(g14
S'\x01\x00\x00\x00'
p4170
tp4171
Rp4172
tp4173
a(g2363
g4125
VLeicester
p4174
(lp4175
V0
p4176
aV3
p4177
ag10
(g14
S'\x00\x00\x00\x00'
p4178
tp4179
Rp4180
tp4181
a(g2363
g4125
VLiverpool
p4182
(lp4183
V2
p4184
aV0
p4185
ag10
(g14
S'\xff\xff\xff\xff'
p4186
tp4187
Rp4188
tp4189
a(g2363
g4125
VAston Villa
p4190
(lp4191
V1
p4192
aV1
p4193
ag10
(g14
S'\x01\x00\x00\x00'
p4194
tp4195
Rp4196
tp4197
a(g2363
g4125
VEverton
p4198
(lp4199
V0
p4200
aV1
p4201
ag10
(g14
S'\xff\xff\xff\xff'
p4202
tp4203
Rp4204
tp4205
a(g2363
g4125
VManchester United
p4206
(lp4207
V3
p4208
aV3
p4209
ag10
(g14
S'\xff\xff\xff\xff'
p4210
tp4211
Rp4212
tp4213
a(g2363
g4125
VWest Ham
p4214
(lp4215
V2
p4216
aV1
p4217
ag10
(g14
S'\xff\xff\xff\xff'
p4218
tp4219
Rp4220
tp4221
a(g2363
g4125
VWest Bromwich Albion
p4222
(lp4223
V1
p4224
aV0
p4225
ag10
(g14
S'\x01\x00\x00\x00'
p4226
tp4227
Rp4228
tp4229
a(g2363
g4125
VBournemouth
p4230
(lp4231
V1
p4232
aV3
p4233
ag10
(g14
S'\x01\x00\x00\x00'
p4234
tp4235
Rp4236
tp4237
a(g2363
VEverton
p4238
VManchester City
p4239
(lp4240
V0
p4241
aV2
p4242
ag10
(g14
S'\x00\x00\x00\x00'
p4243
tp4244
Rp4245
tp4246
a(g2363
g4238
VChelsea
p4247
(lp4248
V3
p4249
aV1
p4250
ag10
(g14
S'\x01\x00\x00\x00'
p4251
tp4252
Rp4253
tp4254
a(g2363
g4238
VLiverpool
p4255
(lp4256
V1
p4257
aV1
p4258
ag10
(g14
S'\x00\x00\x00\x00'
p4259
tp4260
Rp4261
tp4262
a(g2363
g4238
VManchester United
p4263
(lp4264
V0
p4265
aV3
p4266
ag10
(g14
S'\x01\x00\x00\x00'
p4267
tp4268
Rp4269
tp4270
a(g2363
g4238
VSunderland
p4271
(lp4272
V6
p4273
aV2
p4274
ag10
(g14
S'\x01\x00\x00\x00'
p4275
tp4276
Rp4277
tp4278
a(g2363
g4238
VAston Villa
p4279
(lp4280
V4
p4281
aV0
p4282
ag10
(g14
S'\x01\x00\x00\x00'
p4283
tp4284
Rp4285
tp4286
a(g2363
g4238
VCrystal Palace
p4287
(lp4288
V1
p4289
aV1
p4290
ag10
(g14
S'\x01\x00\x00\x00'
p4291
tp4292
Rp4293
tp4294
a(g2363
g4238
VLeicester
p4295
(lp4296
V2
p4297
aV3
p4298
ag10
(g14
S'\x01\x00\x00\x00'
p4299
tp4300
Rp4301
tp4302
a(g2363
g4238
VStoke
p4303
(lp4304
V3
p4305
aV4
p4306
ag10
(g14
S'\x01\x00\x00\x00'
p4307
tp4308
Rp4309
tp4310
a(g2363
g4238
VTottenham
p4311
(lp4312
V1
p4313
aV1
p4314
ag10
(g14
S'\x00\x00\x00\x00'
p4315
tp4316
Rp4317
tp4318
a(g2363
g4238
VSwansea
p4319
(lp4320
V1
p4321
aV2
p4322
ag10
(g14
S'\x01\x00\x00\x00'
p4323
tp4324
Rp4325
tp4326
a(g2363
g4238
VNewcastle United
p4327
(lp4328
V3
p4329
aV0
p4330
ag10
(g14
S'\x01\x00\x00\x00'
p4331
tp4332
Rp4333
tp4334
a(g2363
g4238
VWest Bromwich Albion
p4335
(lp4336
V0
p4337
aV1
p4338
ag10
(g14
S'\x01\x00\x00\x00'
p4339
tp4340
Rp4341
tp4342
a(g2363
g4238
VWest Ham
p4343
(lp4344
V2
p4345
aV3
p4346
ag10
(g14
S'\x01\x00\x00\x00'
p4347
tp4348
Rp4349
tp4350
a(g2363
VNorwich
p4351
VStoke
p4352
(lp4353
V1
p4354
aV1
p4355
ag10
(g14
S'\xff\xff\xff\xff'
p4356
tp4357
Rp4358
tp4359
a(g2363
g4351
VBournemouth
p4360
(lp4361
V3
p4362
aV1
p4363
ag10
(g14
S'\xff\xff\xff\xff'
p4364
tp4365
Rp4366
tp4367
a(g2363
g4351
VLeicester
p4368
(lp4369
V1
p4370
aV2
p4371
ag10
(g14
S'\xff\xff\xff\xff'
p4372
tp4373
Rp4374
tp4375
a(g2363
g4351
VWest Bromwich Albion
p4376
(lp4377
V0
p4378
aV1
p4379
ag10
(g14
S'\x01\x00\x00\x00'
p4380
tp4381
Rp4382
tp4383
a(g2363
g4351
VSwansea
p4384
(lp4385
V1
p4386
aV0
p4387
ag10
(g14
S'\x01\x00\x00\x00'
p4388
tp4389
Rp4390
tp4391
a(g2363
g4351
VArsenal
p4392
(lp4393
V1
p4394
aV1
p4395
ag10
(g14
S'\xff\xff\xff\xff'
p4396
tp4397
Rp4398
tp4399
a(g2363
g4351
VEverton
p4400
(lp4401
V1
p4402
aV1
p4403
ag10
(g14
S'\xff\xff\xff\xff'
p4404
tp4405
Rp4406
tp4407
a(g2363
g4351
VAston Villa
p4408
(lp4409
V2
p4410
aV0
p4411
ag10
(g14
S'\x01\x00\x00\x00'
p4412
tp4413
Rp4414
tp4415
a(g2363
g4351
VSouthampton
p4416
(lp4417
V1
p4418
aV0
p4419
ag10
(g14
S'\x01\x00\x00\x00'
p4420
tp4421
Rp4422
tp4423
a(g2363
g4351
VLiverpool
p4424
(lp4425
V4
p4426
aV5
p4427
ag10
(g14
S'\xff\xff\xff\xff'
p4428
tp4429
Rp4430
tp4431
a(g2363
g4351
VTottenham
p4432
(lp4433
V0
p4434
aV3
p4435
ag10
(g14
S'\xff\xff\xff\xff'
p4436
tp4437
Rp4438
tp4439
a(g2363
g4351
VWest Ham
p4440
(lp4441
V2
p4442
aV2
p4443
ag10
(g14
S'\xff\xff\xff\xff'
p4444
tp4445
Rp4446
tp4447
a(g2363
g4351
VChelsea
p4448
(lp4449
V1
p4450
aV2
p4451
ag10
(g14
S'\xff\xff\xff\xff'
p4452
tp4453
Rp4454
tp4455
a(g2363
g4351
VManchester City
p4456
(lp4457
V0
p4458
aV0
p4459
ag10
(g14
S'\xff\xff\xff\xff'
p4460
tp4461
Rp4462
tp4463
a(g2363
VChelsea
p4464
VSwansea
p4465
(lp4466
V2
p4467
aV2
p4468
ag10
(g14
S'\x01\x00\x00\x00'
p4469
tp4470
Rp4471
tp4472
a(g2363
g4464
VCrystal Palace
p4473
(lp4474
V1
p4475
aV2
p4476
ag10
(g14
S'\x01\x00\x00\x00'
p4477
tp4478
Rp4479
tp4480
a(g2363
g4464
VArsenal
p4481
(lp4482
V2
p4483
aV0
p4484
ag10
(g14
S'\x01\x00\x00\x00'
p4485
tp4486
Rp4487
tp4488
a(g2363
g4464
VSouthampton
p4489
(lp4490
V1
p4491
aV3
p4492
ag10
(g14
S'\x01\x00\x00\x00'
p4493
tp4494
Rp4495
tp4496
a(g2363
g4464
VAston Villa
p4497
(lp4498
V2
p4499
aV0
p4500
ag10
(g14
S'\x01\x00\x00\x00'
p4501
tp4502
Rp4503
tp4504
a(g2363
g4464
VLiverpool
p4505
(lp4506
V1
p4507
aV3
p4508
ag10
(g14
S'\x00\x00\x00\x00'
p4509
tp4510
Rp4511
tp4512
a(g2363
g4464
VNorwich
p4513
(lp4514
V1
p4515
aV0
p4516
ag10
(g14
S'\x01\x00\x00\x00'
p4517
tp4518
Rp4519
tp4520
a(g2363
g4464
VBournemouth
p4521
(lp4522
V0
p4523
aV1
p4524
ag10
(g14
S'\x01\x00\x00\x00'
p4525
tp4526
Rp4527
tp4528
a(g2363
g4464
VSunderland
p4529
(lp4530
V3
p4531
aV1
p4532
ag10
(g14
S'\x01\x00\x00\x00'
p4533
tp4534
Rp4535
tp4536
a(g2363
g4464
VWatford
p4537
(lp4538
V2
p4539
aV2
p4540
ag10
(g14
S'\x01\x00\x00\x00'
p4541
tp4542
Rp4543
tp4544
a(g2363
g4464
VWest Bromwich Albion
p4545
(lp4546
V2
p4547
aV2
p4548
ag10
(g14
S'\x01\x00\x00\x00'
p4549
tp4550
Rp4551
tp4552
a(g2363
g4464
VEverton
p4553
(lp4554
V3
p4555
aV3
p4556
ag10
(g14
S'\x01\x00\x00\x00'
p4557
tp4558
Rp4559
tp4560
a(g2363
g4464
VManchester United
p4561
(lp4562
V1
p4563
aV1
p4564
ag10
(g14
S'\x01\x00\x00\x00'
p4565
tp4566
Rp4567
tp4568
a(g2363
g4464
VNewcastle United
p4569
(lp4570
V5
p4571
aV1
p4572
ag10
(g14
S'\x01\x00\x00\x00'
p4573
tp4574
Rp4575
tp4576
a(g2363
g4464
VStoke
p4577
(lp4578
V1
p4579
aV1
p4580
ag10
(g14
S'\x01\x00\x00\x00'
p4581
tp4582
Rp4583
tp4584
a(g2363
VArsenal
p4585
VWest Ham
p4586
(lp4587
V0
p4588
aV2
p4589
ag10
(g14
S'\x01\x00\x00\x00'
p4590
tp4591
Rp4592
tp4593
a(g2363
g4585
VLiverpool
p4594
(lp4595
V0
p4596
aV0
p4597
ag10
(g14
S'\x00\x00\x00\x00'
p4598
tp4599
Rp4600
tp4601
a(g2363
g4585
VStoke
p4602
(lp4603
V2
p4604
aV0
p4605
ag10
(g14
S'\x01\x00\x00\x00'
p4606
tp4607
Rp4608
tp4609
a(g2363
g4585
VManchester United
p4610
(lp4611
V3
p4612
aV0
p4613
ag10
(g14
S'\x01\x00\x00\x00'
p4614
tp4615
Rp4616
tp4617
a(g2363
g4585
VEverton
p4618
(lp4619
V2
p4620
aV1
p4621
ag10
(g14
S'\x01\x00\x00\x00'
p4622
tp4623
Rp4624
tp4625
a(g2363
g4585
VTottenham
p4626
(lp4627
V1
p4628
aV1
p4629
ag10
(g14
S'\x01\x00\x00\x00'
p4630
tp4631
Rp4632
tp4633
a(g2363
g4585
VSunderland
p4634
(lp4635
V3
p4636
aV1
p4637
ag10
(g14
S'\x01\x00\x00\x00'
p4638
tp4639
Rp4640
tp4641
a(g2363
g4585
VManchester City
p4642
(lp4643
V2
p4644
aV1
p4645
ag10
(g14
S'\x01\x00\x00\x00'
p4646
tp4647
Rp4648
tp4649
a(g2363
g4585
VBournemouth
p4650
(lp4651
V2
p4652
aV0
p4653
ag10
(g14
S'\x01\x00\x00\x00'
p4654
tp4655
Rp4656
tp4657
a(g2363
g4585
VNewcastle United
p4658
(lp4659
V1
p4660
aV0
p4661
ag10
(g14
S'\x01\x00\x00\x00'
p4662
tp4663
Rp4664
tp4665
a(g2363
g4585
VChelsea
p4666
(lp4667
V0
p4668
aV1
p4669
ag10
(g14
S'\x01\x00\x00\x00'
p4670
tp4671
Rp4672
tp4673
a(g2363
g4585
VSouthampton
p4674
(lp4675
V0
p4676
aV0
p4677
ag10
(g14
S'\x01\x00\x00\x00'
p4678
tp4679
Rp4680
tp4681
a(g2363
g4585
VLeicester
p4682
(lp4683
V2
p4684
aV1
p4685
ag10
(g14
S'\x01\x00\x00\x00'
p4686
tp4687
Rp4688
tp4689
a(g2363
g4585
VSwansea
p4690
(lp4691
V1
p4692
aV2
p4693
ag10
(g14
S'\x01\x00\x00\x00'
p4694
tp4695
Rp4696
tp4697
asg2352
g10
(g2355
S'\xac~Q$\xf7\xc9\xdc?'
p4698
tp4699
Rp4700
sg2361
(dp4701
I0
F0.0
sI1
F0.5714285714285714
sI2
F0.7
sI3
F0.3
sI4
F0.3
sI5
F0.6
sI6
F0.4
sI7
F0.6
sI8
F0.5
sI9
F0.6
sI10
F0.3
sI11
F0.6
sI12
F0.4
sI13
F0.5
sI14
F0.3
sI15
F0.2
sI16
F0.4
sI17
F0.4
sI18
F0.4
sI19
F0.4
sI20
F0.5
sI21
F0.3
sI22
F0.4
sI23
F0.3
sI24
F0.7
sI25
F0.4444444444444444
sI26
F0.3333333333333333
sI27
F0.8571428571428571
sI28
F0.35714285714285715
sI29
F0.6
sI30
F0.6
sI31
F0.0
sI32
F0.0
sI33
F0.0
sI34
F0.0
sI35
F0.0
sI36
F0.0
sI37
F0.0
sI38
F0.0
sI39
F0.0
sI40
F0.0
sI41
F0.0
sI42
F0.0
sI43
F0.0
sI44
F0.0
sI45
F0.0
sI46
F0.0
sI47
F0.0
sI48
F0.0
sI49
F0.0
sI50
F0.0
sI51
F0.0
sI52
F0.0
sI53
F0.0
sI54
F0.0
sI55
F0.0
sI56
F0.0
sI57
F0.0
sI58
F0.0
sI59
F0.0
sI60
F0.0
sssS'Bundesliga'
p4702
(dp4703
g3
(lp4704
(g4702
VWerder Bremen
p4705
VSchalke 04
p4706
(lp4707
V0
p4708
aV3
p4709
ag10
(g14
S'\xff\xff\xff\xff'
p4710
tp4711
Rp4712
tp4713
a(g4702
g4705
VBorussia M.Gladbach
p4714
(lp4715
V2
p4716
aV1
p4717
ag10
(g14
S'\xff\xff\xff\xff'
p4718
tp4719
Rp4720
tp4721
a(g4702
g4705
VIngolstadt
p4722
(lp4723
V0
p4724
aV1
p4725
ag10
(g14
S'\x01\x00\x00\x00'
p4726
tp4727
Rp4728
tp4729
a(g4702
g4705
VBayer Leverkusen
p4730
(lp4731
V0
p4732
aV3
p4733
ag10
(g14
S'\xff\xff\xff\xff'
p4734
tp4735
Rp4736
tp4737
a(g4702
g4705
VBayern Munich
p4738
(lp4739
V0
p4740
aV1
p4741
ag10
(g14
S'\xff\xff\xff\xff'
p4742
tp4743
Rp4744
tp4745
a(g4702
g4705
VBorussia Dortmund
p4746
(lp4747
V1
p4748
aV3
p4749
ag10
(g14
S'\xff\xff\xff\xff'
p4750
tp4751
Rp4752
tp4753
a(g4702
g4705
VHamburger SV
p4754
(lp4755
V1
p4756
aV3
p4757
ag10
(g14
S'\xff\xff\xff\xff'
p4758
tp4759
Rp4760
tp4761
a(g4702
g4705
VFC Cologne
p4762
(lp4763
V1
p4764
aV1
p4765
ag10
(g14
S'\xff\xff\xff\xff'
p4766
tp4767
Rp4768
tp4769
a(g4702
g4705
VHertha Berlin
p4770
(lp4771
V3
p4772
aV3
p4773
ag10
(g14
S'\xff\xff\xff\xff'
p4774
tp4775
Rp4776
tp4777
a(g4702
g4705
VHoffenheim
p4778
(lp4779
V1
p4780
aV1
p4781
ag10
(g14
S'\xff\xff\xff\xff'
p4782
tp4783
Rp4784
tp4785
a(g4702
g4705
VDarmstadt
p4786
(lp4787
V2
p4788
aV2
p4789
ag10
(g14
S'\x01\x00\x00\x00'
p4790
tp4791
Rp4792
tp4793
a(g4702
g4705
VHannover 96
p4794
(lp4795
V4
p4796
aV1
p4797
ag10
(g14
S'\xff\xff\xff\xff'
p4798
tp4799
Rp4800
tp4801
a(g4702
VMainz 05
p4802
VHannover 96
p4803
(lp4804
V3
p4805
aV0
p4806
ag10
(g14
S'\x01\x00\x00\x00'
p4807
tp4808
Rp4809
tp4810
a(g4702
g4802
VHoffenheim
p4811
(lp4812
V3
p4813
aV1
p4814
ag10
(g14
S'\x01\x00\x00\x00'
p4815
tp4816
Rp4817
tp4818
a(g4702
g4802
VBayern Munich
p4819
(lp4820
V0
p4821
aV3
p4822
ag10
(g14
S'\xff\xff\xff\xff'
p4823
tp4824
Rp4825
tp4826
a(g4702
g4802
VBorussia Dortmund
p4827
(lp4828
V0
p4829
aV2
p4830
ag10
(g14
S'\xff\xff\xff\xff'
p4831
tp4832
Rp4833
tp4834
a(g4702
g4802
VWerder Bremen
p4835
(lp4836
V1
p4837
aV3
p4838
ag10
(g14
S'\x01\x00\x00\x00'
p4839
tp4840
Rp4841
tp4842
a(g4702
g4802
VWolfsburg
p4843
(lp4844
V2
p4845
aV0
p4846
ag10
(g14
S'\x01\x00\x00\x00'
p4847
tp4848
Rp4849
tp4850
a(g4702
g4802
VEintracht Frankfurt
p4851
(lp4852
V2
p4853
aV1
p4854
ag10
(g14
S'\x01\x00\x00\x00'
p4855
tp4856
Rp4857
tp4858
a(g4702
g4802
VVfB Stuttgart
p4859
(lp4860
V0
p4861
aV0
p4862
ag10
(g14
S'\x01\x00\x00\x00'
p4863
tp4864
Rp4865
tp4866
a(g4702
g4802
VBorussia M.Gladbach
p4867
(lp4868
V1
p4869
aV0
p4870
ag10
(g14
S'\x01\x00\x00\x00'
p4871
tp4872
Rp4873
tp4874
a(g4702
g4802
VSchalke 04
p4875
(lp4876
V2
p4877
aV1
p4878
ag10
(g14
S'\x01\x00\x00\x00'
p4879
tp4880
Rp4881
tp4882
a(g4702
g4802
VBayer Leverkusen
p4883
(lp4884
V3
p4885
aV1
p4886
ag10
(g14
S'\x01\x00\x00\x00'
p4887
tp4888
Rp4889
tp4890
a(g4702
g4802
VDarmstadt
p4891
(lp4892
V0
p4893
aV0
p4894
ag10
(g14
S'\x01\x00\x00\x00'
p4895
tp4896
Rp4897
tp4898
a(g4702
VIngolstadt
p4899
VBorussia Dortmund
p4900
(lp4901
V0
p4902
aV4
p4903
ag10
(g14
S'\xff\xff\xff\xff'
p4904
tp4905
Rp4906
tp4907
a(g4702
g4899
VWolfsburg
p4908
(lp4909
V0
p4910
aV0
p4911
ag10
(g14
S'\xff\xff\xff\xff'
p4912
tp4913
Rp4914
tp4915
a(g4702
g4899
VHamburger SV
p4916
(lp4917
V0
p4918
aV1
p4919
ag10
(g14
S'\xff\xff\xff\xff'
p4920
tp4921
Rp4922
tp4923
a(g4702
g4899
VEintracht Frankfurt
p4924
(lp4925
V2
p4926
aV0
p4927
ag10
(g14
S'\xff\xff\xff\xff'
p4928
tp4929
Rp4930
tp4931
a(g4702
g4899
VHertha Berlin
p4932
(lp4933
V0
p4934
aV1
p4935
ag10
(g14
S'\xff\xff\xff\xff'
p4936
tp4937
Rp4938
tp4939
a(g4702
g4899
VDarmstadt
p4940
(lp4941
V3
p4942
aV1
p4943
ag10
(g14
S'\x01\x00\x00\x00'
p4944
tp4945
Rp4946
tp4947
a(g4702
g4899
VHoffenheim
p4948
(lp4949
V1
p4950
aV1
p4951
ag10
(g14
S'\x01\x00\x00\x00'
p4952
tp4953
Rp4954
tp4955
a(g4702
g4899
VBayer Leverkusen
p4956
(lp4957
V0
p4958
aV1
p4959
ag10
(g14
S'\xff\xff\xff\xff'
p4960
tp4961
Rp4962
tp4963
a(g4702
g4899
VMainz 05
p4964
(lp4965
V1
p4966
aV0
p4967
ag10
(g14
S'\xff\xff\xff\xff'
p4968
tp4969
Rp4970
tp4971
a(g4702
g4899
VAugsburg
p4972
(lp4973
V2
p4974
aV1
p4975
ag10
(g14
S'\xff\xff\xff\xff'
p4976
tp4977
Rp4978
tp4979
a(g4702
g4899
VWerder Bremen
p4980
(lp4981
V2
p4982
aV0
p4983
ag10
(g14
S'\xff\xff\xff\xff'
p4984
tp4985
Rp4986
tp4987
a(g4702
g4899
VFC Cologne
p4988
(lp4989
V1
p4990
aV1
p4991
ag10
(g14
S'\xff\xff\xff\xff'
p4992
tp4993
Rp4994
tp4995
a(g4702
VHertha Berlin
p4996
VWerder Bremen
p4997
(lp4998
V1
p4999
aV1
p5000
ag10
(g14
S'\x01\x00\x00\x00'
p5001
tp5002
Rp5003
tp5004
a(g4702
g4996
VVfB Stuttgart
p5005
(lp5006
V2
p5007
aV1
p5008
ag10
(g14
S'\x01\x00\x00\x00'
p5009
tp5010
Rp5011
tp5012
a(g4702
g4996
VFC Cologne
p5013
(lp5014
V2
p5015
aV0
p5016
ag10
(g14
S'\x01\x00\x00\x00'
p5017
tp5018
Rp5019
tp5020
a(g4702
g4996
VHamburger SV
p5021
(lp5022
V3
p5023
aV0
p5024
ag10
(g14
S'\xff\xff\xff\xff'
p5025
tp5026
Rp5027
tp5028
a(g4702
g4996
VBorussia M.Gladbach
p5029
(lp5030
V1
p5031
aV4
p5032
ag10
(g14
S'\xff\xff\xff\xff'
p5033
tp5034
Rp5035
tp5036
a(g4702
g4996
VHoffenheim
p5037
(lp5038
V1
p5039
aV0
p5040
ag10
(g14
S'\x01\x00\x00\x00'
p5041
tp5042
Rp5043
tp5044
a(g4702
g4996
VBayer Leverkusen
p5045
(lp5046
V2
p5047
aV1
p5048
ag10
(g14
S'\xff\xff\xff\xff'
p5049
tp5050
Rp5051
tp5052
a(g4702
g4996
VMainz 05
p5053
(lp5054
V2
p5055
aV0
p5056
ag10
(g14
S'\x01\x00\x00\x00'
p5057
tp5058
Rp5059
tp5060
a(g4702
g4996
VAugsburg
p5061
(lp5062
V0
p5063
aV0
p5064
ag10
(g14
S'\x01\x00\x00\x00'
p5065
tp5066
Rp5067
tp5068
a(g4702
g4996
VBorussia Dortmund
p5069
(lp5070
V0
p5071
aV0
p5072
ag10
(g14
S'\xff\xff\xff\xff'
p5073
tp5074
Rp5075
tp5076
a(g4702
g4996
VWolfsburg
p5077
(lp5078
V1
p5079
aV1
p5080
ag10
(g14
S'\xff\xff\xff\xff'
p5081
tp5082
Rp5083
tp5084
a(g4702
g4996
VEintracht Frankfurt
p5085
(lp5086
V2
p5087
aV0
p5088
ag10
(g14
S'\x01\x00\x00\x00'
p5089
tp5090
Rp5091
tp5092
a(g4702
VVfB Stuttgart
p5093
VFC Cologne
p5094
(lp5095
V1
p5096
aV3
p5097
ag10
(g14
S'\x01\x00\x00\x00'
p5098
tp5099
Rp5100
tp5101
a(g4702
g5093
VEintracht Frankfurt
p5102
(lp5103
V1
p5104
aV4
p5105
ag10
(g14
S'\x01\x00\x00\x00'
p5106
tp5107
Rp5108
tp5109
a(g4702
g5093
VSchalke 04
p5110
(lp5111
V0
p5112
aV1
p5113
ag10
(g14
S'\xff\xff\xff\xff'
p5114
tp5115
Rp5116
tp5117
a(g4702
g5093
VBorussia M.Gladbach
p5118
(lp5119
V1
p5120
aV3
p5121
ag10
(g14
S'\x01\x00\x00\x00'
p5122
tp5123
Rp5124
tp5125
a(g4702
g5093
VIngolstadt
p5126
(lp5127
V1
p5128
aV0
p5129
ag10
(g14
S'\x01\x00\x00\x00'
p5130
tp5131
Rp5132
tp5133
a(g4702
g5093
VDarmstadt
p5134
(lp5135
V2
p5136
aV0
p5137
ag10
(g14
S'\x01\x00\x00\x00'
p5138
tp5139
Rp5140
tp5141
a(g4702
g5093
VAugsburg
p5142
(lp5143
V0
p5144
aV4
p5145
ag10
(g14
S'\x01\x00\x00\x00'
p5146
tp5147
Rp5148
tp5149
a(g4702
g5093
VWerder Bremen
p5150
(lp5151
V1
p5152
aV1
p5153
ag10
(g14
S'\x01\x00\x00\x00'
p5154
tp5155
Rp5156
tp5157
a(g4702
g5093
VWolfsburg
p5158
(lp5159
V3
p5160
aV1
p5161
ag10
(g14
S'\xff\xff\xff\xff'
p5162
tp5163
Rp5164
tp5165
a(g4702
g5093
VHamburger SV
p5166
(lp5167
V2
p5168
aV1
p5169
ag10
(g14
S'\x01\x00\x00\x00'
p5170
tp5171
Rp5172
tp5173
a(g4702
g5093
VHertha Berlin
p5174
(lp5175
V2
p5176
aV0
p5177
ag10
(g14
S'\x01\x00\x00\x00'
p5178
tp5179
Rp5180
tp5181
a(g4702
g5093
VHannover 96
p5182
(lp5183
V1
p5184
aV2
p5185
ag10
(g14
S'\x01\x00\x00\x00'
p5186
tp5187
Rp5188
tp5189
a(g4702
g5093
VHoffenheim
p5190
(lp5191
V5
p5192
aV1
p5193
ag10
(g14
S'\x01\x00\x00\x00'
p5194
tp5195
Rp5196
tp5197
a(g4702
VEintracht Frankfurt
p5198
VAugsburg
p5199
(lp5200
V1
p5201
aV1
p5202
ag10
(g14
S'\x01\x00\x00\x00'
p5203
tp5204
Rp5205
tp5206
a(g4702
g5198
VFC Cologne
p5207
(lp5208
V6
p5209
aV2
p5210
ag10
(g14
S'\xff\xff\xff\xff'
p5211
tp5212
Rp5213
tp5214
a(g4702
g5198
VHertha Berlin
p5215
(lp5216
V1
p5217
aV1
p5218
ag10
(g14
S'\x01\x00\x00\x00'
p5219
tp5220
Rp5221
tp5222
a(g4702
g5198
VBorussia M.Gladbach
p5223
(lp5224
V1
p5225
aV5
p5226
ag10
(g14
S'\x01\x00\x00\x00'
p5227
tp5228
Rp5229
tp5230
a(g4702
g5198
VBayern Munich
p5231
(lp5232
V0
p5233
aV0
p5234
ag10
(g14
S'\xff\xff\xff\xff'
p5235
tp5236
Rp5237
tp5238
a(g4702
g5198
VBayer Leverkusen
p5239
(lp5240
V1
p5241
aV3
p5242
ag10
(g14
S'\x01\x00\x00\x00'
p5243
tp5244
Rp5245
tp5246
a(g4702
g5198
VDarmstadt
p5247
(lp5248
V0
p5249
aV1
p5250
ag10
(g14
S'\x01\x00\x00\x00'
p5251
tp5252
Rp5253
tp5254
a(g4702
g5198
VWerder Bremen
p5255
(lp5256
V2
p5257
aV1
p5258
ag10
(g14
S'\x01\x00\x00\x00'
p5259
tp5260
Rp5261
tp5262
a(g4702
g5198
VWolfsburg
p5263
(lp5264
V3
p5265
aV2
p5266
ag10
(g14
S'\x01\x00\x00\x00'
p5267
tp5268
Rp5269
tp5270
a(g4702
g5198
VVfB Stuttgart
p5271
(lp5272
V2
p5273
aV4
p5274
ag10
(g14
S'\x01\x00\x00\x00'
p5275
tp5276
Rp5277
tp5278
a(g4702
g5198
VHamburger SV
p5279
(lp5280
V0
p5281
aV0
p5282
ag10
(g14
S'\xff\xff\xff\xff'
p5283
tp5284
Rp5285
tp5286
a(g4702
g5198
VSchalke 04
p5287
(lp5288
V0
p5289
aV0
p5290
ag10
(g14
S'\x01\x00\x00\x00'
p5291
tp5292
Rp5293
tp5294
a(g4702
g5198
VIngolstadt
p5295
(lp5296
V1
p5297
aV1
p5298
ag10
(g14
S'\x01\x00\x00\x00'
p5299
tp5300
Rp5301
tp5302
a(g4702
VHoffenheim
p5303
VBayern Munich
p5304
(lp5305
V1
p5306
aV2
p5307
ag10
(g14
S'\xff\xff\xff\xff'
p5308
tp5309
Rp5310
tp5311
a(g4702
g5303
VWerder Bremen
p5312
(lp5313
V1
p5314
aV3
p5315
ag10
(g14
S'\x01\x00\x00\x00'
p5316
tp5317
Rp5318
tp5319
a(g4702
g5303
VBorussia Dortmund
p5320
(lp5321
V1
p5322
aV1
p5323
ag10
(g14
S'\xff\xff\xff\xff'
p5324
tp5325
Rp5326
tp5327
a(g4702
g5303
VVfB Stuttgart
p5328
(lp5329
V2
p5330
aV2
p5331
ag10
(g14
S'\xff\xff\xff\xff'
p5332
tp5333
Rp5334
tp5335
a(g4702
g5303
VHamburger SV
p5336
(lp5337
V0
p5338
aV1
p5339
ag10
(g14
S'\x01\x00\x00\x00'
p5340
tp5341
Rp5342
tp5343
a(g4702
g5303
VEintracht Frankfurt
p5344
(lp5345
V0
p5346
aV0
p5347
ag10
(g14
S'\x01\x00\x00\x00'
p5348
tp5349
Rp5350
tp5351
a(g4702
g5303
VBorussia M.Gladbach
p5352
(lp5353
V3
p5354
aV3
p5355
ag10
(g14
S'\xff\xff\xff\xff'
p5356
tp5357
Rp5358
tp5359
a(g4702
g5303
VHannover 96
p5360
(lp5361
V1
p5362
aV0
p5363
ag10
(g14
S'\xff\xff\xff\xff'
p5364
tp5365
Rp5366
tp5367
a(g4702
g5303
VBayer Leverkusen
p5368
(lp5369
V1
p5370
aV1
p5371
ag10
(g14
S'\xff\xff\xff\xff'
p5372
tp5373
Rp5374
tp5375
a(g4702
g5303
VDarmstadt
p5376
(lp5377
V0
p5378
aV2
p5379
ag10
(g14
S'\x01\x00\x00\x00'
p5380
tp5381
Rp5382
tp5383
a(g4702
g5303
VMainz 05
p5384
(lp5385
V3
p5386
aV2
p5387
ag10
(g14
S'\x01\x00\x00\x00'
p5388
tp5389
Rp5390
tp5391
a(g4702
g5303
VAugsburg
p5392
(lp5393
V2
p5394
aV1
p5395
ag10
(g14
S'\xff\xff\xff\xff'
p5396
tp5397
Rp5398
tp5399
a(g4702
VBayer Leverkusen
p5400
VHoffenheim
p5401
(lp5402
V2
p5403
aV1
p5404
ag10
(g14
S'\x01\x00\x00\x00'
p5405
tp5406
Rp5407
tp5408
a(g4702
g5400
VDarmstadt
p5409
(lp5410
V0
p5411
aV1
p5412
ag10
(g14
S'\x01\x00\x00\x00'
p5413
tp5414
Rp5415
tp5416
a(g4702
g5400
VMainz 05
p5417
(lp5418
V1
p5419
aV0
p5420
ag10
(g14
S'\xff\xff\xff\xff'
p5421
tp5422
Rp5423
tp5424
a(g4702
g5400
VAugsburg
p5425
(lp5426
V1
p5427
aV1
p5428
ag10
(g14
S'\x01\x00\x00\x00'
p5429
tp5430
Rp5431
tp5432
a(g4702
g5400
VVfB Stuttgart
p5433
(lp5434
V4
p5435
aV3
p5436
ag10
(g14
S'\x01\x00\x00\x00'
p5437
tp5438
Rp5439
tp5440
a(g4702
g5400
VFC Cologne
p5441
(lp5442
V1
p5443
aV2
p5444
ag10
(g14
S'\x01\x00\x00\x00'
p5445
tp5446
Rp5447
tp5448
a(g4702
g5400
VSchalke 04
p5449
(lp5450
V1
p5451
aV1
p5452
ag10
(g14
S'\x01\x00\x00\x00'
p5453
tp5454
Rp5455
tp5456
a(g4702
g5400
VBorussia M.Gladbach
p5457
(lp5458
V5
p5459
aV0
p5460
ag10
(g14
S'\xff\xff\xff\xff'
p5461
tp5462
Rp5463
tp5464
a(g4702
g5400
VHannover 96
p5465
(lp5466
V3
p5467
aV0
p5468
ag10
(g14
S'\x01\x00\x00\x00'
p5469
tp5470
Rp5471
tp5472
a(g4702
g5400
VBayern Munich
p5473
(lp5474
V0
p5475
aV0
p5476
ag10
(g14
S'\xff\xff\xff\xff'
p5477
tp5478
Rp5479
tp5480
a(g4702
g5400
VBorussia Dortmund
p5481
(lp5482
V0
p5483
aV1
p5484
ag10
(g14
S'\xff\xff\xff\xff'
p5485
tp5486
Rp5487
tp5488
a(g4702
g5400
VWerder Bremen
p5489
(lp5490
V1
p5491
aV4
p5492
ag10
(g14
S'\x01\x00\x00\x00'
p5493
tp5494
Rp5495
tp5496
a(g4702
VHannover 96
p5497
VBayer Leverkusen
p5498
(lp5499
V0
p5500
aV1
p5501
ag10
(g14
S'\xff\xff\xff\xff'
p5502
tp5503
Rp5504
tp5505
a(g4702
g5497
VBorussia Dortmund
p5506
(lp5507
V2
p5508
aV4
p5509
ag10
(g14
S'\xff\xff\xff\xff'
p5510
tp5511
Rp5512
tp5513
a(g4702
g5497
VVfB Stuttgart
p5514
(lp5515
V1
p5516
aV3
p5517
ag10
(g14
S'\xff\xff\xff\xff'
p5518
tp5519
Rp5520
tp5521
a(g4702
g5497
VWerder Bremen
p5522
(lp5523
V1
p5524
aV0
p5525
ag10
(g14
S'\x01\x00\x00\x00'
p5526
tp5527
Rp5528
tp5529
a(g4702
g5497
VEintracht Frankfurt
p5530
(lp5531
V1
p5532
aV2
p5533
ag10
(g14
S'\xff\xff\xff\xff'
p5534
tp5535
Rp5536
tp5537
a(g4702
g5497
VHertha Berlin
p5538
(lp5539
V1
p5540
aV3
p5541
ag10
(g14
S'\xff\xff\xff\xff'
p5542
tp5543
Rp5544
tp5545
a(g4702
g5497
VIngolstadt
p5546
(lp5547
V4
p5548
aV0
p5549
ag10
(g14
S'\x01\x00\x00\x00'
p5550
tp5551
Rp5552
tp5553
a(g4702
g5497
VBayern Munich
p5554
(lp5555
V0
p5556
aV1
p5557
ag10
(g14
S'\xff\xff\xff\xff'
p5558
tp5559
Rp5560
tp5561
a(g4702
g5497
VDarmstadt
p5562
(lp5563
V1
p5564
aV2
p5565
ag10
(g14
S'\x01\x00\x00\x00'
p5566
tp5567
Rp5568
tp5569
a(g4702
g5497
VMainz 05
p5570
(lp5571
V0
p5572
aV1
p5573
ag10
(g14
S'\x01\x00\x00\x00'
p5574
tp5575
Rp5576
tp5577
a(g4702
g5497
VAugsburg
p5578
(lp5579
V0
p5580
aV1
p5581
ag10
(g14
S'\x01\x00\x00\x00'
p5582
tp5583
Rp5584
tp5585
a(g4702
g5497
VWolfsburg
p5586
(lp5587
V0
p5588
aV4
p5589
ag10
(g14
S'\xff\xff\xff\xff'
p5590
tp5591
Rp5592
tp5593
a(g4702
VBorussia M.Gladbach
p5594
VMainz 05
p5595
(lp5596
V1
p5597
aV2
p5598
ag10
(g14
S'\x01\x00\x00\x00'
p5599
tp5600
Rp5601
tp5602
a(g4702
g5594
VHamburger SV
p5603
(lp5604
V0
p5605
aV3
p5606
ag10
(g14
S'\x01\x00\x00\x00'
p5607
tp5608
Rp5609
tp5610
a(g4702
g5594
VAugsburg
p5611
(lp5612
V4
p5613
aV2
p5614
ag10
(g14
S'\x01\x00\x00\x00'
p5615
tp5616
Rp5617
tp5618
a(g4702
g5594
VWolfsburg
p5619
(lp5620
V2
p5621
aV0
p5622
ag10
(g14
S'\x01\x00\x00\x00'
p5623
tp5624
Rp5625
tp5626
a(g4702
g5594
VSchalke 04
p5627
(lp5628
V3
p5629
aV1
p5630
ag10
(g14
S'\x01\x00\x00\x00'
p5631
tp5632
Rp5633
tp5634
a(g4702
g5594
VIngolstadt
p5635
(lp5636
V0
p5637
aV0
p5638
ag10
(g14
S'\x01\x00\x00\x00'
p5639
tp5640
Rp5641
tp5642
a(g4702
g5594
VHannover 96
p5643
(lp5644
V2
p5645
aV1
p5646
ag10
(g14
S'\x01\x00\x00\x00'
p5647
tp5648
Rp5649
tp5650
a(g4702
g5594
VBayern Munich
p5651
(lp5652
V3
p5653
aV1
p5654
ag10
(g14
S'\xff\xff\xff\xff'
p5655
tp5656
Rp5657
tp5658
a(g4702
g5594
VDarmstadt
p5659
(lp5660
V3
p5661
aV2
p5662
ag10
(g14
S'\x01\x00\x00\x00'
p5663
tp5664
Rp5665
tp5666
a(g4702
g5594
VBorussia Dortmund
p5667
(lp5668
V1
p5669
aV3
p5670
ag10
(g14
S'\xff\xff\xff\xff'
p5671
tp5672
Rp5673
tp5674
a(g4702
g5594
VWerder Bremen
p5675
(lp5676
V5
p5677
aV1
p5678
ag10
(g14
S'\x01\x00\x00\x00'
p5679
tp5680
Rp5681
tp5682
a(g4702
g5594
VFC Cologne
p5683
(lp5684
V1
p5685
aV0
p5686
ag10
(g14
S'\x01\x00\x00\x00'
p5687
tp5688
Rp5689
tp5690
a(g4702
g5594
VVfB Stuttgart
p5691
(lp5692
V4
p5693
aV0
p5694
ag10
(g14
S'\x01\x00\x00\x00'
p5695
tp5696
Rp5697
tp5698
a(g4702
VWolfsburg
p5699
VEintracht Frankfurt
p5700
(lp5701
V2
p5702
aV1
p5703
ag10
(g14
S'\x01\x00\x00\x00'
p5704
tp5705
Rp5706
tp5707
a(g4702
g5699
VSchalke 04
p5708
(lp5709
V3
p5710
aV0
p5711
ag10
(g14
S'\x01\x00\x00\x00'
p5712
tp5713
Rp5714
tp5715
a(g4702
g5699
VHertha Berlin
p5716
(lp5717
V2
p5718
aV0
p5719
ag10
(g14
S'\x01\x00\x00\x00'
p5720
tp5721
Rp5722
tp5723
a(g4702
g5699
VHannover 96
p5724
(lp5725
V1
p5726
aV1
p5727
ag10
(g14
S'\x01\x00\x00\x00'
p5728
tp5729
Rp5730
tp5731
a(g4702
g5699
VHoffenheim
p5732
(lp5733
V4
p5734
aV2
p5735
ag10
(g14
S'\x01\x00\x00\x00'
p5736
tp5737
Rp5738
tp5739
a(g4702
g5699
VBayer Leverkusen
p5740
(lp5741
V2
p5742
aV1
p5743
ag10
(g14
S'\x01\x00\x00\x00'
p5744
tp5745
Rp5746
tp5747
a(g4702
g5699
VWerder Bremen
p5748
(lp5749
V6
p5750
aV0
p5751
ag10
(g14
S'\x01\x00\x00\x00'
p5752
tp5753
Rp5754
tp5755
a(g4702
g5699
VBorussia Dortmund
p5756
(lp5757
V1
p5758
aV2
p5759
ag10
(g14
S'\x01\x00\x00\x00'
p5760
tp5761
Rp5762
tp5763
a(g4702
g5699
VHamburger SV
p5764
(lp5765
V1
p5766
aV1
p5767
ag10
(g14
S'\x01\x00\x00\x00'
p5768
tp5769
Rp5770
tp5771
a(g4702
g5699
VFC Cologne
p5772
(lp5773
V1
p5774
aV1
p5775
ag10
(g14
S'\x01\x00\x00\x00'
p5776
tp5777
Rp5778
tp5779
a(g4702
g5699
VIngolstadt
p5780
(lp5781
V2
p5782
aV0
p5783
ag10
(g14
S'\x01\x00\x00\x00'
p5784
tp5785
Rp5786
tp5787
a(g4702
g5699
VBayern Munich
p5788
(lp5789
V0
p5790
aV2
p5791
ag10
(g14
S'\xff\xff\xff\xff'
p5792
tp5793
Rp5794
tp5795
a(g4702
g5699
VBorussia M.Gladbach
p5796
(lp5797
V2
p5798
aV1
p5799
ag10
(g14
S'\x01\x00\x00\x00'
p5800
tp5801
Rp5802
tp5803
a(g4702
VHamburger SV
p5804
VVfB Stuttgart
p5805
(lp5806
V3
p5807
aV2
p5808
ag10
(g14
S'\x01\x00\x00\x00'
p5809
tp5810
Rp5811
tp5812
a(g4702
g5804
VEintracht Frankfurt
p5813
(lp5814
V0
p5815
aV0
p5816
ag10
(g14
S'\xff\xff\xff\xff'
p5817
tp5818
Rp5819
tp5820
a(g4702
g5804
VSchalke 04
p5821
(lp5822
V0
p5823
aV1
p5824
ag10
(g14
S'\xff\xff\xff\xff'
p5825
tp5826
Rp5827
tp5828
a(g4702
g5804
VBayer Leverkusen
p5829
(lp5830
V0
p5831
aV0
p5832
ag10
(g14
S'\xff\xff\xff\xff'
p5833
tp5834
Rp5835
tp5836
a(g4702
g5804
VHannover 96
p5837
(lp5838
V1
p5839
aV2
p5840
ag10
(g14
S'\x01\x00\x00\x00'
p5841
tp5842
Rp5843
tp5844
a(g4702
g5804
VBorussia Dortmund
p5845
(lp5846
V3
p5847
aV1
p5848
ag10
(g14
S'\xff\xff\xff\xff'
p5849
tp5850
Rp5851
tp5852
a(g4702
g5804
VMainz 05
p5853
(lp5854
V1
p5855
aV3
p5856
ag10
(g14
S'\x01\x00\x00\x00'
p5857
tp5858
Rp5859
tp5860
a(g4702
g5804
VAugsburg
p5861
(lp5862
V0
p5863
aV1
p5864
ag10
(g14
S'\x01\x00\x00\x00'
p5865
tp5866
Rp5867
tp5868
a(g4702
g5804
VBayern Munich
p5869
(lp5870
V1
p5871
aV2
p5872
ag10
(g14
S'\xff\xff\xff\xff'
p5873
tp5874
Rp5875
tp5876
a(g4702
g5804
VFC Cologne
p5877
(lp5878
V1
p5879
aV1
p5880
ag10
(g14
S'\xff\xff\xff\xff'
p5881
tp5882
Rp5883
tp5884
a(g4702
g5804
VBorussia M.Gladbach
p5885
(lp5886
V3
p5887
aV2
p5888
ag10
(g14
S'\xff\xff\xff\xff'
p5889
tp5890
Rp5891
tp5892
a(g4702
g5804
VIngolstadt
p5893
(lp5894
V1
p5895
aV1
p5896
ag10
(g14
S'\x01\x00\x00\x00'
p5897
tp5898
Rp5899
tp5900
a(g4702
g5804
VHertha Berlin
p5901
(lp5902
V2
p5903
aV0
p5904
ag10
(g14
S'\x01\x00\x00\x00'
p5905
tp5906
Rp5907
tp5908
a(g4702
VDarmstadt
p5909
VHoffenheim
p5910
(lp5911
V0
p5912
aV0
p5913
ag10
(g14
S'\xff\xff\xff\xff'
p5914
tp5915
Rp5916
tp5917
a(g4702
g5909
VBayern Munich
p5918
(lp5919
V0
p5920
aV3
p5921
ag10
(g14
S'\xff\xff\xff\xff'
p5922
tp5923
Rp5924
tp5925
a(g4702
g5909
VWerder Bremen
p5926
(lp5927
V2
p5928
aV1
p5929
ag10
(g14
S'\xff\xff\xff\xff'
p5930
tp5931
Rp5932
tp5933
a(g4702
g5909
VMainz 05
p5934
(lp5935
V2
p5936
aV3
p5937
ag10
(g14
S'\xff\xff\xff\xff'
p5938
tp5939
Rp5940
tp5941
a(g4702
g5909
VWolfsburg
p5942
(lp5943
V0
p5944
aV1
p5945
ag10
(g14
S'\xff\xff\xff\xff'
p5946
tp5947
Rp5948
tp5949
a(g4702
g5909
VHamburger SV
p5950
(lp5951
V1
p5952
aV1
p5953
ag10
(g14
S'\xff\xff\xff\xff'
p5954
tp5955
Rp5956
tp5957
a(g4702
g5909
VFC Cologne
p5958
(lp5959
V0
p5960
aV0
p5961
ag10
(g14
S'\xff\xff\xff\xff'
p5962
tp5963
Rp5964
tp5965
a(g4702
g5909
VHertha Berlin
p5966
(lp5967
V0
p5968
aV4
p5969
ag10
(g14
S'\xff\xff\xff\xff'
p5970
tp5971
Rp5972
tp5973
a(g4702
g5909
VSchalke 04
p5974
(lp5975
V0
p5976
aV2
p5977
ag10
(g14
S'\xff\xff\xff\xff'
p5978
tp5979
Rp5980
tp5981
a(g4702
g5909
VBayer Leverkusen
p5982
(lp5983
V1
p5984
aV2
p5985
ag10
(g14
S'\xff\xff\xff\xff'
p5986
tp5987
Rp5988
tp5989
a(g4702
g5909
VBorussia Dortmund
p5990
(lp5991
V0
p5992
aV2
p5993
ag10
(g14
S'\xff\xff\xff\xff'
p5994
tp5995
Rp5996
tp5997
a(g4702
VFC Cologne
p5998
VWolfsburg
p5999
(lp6000
V1
p6001
aV1
p6002
ag10
(g14
S'\xff\xff\xff\xff'
p6003
tp6004
Rp6005
tp6006
a(g4702
g5998
VHamburger SV
p6007
(lp6008
V2
p6009
aV1
p6010
ag10
(g14
S'\x01\x00\x00\x00'
p6011
tp6012
Rp6013
tp6014
a(g4702
g5998
VBorussia M.Gladbach
p6015
(lp6016
V1
p6017
aV0
p6018
ag10
(g14
S'\xff\xff\xff\xff'
p6019
tp6020
Rp6021
tp6022
a(g4702
g5998
VIngolstadt
p6023
(lp6024
V1
p6025
aV1
p6026
ag10
(g14
S'\x01\x00\x00\x00'
p6027
tp6028
Rp6029
tp6030
a(g4702
g5998
VHannover 96
p6031
(lp6032
V0
p6033
aV1
p6034
ag10
(g14
S'\x01\x00\x00\x00'
p6035
tp6036
Rp6037
tp6038
a(g4702
g5998
VHoffenheim
p6039
(lp6040
V0
p6041
aV0
p6042
ag10
(g14
S'\x01\x00\x00\x00'
p6043
tp6044
Rp6045
tp6046
a(g4702
g5998
VMainz 05
p6047
(lp6048
V0
p6049
aV0
p6050
ag10
(g14
S'\x01\x00\x00\x00'
p6051
tp6052
Rp6053
tp6054
a(g4702
g5998
VAugsburg
p6055
(lp6056
V0
p6057
aV1
p6058
ag10
(g14
S'\x01\x00\x00\x00'
p6059
tp6060
Rp6061
tp6062
a(g4702
g5998
VBorussia Dortmund
p6063
(lp6064
V2
p6065
aV1
p6066
ag10
(g14
S'\xff\xff\xff\xff'
p6067
tp6068
Rp6069
tp6070
a(g4702
g5998
VVfB Stuttgart
p6071
(lp6072
V1
p6073
aV3
p6074
ag10
(g14
S'\x01\x00\x00\x00'
p6075
tp6076
Rp6077
tp6078
a(g4702
g5998
VEintracht Frankfurt
p6079
(lp6080
V3
p6081
aV1
p6082
ag10
(g14
S'\x01\x00\x00\x00'
p6083
tp6084
Rp6085
tp6086
a(g4702
g5998
VHertha Berlin
p6087
(lp6088
V0
p6089
aV1
p6090
ag10
(g14
S'\x01\x00\x00\x00'
p6091
tp6092
Rp6093
tp6094
a(g4702
g5998
VSchalke 04
p6095
(lp6096
V1
p6097
aV3
p6098
ag10
(g14
S'\xff\xff\xff\xff'
p6099
tp6100
Rp6101
tp6102
a(g4702
VSchalke 04
p6103
VDarmstadt
p6104
(lp6105
V1
p6106
aV1
p6107
ag10
(g14
S'\x01\x00\x00\x00'
p6108
tp6109
Rp6110
tp6111
a(g4702
g6103
VMainz 05
p6112
(lp6113
V2
p6114
aV1
p6115
ag10
(g14
S'\x01\x00\x00\x00'
p6116
tp6117
Rp6118
tp6119
a(g4702
g6103
VEintracht Frankfurt
p6120
(lp6121
V2
p6122
aV0
p6123
ag10
(g14
S'\x01\x00\x00\x00'
p6124
tp6125
Rp6126
tp6127
a(g4702
g6103
VFC Cologne
p6128
(lp6129
V0
p6130
aV3
p6131
ag10
(g14
S'\x01\x00\x00\x00'
p6132
tp6133
Rp6134
tp6135
a(g4702
g6103
VHertha Berlin
p6136
(lp6137
V2
p6138
aV1
p6139
ag10
(g14
S'\x01\x00\x00\x00'
p6140
tp6141
Rp6142
tp6143
a(g4702
g6103
VIngolstadt
p6144
(lp6145
V1
p6146
aV1
p6147
ag10
(g14
S'\x01\x00\x00\x00'
p6148
tp6149
Rp6150
tp6151
a(g4702
g6103
VBayern Munich
p6152
(lp6153
V1
p6154
aV3
p6155
ag10
(g14
S'\xff\xff\xff\xff'
p6156
tp6157
Rp6158
tp6159
a(g4702
g6103
VHannover 96
p6160
(lp6161
V3
p6162
aV1
p6163
ag10
(g14
S'\x01\x00\x00\x00'
p6164
tp6165
Rp6166
tp6167
a(g4702
g6103
VHoffenheim
p6168
(lp6169
V1
p6170
aV0
p6171
ag10
(g14
S'\x01\x00\x00\x00'
p6172
tp6173
Rp6174
tp6175
a(g4702
g6103
VWerder Bremen
p6176
(lp6177
V1
p6178
aV3
p6179
ag10
(g14
S'\x01\x00\x00\x00'
p6180
tp6181
Rp6182
tp6183
a(g4702
g6103
VWolfsburg
p6184
(lp6185
V3
p6186
aV0
p6187
ag10
(g14
S'\x01\x00\x00\x00'
p6188
tp6189
Rp6190
tp6191
a(g4702
g6103
VVfB Stuttgart
p6192
(lp6193
V1
p6194
aV1
p6195
ag10
(g14
S'\x01\x00\x00\x00'
p6196
tp6197
Rp6198
tp6199
a(g4702
g6103
VHamburger SV
p6200
(lp6201
V3
p6202
aV2
p6203
ag10
(g14
S'\x01\x00\x00\x00'
p6204
tp6205
Rp6206
tp6207
a(g4702
VAugsburg
p6208
VHertha Berlin
p6209
(lp6210
V0
p6211
aV1
p6212
ag10
(g14
S'\x01\x00\x00\x00'
p6213
tp6214
Rp6215
tp6216
a(g4702
g6208
VIngolstadt
p6217
(lp6218
V0
p6219
aV1
p6220
ag10
(g14
S'\xff\xff\xff\xff'
p6221
tp6222
Rp6223
tp6224
a(g4702
g6208
VHannover 96
p6225
(lp6226
V2
p6227
aV0
p6228
ag10
(g14
S'\x01\x00\x00\x00'
p6229
tp6230
Rp6231
tp6232
a(g4702
g6208
VHoffenheim
p6233
(lp6234
V1
p6235
aV3
p6236
ag10
(g14
S'\x01\x00\x00\x00'
p6237
tp6238
Rp6239
tp6240
a(g4702
g6208
VDarmstadt
p6241
(lp6242
V0
p6243
aV2
p6244
ag10
(g14
S'\x01\x00\x00\x00'
p6245
tp6246
Rp6247
tp6248
a(g4702
g6208
VMainz 05
p6249
(lp6250
V3
p6251
aV3
p6252
ag10
(g14
S'\x01\x00\x00\x00'
p6253
tp6254
Rp6255
tp6256
a(g4702
g6208
VWerder Bremen
p6257
(lp6258
V1
p6259
aV2
p6260
ag10
(g14
S'\x01\x00\x00\x00'
p6261
tp6262
Rp6263
tp6264
a(g4702
g6208
VWolfsburg
p6265
(lp6266
V0
p6267
aV0
p6268
ag10
(g14
S'\xff\xff\xff\xff'
p6269
tp6270
Rp6271
tp6272
a(g4702
g6208
VSchalke 04
p6273
(lp6274
V2
p6275
aV1
p6276
ag10
(g14
S'\x01\x00\x00\x00'
p6277
tp6278
Rp6279
tp6280
a(g4702
g6208
VEintracht Frankfurt
p6281
(lp6282
V0
p6283
aV0
p6284
ag10
(g14
S'\xff\xff\xff\xff'
p6285
tp6286
Rp6287
tp6288
a(g4702
g6208
VBayern Munich
p6289
(lp6290
V1
p6291
aV3
p6292
ag10
(g14
S'\xff\xff\xff\xff'
p6293
tp6294
Rp6295
tp6296
a(g4702
g6208
VBorussia M.Gladbach
p6297
(lp6298
V2
p6299
aV2
p6300
ag10
(g14
S'\xff\xff\xff\xff'
p6301
tp6302
Rp6303
tp6304
a(g4702
g6208
VBayer Leverkusen
p6305
(lp6306
V3
p6307
aV3
p6308
ag10
(g14
S'\xff\xff\xff\xff'
p6309
tp6310
Rp6311
tp6312
a(g4702
VBorussia Dortmund
p6313
VBorussia M.Gladbach
p6314
(lp6315
V4
p6316
aV0
p6317
ag10
(g14
S'\x01\x00\x00\x00'
p6318
tp6319
Rp6320
tp6321
a(g4702
g6313
VHertha Berlin
p6322
(lp6323
V3
p6324
aV1
p6325
ag10
(g14
S'\x01\x00\x00\x00'
p6326
tp6327
Rp6328
tp6329
a(g4702
g6313
VBayer Leverkusen
p6330
(lp6331
V3
p6332
aV0
p6333
ag10
(g14
S'\x01\x00\x00\x00'
p6334
tp6335
Rp6336
tp6337
a(g4702
g6313
VDarmstadt
p6338
(lp6339
V2
p6340
aV2
p6341
ag10
(g14
S'\x01\x00\x00\x00'
p6342
tp6343
Rp6344
tp6345
a(g4702
g6313
VAugsburg
p6346
(lp6347
V5
p6348
aV1
p6349
ag10
(g14
S'\x01\x00\x00\x00'
p6350
tp6351
Rp6352
tp6353
a(g4702
g6313
VSchalke 04
p6354
(lp6355
V3
p6356
aV2
p6357
ag10
(g14
S'\x01\x00\x00\x00'
p6358
tp6359
Rp6360
tp6361
a(g4702
g6313
VVfB Stuttgart
p6362
(lp6363
V4
p6364
aV1
p6365
ag10
(g14
S'\x01\x00\x00\x00'
p6366
tp6367
Rp6368
tp6369
a(g4702
g6313
VEintracht Frankfurt
p6370
(lp6371
V4
p6372
aV1
p6373
ag10
(g14
S'\x01\x00\x00\x00'
p6374
tp6375
Rp6376
tp6377
a(g4702
g6313
VIngolstadt
p6378
(lp6379
V2
p6380
aV0
p6381
ag10
(g14
S'\x01\x00\x00\x00'
p6382
tp6383
Rp6384
tp6385
a(g4702
g6313
VHannover 96
p6386
(lp6387
V1
p6388
aV0
p6389
ag10
(g14
S'\x01\x00\x00\x00'
p6390
tp6391
Rp6392
tp6393
a(g4702
g6313
VHoffenheim
p6394
(lp6395
V3
p6396
aV1
p6397
ag10
(g14
S'\x01\x00\x00\x00'
p6398
tp6399
Rp6400
tp6401
a(g4702
g6313
VBayern Munich
p6402
(lp6403
V0
p6404
aV0
p6405
ag10
(g14
S'\x01\x00\x00\x00'
p6406
tp6407
Rp6408
tp6409
a(g4702
VBayern Munich
p6410
VHamburger SV
p6411
(lp6412
V5
p6413
aV0
p6414
ag10
(g14
S'\x01\x00\x00\x00'
p6415
tp6416
Rp6417
tp6418
a(g4702
g6410
VBayer Leverkusen
p6419
(lp6420
V3
p6421
aV0
p6422
ag10
(g14
S'\x01\x00\x00\x00'
p6423
tp6424
Rp6425
tp6426
a(g4702
g6410
VAugsburg
p6427
(lp6428
V2
p6429
aV1
p6430
ag10
(g14
S'\x01\x00\x00\x00'
p6431
tp6432
Rp6433
tp6434
a(g4702
g6410
VWolfsburg
p6435
(lp6436
V5
p6437
aV1
p6438
ag10
(g14
S'\x01\x00\x00\x00'
p6439
tp6440
Rp6441
tp6442
a(g4702
g6410
VBorussia Dortmund
p6443
(lp6444
V5
p6445
aV1
p6446
ag10
(g14
S'\x01\x00\x00\x00'
p6447
tp6448
Rp6449
tp6450
a(g4702
g6410
VFC Cologne
p6451
(lp6452
V4
p6453
aV0
p6454
ag10
(g14
S'\x01\x00\x00\x00'
p6455
tp6456
Rp6457
tp6458
a(g4702
g6410
VVfB Stuttgart
p6459
(lp6460
V4
p6461
aV0
p6462
ag10
(g14
S'\x01\x00\x00\x00'
p6463
tp6464
Rp6465
tp6466
a(g4702
g6410
VHertha Berlin
p6467
(lp6468
V2
p6469
aV0
p6470
ag10
(g14
S'\x01\x00\x00\x00'
p6471
tp6472
Rp6473
tp6474
a(g4702
g6410
VIngolstadt
p6475
(lp6476
V2
p6477
aV0
p6478
ag10
(g14
S'\x01\x00\x00\x00'
p6479
tp6480
Rp6481
tp6482
a(g4702
g6410
VHoffenheim
p6483
(lp6484
V2
p6485
aV0
p6486
ag10
(g14
S'\x01\x00\x00\x00'
p6487
tp6488
Rp6489
tp6490
a(g4702
g6410
VDarmstadt
p6491
(lp6492
V3
p6493
aV1
p6494
ag10
(g14
S'\x01\x00\x00\x00'
p6495
tp6496
Rp6497
tp6498
a(g4702
g6410
VMainz 05
p6499
(lp6500
V1
p6501
aV2
p6502
ag10
(g14
S'\x01\x00\x00\x00'
p6503
tp6504
Rp6505
tp6506
asg2352
g10
(g2355
S'\xb9\x81Qg\x1a7\xe0?'
p6507
tp6508
Rp6509
sg2361
(dp6510
I0
F0.0
sI1
F0.7142857142857143
sI2
F0.4444444444444444
sI3
F0.6666666666666666
sI4
F0.4444444444444444
sI5
F0.6666666666666666
sI6
F0.6666666666666666
sI7
F0.3333333333333333
sI8
F0.4444444444444444
sI9
F0.5555555555555556
sI10
F0.7777777777777778
sI11
F0.4444444444444444
sI12
F0.4444444444444444
sI13
F0.5555555555555556
sI14
F0.5555555555555556
sI15
F0.1111111111111111
sI16
F0.4444444444444444
sI17
F0.6666666666666666
sI18
F0.3333333333333333
sI19
F0.6666666666666666
sI20
F0.2222222222222222
sI21
F0.7777777777777778
sI22
F0.4444444444444444
sI23
F0.3333333333333333
sI24
F0.5555555555555556
sI25
F0.4444444444444444
sI26
F0.0
sI27
F0.0
sI28
F0.0
sI29
F0.0
sI30
F0.0
sI31
F0.0
sI32
F0.0
sI33
F0.0
sI34
F0.0
sI35
F0.0
sI36
F0.0
sI37
F0.0
sI38
F0.0
sI39
F0.0
sI40
F0.0
sI41
F0.0
sI42
F0.0
sI43
F0.0
sI44
F0.0
sI45
F0.0
sI46
F0.0
sI47
F0.0
sI48
F0.0
sI49
F0.0
sI50
F0.0
sI51
F0.0
sI52
F0.0
sI53
F0.0
sI54
F0.0
sI55
F0.0
sI56
F0.0
sI57
F0.0
sI58
F0.0
sI59
F0.0
sI60
F0.0
sssS'La_Liga'
p6511
(dp6512
g3
(lp6513
(g6511
VVillarreal
p6514
VEspanyol
p6515
(lp6516
V3
p6517
aV1
p6518
ag10
(g14
S'\x01\x00\x00\x00'
p6519
tp6520
Rp6521
tp6522
a(g6511
g6514
VAthletic Club
p6523
(lp6524
V3
p6525
aV1
p6526
ag10
(g14
S'\x01\x00\x00\x00'
p6527
tp6528
Rp6529
tp6530
a(g6511
g6514
VAtletico Madrid
p6531
(lp6532
V1
p6533
aV0
p6534
ag10
(g14
S'\x01\x00\x00\x00'
p6535
tp6536
Rp6537
tp6538
a(g6511
g6514
VCelta Vigo
p6539
(lp6540
V1
p6541
aV2
p6542
ag10
(g14
S'\x01\x00\x00\x00'
p6543
tp6544
Rp6545
tp6546
a(g6511
g6514
VSevilla
p6547
(lp6548
V2
p6549
aV1
p6550
ag10
(g14
S'\xff\xff\xff\xff'
p6551
tp6552
Rp6553
tp6554
a(g6511
g6514
VEibar
p6555
(lp6556
V1
p6557
aV1
p6558
ag10
(g14
S'\x01\x00\x00\x00'
p6559
tp6560
Rp6561
tp6562
a(g6511
g6514
VRayo Vallecano
p6563
(lp6564
V2
p6565
aV1
p6566
ag10
(g14
S'\x01\x00\x00\x00'
p6567
tp6568
Rp6569
tp6570
a(g6511
g6514
VReal Madrid
p6571
(lp6572
V1
p6573
aV0
p6574
ag10
(g14
S'\xff\xff\xff\xff'
p6575
tp6576
Rp6577
tp6578
a(g6511
g6514
VValencia
p6579
(lp6580
V1
p6581
aV0
p6582
ag10
(g14
S'\x01\x00\x00\x00'
p6583
tp6584
Rp6585
tp6586
a(g6511
g6514
VSporting Gijon
p6587
(lp6588
V2
p6589
aV0
p6590
ag10
(g14
S'\x01\x00\x00\x00'
p6591
tp6592
Rp6593
tp6594
a(g6511
g6514
VReal Betis
p6595
(lp6596
V0
p6597
aV0
p6598
ag10
(g14
S'\x01\x00\x00\x00'
p6599
tp6600
Rp6601
tp6602
a(g6511
g6514
VGranada
p6603
(lp6604
V1
p6605
aV0
p6606
ag10
(g14
S'\x01\x00\x00\x00'
p6607
tp6608
Rp6609
tp6610
a(g6511
g6514
VMalaga
p6611
(lp6612
V1
p6613
aV0
p6614
ag10
(g14
S'\x01\x00\x00\x00'
p6615
tp6616
Rp6617
tp6618
a(g6511
g6514
VLevante
p6619
(lp6620
V3
p6621
aV0
p6622
ag10
(g14
S'\x01\x00\x00\x00'
p6623
tp6624
Rp6625
tp6626
a(g6511
g6514
VLas Palmas
p6627
(lp6628
V0
p6629
aV1
p6630
ag10
(g14
S'\x01\x00\x00\x00'
p6631
tp6632
Rp6633
tp6634
a(g6511
VValencia
p6635
VDeportivo La Coruna
p6636
(lp6637
V1
p6638
aV1
p6639
ag10
(g14
S'\x01\x00\x00\x00'
p6640
tp6641
Rp6642
tp6643
a(g6511
g6635
VReal Betis
p6644
(lp6645
V0
p6646
aV0
p6647
ag10
(g14
S'\x01\x00\x00\x00'
p6648
tp6649
Rp6650
tp6651
a(g6511
g6635
VGranada
p6652
(lp6653
V1
p6654
aV0
p6655
ag10
(g14
S'\x01\x00\x00\x00'
p6656
tp6657
Rp6658
tp6659
a(g6511
g6635
VMalaga
p6660
(lp6661
V3
p6662
aV0
p6663
ag10
(g14
S'\x01\x00\x00\x00'
p6664
tp6665
Rp6666
tp6667
a(g6511
g6635
VLevante
p6668
(lp6669
V3
p6670
aV0
p6671
ag10
(g14
S'\x01\x00\x00\x00'
p6672
tp6673
Rp6674
tp6675
a(g6511
g6635
VLas Palmas
p6676
(lp6677
V1
p6678
aV1
p6679
ag10
(g14
S'\x01\x00\x00\x00'
p6680
tp6681
Rp6682
tp6683
a(g6511
g6635
VBarcelona
p6684
(lp6685
V1
p6686
aV1
p6687
ag10
(g14
S'\xff\xff\xff\xff'
p6688
tp6689
Rp6690
tp6691
a(g6511
g6635
VGetafe
p6692
(lp6693
V2
p6694
aV2
p6695
ag10
(g14
S'\x01\x00\x00\x00'
p6696
tp6697
Rp6698
tp6699
a(g6511
g6635
VReal Madrid
p6700
(lp6701
V2
p6702
aV2
p6703
ag10
(g14
S'\x00\x00\x00\x00'
p6704
tp6705
Rp6706
tp6707
a(g6511
g6635
VRayo Vallecano
p6708
(lp6709
V2
p6710
aV2
p6711
ag10
(g14
S'\xff\xff\xff\xff'
p6712
tp6713
Rp6714
tp6715
a(g6511
g6635
VSporting Gijon
p6716
(lp6717
V0
p6718
aV1
p6719
ag10
(g14
S'\x01\x00\x00\x00'
p6720
tp6721
Rp6722
tp6723
a(g6511
g6635
VEspanyol
p6724
(lp6725
V2
p6726
aV1
p6727
ag10
(g14
S'\x01\x00\x00\x00'
p6728
tp6729
Rp6730
tp6731
a(g6511
g6635
VAthletic Club
p6732
(lp6733
V0
p6734
aV3
p6735
ag10
(g14
S'\x01\x00\x00\x00'
p6736
tp6737
Rp6738
tp6739
a(g6511
g6635
VAtletico Madrid
p6740
(lp6741
V1
p6742
aV3
p6743
ag10
(g14
S'\xff\xff\xff\xff'
p6744
tp6745
Rp6746
tp6747
a(g6511
VSporting Gijon
p6748
VValencia
p6749
(lp6750
V0
p6751
aV1
p6752
ag10
(g14
S'\xff\xff\xff\xff'
p6753
tp6754
Rp6755
tp6756
a(g6511
g6748
VReal Betis
p6757
(lp6758
V1
p6759
aV2
p6760
ag10
(g14
S'\xff\xff\xff\xff'
p6761
tp6762
Rp6763
tp6764
a(g6511
g6748
VGranada
p6765
(lp6766
V3
p6767
aV3
p6768
ag10
(g14
S'\xff\xff\xff\xff'
p6769
tp6770
Rp6771
tp6772
a(g6511
g6748
VMalaga
p6773
(lp6774
V1
p6775
aV0
p6776
ag10
(g14
S'\x01\x00\x00\x00'
p6777
tp6778
Rp6779
tp6780
a(g6511
g6748
VLevante
p6781
(lp6782
V0
p6783
aV3
p6784
ag10
(g14
S'\x01\x00\x00\x00'
p6785
tp6786
Rp6787
tp6788
a(g6511
g6748
VLas Palmas
p6789
(lp6790
V3
p6791
aV1
p6792
ag10
(g14
S'\xff\xff\xff\xff'
p6793
tp6794
Rp6795
tp6796
a(g6511
g6748
VGetafe
p6797
(lp6798
V1
p6799
aV2
p6800
ag10
(g14
S'\x01\x00\x00\x00'
p6801
tp6802
Rp6803
tp6804
a(g6511
g6748
VReal Sociedad
p6805
(lp6806
V5
p6807
aV1
p6808
ag10
(g14
S'\xff\xff\xff\xff'
p6809
tp6810
Rp6811
tp6812
a(g6511
g6748
VDeportivo La Coruna
p6813
(lp6814
V1
p6815
aV1
p6816
ag10
(g14
S'\x01\x00\x00\x00'
p6817
tp6818
Rp6819
tp6820
a(g6511
g6748
VRayo Vallecano
p6821
(lp6822
V2
p6823
aV2
p6824
ag10
(g14
S'\xff\xff\xff\xff'
p6825
tp6826
Rp6827
tp6828
a(g6511
g6748
VBarcelona
p6829
(lp6830
V1
p6831
aV3
p6832
ag10
(g14
S'\xff\xff\xff\xff'
p6833
tp6834
Rp6835
tp6836
a(g6511
g6748
VEspanyol
p6837
(lp6838
V2
p6839
aV4
p6840
ag10
(g14
S'\xff\xff\xff\xff'
p6841
tp6842
Rp6843
tp6844
a(g6511
g6748
VAthletic Club
p6845
(lp6846
V0
p6847
aV2
p6848
ag10
(g14
S'\xff\xff\xff\xff'
p6849
tp6850
Rp6851
tp6852
a(g6511
VReal Madrid
p6853
VReal Betis
p6854
(lp6855
V5
p6856
aV0
p6857
ag10
(g14
S'\x01\x00\x00\x00'
p6858
tp6859
Rp6860
tp6861
a(g6511
g6853
VGranada
p6862
(lp6863
V1
p6864
aV0
p6865
ag10
(g14
S'\x01\x00\x00\x00'
p6866
tp6867
Rp6868
tp6869
a(g6511
g6853
VMalaga
p6870
(lp6871
V0
p6872
aV0
p6873
ag10
(g14
S'\x01\x00\x00\x00'
p6874
tp6875
Rp6876
tp6877
a(g6511
g6853
VLevante
p6878
(lp6879
V3
p6880
aV0
p6881
ag10
(g14
S'\x01\x00\x00\x00'
p6882
tp6883
Rp6884
tp6885
a(g6511
g6853
VLas Palmas
p6886
(lp6887
V3
p6888
aV1
p6889
ag10
(g14
S'\x01\x00\x00\x00'
p6890
tp6891
Rp6892
tp6893
a(g6511
g6853
VBarcelona
p6894
(lp6895
V0
p6896
aV4
p6897
ag10
(g14
S'\xff\xff\xff\xff'
p6898
tp6899
Rp6900
tp6901
a(g6511
g6853
VGetafe
p6902
(lp6903
V4
p6904
aV1
p6905
ag10
(g14
S'\x01\x00\x00\x00'
p6906
tp6907
Rp6908
tp6909
a(g6511
g6853
VRayo Vallecano
p6910
(lp6911
V10
p6912
aV2
p6913
ag10
(g14
S'\x01\x00\x00\x00'
p6914
tp6915
Rp6916
tp6917
a(g6511
g6853
VReal Sociedad
p6918
(lp6919
V3
p6920
aV1
p6921
ag10
(g14
S'\x01\x00\x00\x00'
p6922
tp6923
Rp6924
tp6925
a(g6511
g6853
VDeportivo La Coruna
p6926
(lp6927
V5
p6928
aV0
p6929
ag10
(g14
S'\x01\x00\x00\x00'
p6930
tp6931
Rp6932
tp6933
a(g6511
g6853
VSporting Gijon
p6934
(lp6935
V5
p6936
aV1
p6937
ag10
(g14
S'\x01\x00\x00\x00'
p6938
tp6939
Rp6940
tp6941
a(g6511
g6853
VEspanyol
p6942
(lp6943
V6
p6944
aV0
p6945
ag10
(g14
S'\x01\x00\x00\x00'
p6946
tp6947
Rp6948
tp6949
a(g6511
g6853
VAthletic Club
p6950
(lp6951
V4
p6952
aV2
p6953
ag10
(g14
S'\x01\x00\x00\x00'
p6954
tp6955
Rp6956
tp6957
a(g6511
g6853
VAtletico Madrid
p6958
(lp6959
V0
p6960
aV1
p6961
ag10
(g14
S'\x01\x00\x00\x00'
p6962
tp6963
Rp6964
tp6965
a(g6511
g6853
VCelta Vigo
p6966
(lp6967
V7
p6968
aV1
p6969
ag10
(g14
S'\x01\x00\x00\x00'
p6970
tp6971
Rp6972
tp6973
a(g6511
VLevante
p6974
VCelta Vigo
p6975
(lp6976
V1
p6977
aV2
p6978
ag10
(g14
S'\xff\xff\xff\xff'
p6979
tp6980
Rp6981
tp6982
a(g6511
g6974
VSevilla
p6983
(lp6984
V1
p6985
aV1
p6986
ag10
(g14
S'\xff\xff\xff\xff'
p6987
tp6988
Rp6989
tp6990
a(g6511
g6974
VEibar
p6991
(lp6992
V2
p6993
aV2
p6994
ag10
(g14
S'\x00\x00\x00\x00'
p6995
tp6996
Rp6997
tp6998
a(g6511
g6974
VVillarreal
p6999
(lp7000
V1
p7001
aV0
p7002
ag10
(g14
S'\xff\xff\xff\xff'
p7003
tp7004
Rp7005
tp7006
a(g6511
g6974
VReal Sociedad
p7007
(lp7008
V0
p7009
aV4
p7010
ag10
(g14
S'\xff\xff\xff\xff'
p7011
tp7012
Rp7013
tp7014
a(g6511
g6974
VDeportivo La Coruna
p7015
(lp7016
V1
p7017
aV1
p7018
ag10
(g14
S'\x01\x00\x00\x00'
p7019
tp7020
Rp7021
tp7022
a(g6511
g6974
VReal Betis
p7023
(lp7024
V0
p7025
aV1
p7026
ag10
(g14
S'\xff\xff\xff\xff'
p7027
tp7028
Rp7029
tp7030
a(g6511
g6974
VGranada
p7031
(lp7032
V1
p7033
aV2
p7034
ag10
(g14
S'\x01\x00\x00\x00'
p7035
tp7036
Rp7037
tp7038
a(g6511
g6974
VMalaga
p7039
(lp7040
V0
p7041
aV1
p7042
ag10
(g14
S'\xff\xff\xff\xff'
p7043
tp7044
Rp7045
tp7046
a(g6511
g6974
VRayo Vallecano
p7047
(lp7048
V2
p7049
aV1
p7050
ag10
(g14
S'\xff\xff\xff\xff'
p7051
tp7052
Rp7053
tp7054
a(g6511
g6974
VLas Palmas
p7055
(lp7056
V3
p7057
aV2
p7058
ag10
(g14
S'\x01\x00\x00\x00'
p7059
tp7060
Rp7061
tp7062
a(g6511
g6974
VBarcelona
p7063
(lp7064
V0
p7065
aV2
p7066
ag10
(g14
S'\xff\xff\xff\xff'
p7067
tp7068
Rp7069
tp7070
a(g6511
g6974
VGetafe
p7071
(lp7072
V3
p7073
aV0
p7074
ag10
(g14
S'\xff\xff\xff\xff'
p7075
tp7076
Rp7077
tp7078
a(g6511
g6974
VReal Madrid
p7079
(lp7080
V1
p7081
aV3
p7082
ag10
(g14
S'\xff\xff\xff\xff'
p7083
tp7084
Rp7085
tp7086
a(g6511
VReal Sociedad
p7087
VSporting Gijon
p7088
(lp7089
V0
p7090
aV0
p7091
ag10
(g14
S'\x01\x00\x00\x00'
p7092
tp7093
Rp7094
tp7095
a(g6511
g7087
VEspanyol
p7096
(lp7097
V2
p7098
aV3
p7099
ag10
(g14
S'\x01\x00\x00\x00'
p7100
tp7101
Rp7102
tp7103
a(g6511
g7087
VAthletic Club
p7104
(lp7105
V0
p7106
aV0
p7107
ag10
(g14
S'\x01\x00\x00\x00'
p7108
tp7109
Rp7110
tp7111
a(g6511
g7087
VAtletico Madrid
p7112
(lp7113
V0
p7114
aV2
p7115
ag10
(g14
S'\x01\x00\x00\x00'
p7116
tp7117
Rp7118
tp7119
a(g6511
g7087
VSevilla
p7120
(lp7121
V2
p7122
aV0
p7123
ag10
(g14
S'\x01\x00\x00\x00'
p7124
tp7125
Rp7126
tp7127
a(g6511
g7087
VEibar
p7128
(lp7129
V2
p7130
aV1
p7131
ag10
(g14
S'\x01\x00\x00\x00'
p7132
tp7133
Rp7134
tp7135
a(g6511
g7087
VVillarreal
p7136
(lp7137
V0
p7138
aV2
p7139
ag10
(g14
S'\x01\x00\x00\x00'
p7140
tp7141
Rp7142
tp7143
a(g6511
g7087
VValencia
p7144
(lp7145
V2
p7146
aV0
p7147
ag10
(g14
S'\x01\x00\x00\x00'
p7148
tp7149
Rp7150
tp7151
a(g6511
g7087
VDeportivo La Coruna
p7152
(lp7153
V1
p7154
aV1
p7155
ag10
(g14
S'\x01\x00\x00\x00'
p7156
tp7157
Rp7158
tp7159
a(g6511
g7087
VReal Betis
p7160
(lp7161
V2
p7162
aV1
p7163
ag10
(g14
S'\x01\x00\x00\x00'
p7164
tp7165
Rp7166
tp7167
a(g6511
g7087
VGranada
p7168
(lp7169
V3
p7170
aV0
p7171
ag10
(g14
S'\x01\x00\x00\x00'
p7172
tp7173
Rp7174
tp7175
a(g6511
g7087
VMalaga
p7176
(lp7177
V1
p7178
aV1
p7179
ag10
(g14
S'\x01\x00\x00\x00'
p7180
tp7181
Rp7182
tp7183
a(g6511
g7087
VLevante
p7184
(lp7185
V1
p7186
aV1
p7187
ag10
(g14
S'\x01\x00\x00\x00'
p7188
tp7189
Rp7190
tp7191
a(g6511
VRayo Vallecano
p7192
VValencia
p7193
(lp7194
V0
p7195
aV0
p7196
ag10
(g14
S'\x01\x00\x00\x00'
p7197
tp7198
Rp7199
tp7200
a(g6511
g7192
VDeportivo La Coruna
p7201
(lp7202
V1
p7203
aV3
p7204
ag10
(g14
S'\x01\x00\x00\x00'
p7205
tp7206
Rp7207
tp7208
a(g6511
g7192
VSporting Gijon
p7209
(lp7210
V2
p7211
aV1
p7212
ag10
(g14
S'\x01\x00\x00\x00'
p7213
tp7214
Rp7215
tp7216
a(g6511
g7192
VReal Betis
p7217
(lp7218
V0
p7219
aV2
p7220
ag10
(g14
S'\x01\x00\x00\x00'
p7221
tp7222
Rp7223
tp7224
a(g6511
g7192
VEspanyol
p7225
(lp7226
V3
p7227
aV0
p7228
ag10
(g14
S'\x01\x00\x00\x00'
p7229
tp7230
Rp7231
tp7232
a(g6511
g7192
VGranada
p7233
(lp7234
V2
p7235
aV1
p7236
ag10
(g14
S'\x01\x00\x00\x00'
p7237
tp7238
Rp7239
tp7240
a(g6511
g7192
VAthletic Club
p7241
(lp7242
V0
p7243
aV3
p7244
ag10
(g14
S'\x01\x00\x00\x00'
p7245
tp7246
Rp7247
tp7248
a(g6511
g7192
VMalaga
p7249
(lp7250
V1
p7251
aV2
p7252
ag10
(g14
S'\x01\x00\x00\x00'
p7253
tp7254
Rp7255
tp7256
a(g6511
g7192
VAtletico Madrid
p7257
(lp7258
V0
p7259
aV2
p7260
ag10
(g14
S'\xff\xff\xff\xff'
p7261
tp7262
Rp7263
tp7264
a(g6511
g7192
VReal Sociedad
p7265
(lp7266
V2
p7267
aV2
p7268
ag10
(g14
S'\x01\x00\x00\x00'
p7269
tp7270
Rp7271
tp7272
a(g6511
g7192
VCelta Vigo
p7273
(lp7274
V3
p7275
aV0
p7276
ag10
(g14
S'\xff\xff\xff\xff'
p7277
tp7278
Rp7279
tp7280
a(g6511
g7192
VLas Palmas
p7281
(lp7282
V2
p7283
aV0
p7284
ag10
(g14
S'\x01\x00\x00\x00'
p7285
tp7286
Rp7287
tp7288
a(g6511
g7192
VSevilla
p7289
(lp7290
V2
p7291
aV2
p7292
ag10
(g14
S'\x01\x00\x00\x00'
p7293
tp7294
Rp7295
tp7296
a(g6511
g7192
VBarcelona
p7297
(lp7298
V1
p7299
aV5
p7300
ag10
(g14
S'\xff\xff\xff\xff'
p7301
tp7302
Rp7303
tp7304
a(g6511
g7192
VEibar
p7305
(lp7306
V1
p7307
aV1
p7308
ag10
(g14
S'\x01\x00\x00\x00'
p7309
tp7310
Rp7311
tp7312
a(g6511
VGetafe
p7313
VGranada
p7314
(lp7315
V1
p7316
aV2
p7317
ag10
(g14
S'\x01\x00\x00\x00'
p7318
tp7319
Rp7320
tp7321
a(g6511
g7313
VMalaga
p7322
(lp7323
V1
p7324
aV0
p7325
ag10
(g14
S'\x01\x00\x00\x00'
p7326
tp7327
Rp7328
tp7329
a(g6511
g7313
VLevante
p7330
(lp7331
V3
p7332
aV0
p7333
ag10
(g14
S'\x01\x00\x00\x00'
p7334
tp7335
Rp7336
tp7337
a(g6511
g7313
VLas Palmas
p7338
(lp7339
V4
p7340
aV0
p7341
ag10
(g14
S'\x01\x00\x00\x00'
p7342
tp7343
Rp7344
tp7345
a(g6511
g7313
VBarcelona
p7346
(lp7347
V0
p7348
aV2
p7349
ag10
(g14
S'\xff\xff\xff\xff'
p7350
tp7351
Rp7352
tp7353
a(g6511
g7313
VRayo Vallecano
p7354
(lp7355
V1
p7356
aV1
p7357
ag10
(g14
S'\xff\xff\xff\xff'
p7358
tp7359
Rp7360
tp7361
a(g6511
g7313
VVillarreal
p7362
(lp7363
V2
p7364
aV0
p7365
ag10
(g14
S'\x01\x00\x00\x00'
p7366
tp7367
Rp7368
tp7369
a(g6511
g7313
VReal Sociedad
p7370
(lp7371
V1
p7372
aV1
p7373
ag10
(g14
S'\xff\xff\xff\xff'
p7374
tp7375
Rp7376
tp7377
a(g6511
g7313
VDeportivo La Coruna
p7378
(lp7379
V0
p7380
aV0
p7381
ag10
(g14
S'\xff\xff\xff\xff'
p7382
tp7383
Rp7384
tp7385
a(g6511
g7313
VReal Betis
p7386
(lp7387
V1
p7388
aV0
p7389
ag10
(g14
S'\x01\x00\x00\x00'
p7390
tp7391
Rp7392
tp7393
a(g6511
g7313
VEspanyol
p7394
(lp7395
V3
p7396
aV1
p7397
ag10
(g14
S'\x01\x00\x00\x00'
p7398
tp7399
Rp7400
tp7401
a(g6511
g7313
VAthletic Club
p7402
(lp7403
V0
p7404
aV1
p7405
ag10
(g14
S'\x01\x00\x00\x00'
p7406
tp7407
Rp7408
tp7409
a(g6511
g7313
VAtletico Madrid
p7410
(lp7411
V0
p7412
aV1
p7413
ag10
(g14
S'\xff\xff\xff\xff'
p7414
tp7415
Rp7416
tp7417
a(g6511
g7313
VCelta Vigo
p7418
(lp7419
V0
p7420
aV1
p7421
ag10
(g14
S'\xff\xff\xff\xff'
p7422
tp7423
Rp7424
tp7425
a(g6511
g7313
VSevilla
p7426
(lp7427
V1
p7428
aV1
p7429
ag10
(g14
S'\x00\x00\x00\x00'
p7430
tp7431
Rp7432
tp7433
a(g6511
VMalaga
p7434
VSevilla
p7435
(lp7436
V0
p7437
aV0
p7438
ag10
(g14
S'\x01\x00\x00\x00'
p7439
tp7440
Rp7441
tp7442
a(g6511
g7434
VEibar
p7443
(lp7444
V0
p7445
aV0
p7446
ag10
(g14
S'\xff\xff\xff\xff'
p7447
tp7448
Rp7449
tp7450
a(g6511
g7434
VVillarreal
p7451
(lp7452
V0
p7453
aV1
p7454
ag10
(g14
S'\x01\x00\x00\x00'
p7455
tp7456
Rp7457
tp7458
a(g6511
g7434
VReal Sociedad
p7459
(lp7460
V3
p7461
aV1
p7462
ag10
(g14
S'\xff\xff\xff\xff'
p7463
tp7464
Rp7465
tp7466
a(g6511
g7434
VDeportivo La Coruna
p7467
(lp7468
V2
p7469
aV0
p7470
ag10
(g14
S'\x01\x00\x00\x00'
p7471
tp7472
Rp7473
tp7474
a(g6511
g7434
VReal Betis
p7475
(lp7476
V0
p7477
aV1
p7478
ag10
(g14
S'\x01\x00\x00\x00'
p7479
tp7480
Rp7481
tp7482
a(g6511
g7434
VGranada
p7483
(lp7484
V2
p7485
aV2
p7486
ag10
(g14
S'\x01\x00\x00\x00'
p7487
tp7488
Rp7489
tp7490
a(g6511
g7434
VAtletico Madrid
p7491
(lp7492
V1
p7493
aV0
p7494
ag10
(g14
S'\xff\xff\xff\xff'
p7495
tp7496
Rp7497
tp7498
a(g6511
g7434
VCelta Vigo
p7499
(lp7500
V2
p7501
aV0
p7502
ag10
(g14
S'\xff\xff\xff\xff'
p7503
tp7504
Rp7505
tp7506
a(g6511
g7434
VBarcelona
p7507
(lp7508
V1
p7509
aV2
p7510
ag10
(g14
S'\xff\xff\xff\xff'
p7511
tp7512
Rp7513
tp7514
a(g6511
g7434
VGetafe
p7515
(lp7516
V3
p7517
aV0
p7518
ag10
(g14
S'\x01\x00\x00\x00'
p7519
tp7520
Rp7521
tp7522
a(g6511
g7434
VReal Madrid
p7523
(lp7524
V1
p7525
aV1
p7526
ag10
(g14
S'\xff\xff\xff\xff'
p7527
tp7528
Rp7529
tp7530
a(g6511
g7434
VValencia
p7531
(lp7532
V1
p7533
aV2
p7534
ag10
(g14
S'\x01\x00\x00\x00'
p7535
tp7536
Rp7537
tp7538
a(g6511
g7434
VSporting Gijon
p7539
(lp7540
V1
p7541
aV0
p7542
ag10
(g14
S'\x01\x00\x00\x00'
p7543
tp7544
Rp7545
tp7546
a(g6511
VLas Palmas
p7547
VLevante
p7548
(lp7549
V0
p7550
aV0
p7551
ag10
(g14
S'\x00\x00\x00\x00'
p7552
tp7553
Rp7554
tp7555
a(g6511
g7547
VRayo Vallecano
p7556
(lp7557
V0
p7558
aV1
p7559
ag10
(g14
S'\x01\x00\x00\x00'
p7560
tp7561
Rp7562
tp7563
a(g6511
g7547
VSevilla
p7564
(lp7565
V2
p7566
aV0
p7567
ag10
(g14
S'\xff\xff\xff\xff'
p7568
tp7569
Rp7570
tp7571
a(g6511
g7547
VEibar
p7572
(lp7573
V0
p7574
aV2
p7575
ag10
(g14
S'\x01\x00\x00\x00'
p7576
tp7577
Rp7578
tp7579
a(g6511
g7547
VVillarreal
p7580
(lp7581
V0
p7582
aV0
p7583
ag10
(g14
S'\xff\xff\xff\xff'
p7584
tp7585
Rp7586
tp7587
a(g6511
g7547
VReal Sociedad
p7588
(lp7589
V2
p7590
aV0
p7591
ag10
(g14
S'\x01\x00\x00\x00'
p7592
tp7593
Rp7594
tp7595
a(g6511
g7547
VDeportivo La Coruna
p7596
(lp7597
V0
p7598
aV2
p7599
ag10
(g14
S'\x01\x00\x00\x00'
p7600
tp7601
Rp7602
tp7603
a(g6511
g7547
VReal Betis
p7604
(lp7605
V1
p7606
aV0
p7607
ag10
(g14
S'\x01\x00\x00\x00'
p7608
tp7609
Rp7610
tp7611
a(g6511
g7547
VGranada
p7612
(lp7613
V4
p7614
aV1
p7615
ag10
(g14
S'\x01\x00\x00\x00'
p7616
tp7617
Rp7618
tp7619
a(g6511
g7547
VMalaga
p7620
(lp7621
V1
p7622
aV1
p7623
ag10
(g14
S'\x01\x00\x00\x00'
p7624
tp7625
Rp7626
tp7627
a(g6511
g7547
VAtletico Madrid
p7628
(lp7629
V0
p7630
aV3
p7631
ag10
(g14
S'\xff\xff\xff\xff'
p7632
tp7633
Rp7634
tp7635
a(g6511
g7547
VCelta Vigo
p7636
(lp7637
V2
p7638
aV1
p7639
ag10
(g14
S'\xff\xff\xff\xff'
p7640
tp7641
Rp7642
tp7643
a(g6511
g7547
VBarcelona
p7644
(lp7645
V1
p7646
aV2
p7647
ag10
(g14
S'\xff\xff\xff\xff'
p7648
tp7649
Rp7650
tp7651
a(g6511
g7547
VGetafe
p7652
(lp7653
V4
p7654
aV0
p7655
ag10
(g14
S'\x01\x00\x00\x00'
p7656
tp7657
Rp7658
tp7659
a(g6511
VBarcelona
p7660
VMalaga
p7661
(lp7662
V1
p7663
aV0
p7664
ag10
(g14
S'\x01\x00\x00\x00'
p7665
tp7666
Rp7667
tp7668
a(g6511
g7660
VLevante
p7669
(lp7670
V4
p7671
aV1
p7672
ag10
(g14
S'\x01\x00\x00\x00'
p7673
tp7674
Rp7675
tp7676
a(g6511
g7660
VLas Palmas
p7677
(lp7678
V2
p7679
aV1
p7680
ag10
(g14
S'\x01\x00\x00\x00'
p7681
tp7682
Rp7683
tp7684
a(g6511
g7660
VRayo Vallecano
p7685
(lp7686
V5
p7687
aV2
p7688
ag10
(g14
S'\x01\x00\x00\x00'
p7689
tp7690
Rp7691
tp7692
a(g6511
g7660
VEibar
p7693
(lp7694
V3
p7695
aV1
p7696
ag10
(g14
S'\x01\x00\x00\x00'
p7697
tp7698
Rp7699
tp7700
a(g6511
g7660
VVillarreal
p7701
(lp7702
V3
p7703
aV0
p7704
ag10
(g14
S'\x01\x00\x00\x00'
p7705
tp7706
Rp7707
tp7708
a(g6511
g7660
VReal Sociedad
p7709
(lp7710
V4
p7711
aV0
p7712
ag10
(g14
S'\x01\x00\x00\x00'
p7713
tp7714
Rp7715
tp7716
a(g6511
g7660
VDeportivo La Coruna
p7717
(lp7718
V2
p7719
aV2
p7720
ag10
(g14
S'\x01\x00\x00\x00'
p7721
tp7722
Rp7723
tp7724
a(g6511
g7660
VReal Betis
p7725
(lp7726
V4
p7727
aV0
p7728
ag10
(g14
S'\x01\x00\x00\x00'
p7729
tp7730
Rp7731
tp7732
a(g6511
g7660
VGranada
p7733
(lp7734
V4
p7735
aV0
p7736
ag10
(g14
S'\x01\x00\x00\x00'
p7737
tp7738
Rp7739
tp7740
a(g6511
g7660
VAthletic Club
p7741
(lp7742
V6
p7743
aV0
p7744
ag10
(g14
S'\x01\x00\x00\x00'
p7745
tp7746
Rp7747
tp7748
a(g6511
g7660
VAtletico Madrid
p7749
(lp7750
V2
p7751
aV1
p7752
ag10
(g14
S'\x01\x00\x00\x00'
p7753
tp7754
Rp7755
tp7756
a(g6511
g7660
VCelta Vigo
p7757
(lp7758
V6
p7759
aV1
p7760
ag10
(g14
S'\x01\x00\x00\x00'
p7761
tp7762
Rp7763
tp7764
a(g6511
g7660
VSevilla
p7765
(lp7766
V2
p7767
aV1
p7768
ag10
(g14
S'\x01\x00\x00\x00'
p7769
tp7770
Rp7771
tp7772
a(g6511
g7660
VGetafe
p7773
(lp7774
V6
p7775
aV0
p7776
ag10
(g14
S'\x01\x00\x00\x00'
p7777
tp7778
Rp7779
tp7780
a(g6511
VGranada
p7781
VEibar
p7782
(lp7783
V1
p7784
aV3
p7785
ag10
(g14
S'\x01\x00\x00\x00'
p7786
tp7787
Rp7788
tp7789
a(g6511
g7781
VVillarreal
p7790
(lp7791
V1
p7792
aV3
p7793
ag10
(g14
S'\x01\x00\x00\x00'
p7794
tp7795
Rp7796
tp7797
a(g6511
g7781
VReal Sociedad
p7798
(lp7799
V0
p7800
aV3
p7801
ag10
(g14
S'\xff\xff\xff\xff'
p7802
tp7803
Rp7804
tp7805
a(g6511
g7781
VDeportivo La Coruna
p7806
(lp7807
V1
p7808
aV1
p7809
ag10
(g14
S'\x01\x00\x00\x00'
p7810
tp7811
Rp7812
tp7813
a(g6511
g7781
VReal Betis
p7814
(lp7815
V1
p7816
aV1
p7817
ag10
(g14
S'\x01\x00\x00\x00'
p7818
tp7819
Rp7820
tp7821
a(g6511
g7781
VAthletic Club
p7822
(lp7823
V2
p7824
aV0
p7825
ag10
(g14
S'\xff\xff\xff\xff'
p7826
tp7827
Rp7828
tp7829
a(g6511
g7781
VAtletico Madrid
p7830
(lp7831
V0
p7832
aV2
p7833
ag10
(g14
S'\xff\xff\xff\xff'
p7834
tp7835
Rp7836
tp7837
a(g6511
g7781
VCelta Vigo
p7838
(lp7839
V0
p7840
aV2
p7841
ag10
(g14
S'\xff\xff\xff\xff'
p7842
tp7843
Rp7844
tp7845
a(g6511
g7781
VSevilla
p7846
(lp7847
V2
p7848
aV1
p7849
ag10
(g14
S'\x00\x00\x00\x00'
p7850
tp7851
Rp7852
tp7853
a(g6511
g7781
VGetafe
p7854
(lp7855
V3
p7856
aV2
p7857
ag10
(g14
S'\xff\xff\xff\xff'
p7858
tp7859
Rp7860
tp7861
a(g6511
g7781
VReal Madrid
p7862
(lp7863
V1
p7864
aV2
p7865
ag10
(g14
S'\xff\xff\xff\xff'
p7866
tp7867
Rp7868
tp7869
a(g6511
g7781
VValencia
p7870
(lp7871
V1
p7872
aV2
p7873
ag10
(g14
S'\xff\xff\xff\xff'
p7874
tp7875
Rp7876
tp7877
a(g6511
g7781
VSporting Gijon
p7878
(lp7879
V2
p7880
aV0
p7881
ag10
(g14
S'\x01\x00\x00\x00'
p7882
tp7883
Rp7884
tp7885
a(g6511
VDeportivo La Coruna
p7886
VReal Sociedad
p7887
(lp7888
V0
p7889
aV0
p7890
ag10
(g14
S'\x01\x00\x00\x00'
p7891
tp7892
Rp7893
tp7894
a(g6511
g7886
VSporting Gijon
p7895
(lp7896
V2
p7897
aV3
p7898
ag10
(g14
S'\x01\x00\x00\x00'
p7899
tp7900
Rp7901
tp7902
a(g6511
g7886
VEspanyol
p7903
(lp7904
V3
p7905
aV0
p7906
ag10
(g14
S'\x01\x00\x00\x00'
p7907
tp7908
Rp7909
tp7910
a(g6511
g7886
VAthletic Club
p7911
(lp7912
V2
p7913
aV2
p7914
ag10
(g14
S'\x01\x00\x00\x00'
p7915
tp7916
Rp7917
tp7918
a(g6511
g7886
VAtletico Madrid
p7919
(lp7920
V1
p7921
aV1
p7922
ag10
(g14
S'\xff\xff\xff\xff'
p7923
tp7924
Rp7925
tp7926
a(g6511
g7886
VCelta Vigo
p7927
(lp7928
V2
p7929
aV0
p7930
ag10
(g14
S'\xff\xff\xff\xff'
p7931
tp7932
Rp7933
tp7934
a(g6511
g7886
VSevilla
p7935
(lp7936
V1
p7937
aV1
p7938
ag10
(g14
S'\x01\x00\x00\x00'
p7939
tp7940
Rp7941
tp7942
a(g6511
g7886
VEibar
p7943
(lp7944
V2
p7945
aV0
p7946
ag10
(g14
S'\x01\x00\x00\x00'
p7947
tp7948
Rp7949
tp7950
a(g6511
g7886
VVillarreal
p7951
(lp7952
V1
p7953
aV2
p7954
ag10
(g14
S'\x01\x00\x00\x00'
p7955
tp7956
Rp7957
tp7958
a(g6511
g7886
VValencia
p7959
(lp7960
V1
p7961
aV1
p7962
ag10
(g14
S'\x01\x00\x00\x00'
p7963
tp7964
Rp7965
tp7966
a(g6511
g7886
VRayo Vallecano
p7967
(lp7968
V2
p7969
aV2
p7970
ag10
(g14
S'\x01\x00\x00\x00'
p7971
tp7972
Rp7973
tp7974
a(g6511
g7886
VReal Betis
p7975
(lp7976
V2
p7977
aV2
p7978
ag10
(g14
S'\x01\x00\x00\x00'
p7979
tp7980
Rp7981
tp7982
a(g6511
g7886
VGranada
p7983
(lp7984
V0
p7985
aV1
p7986
ag10
(g14
S'\x01\x00\x00\x00'
p7987
tp7988
Rp7989
tp7990
a(g6511
g7886
VMalaga
p7991
(lp7992
V3
p7993
aV3
p7994
ag10
(g14
S'\x01\x00\x00\x00'
p7995
tp7996
Rp7997
tp7998
a(g6511
VEibar
p7999
VAthletic Club
p8000
(lp8001
V2
p8002
aV0
p8003
ag10
(g14
S'\x01\x00\x00\x00'
p8004
tp8005
Rp8006
tp8007
a(g6511
g7999
VAtletico Madrid
p8008
(lp8009
V0
p8010
aV2
p8011
ag10
(g14
S'\x01\x00\x00\x00'
p8012
tp8013
Rp8014
tp8015
a(g6511
g7999
VCelta Vigo
p8016
(lp8017
V1
p8018
aV1
p8019
ag10
(g14
S'\xff\xff\xff\xff'
p8020
tp8021
Rp8022
tp8023
a(g6511
g7999
VSevilla
p8024
(lp8025
V1
p8026
aV1
p8027
ag10
(g14
S'\x00\x00\x00\x00'
p8028
tp8029
Rp8030
tp8031
a(g6511
g7999
VRayo Vallecano
p8032
(lp8033
V1
p8034
aV0
p8035
ag10
(g14
S'\xff\xff\xff\xff'
p8036
tp8037
Rp8038
tp8039
a(g6511
g7999
VReal Madrid
p8040
(lp8041
V0
p8042
aV2
p8043
ag10
(g14
S'\xff\xff\xff\xff'
p8044
tp8045
Rp8046
tp8047
a(g6511
g7999
VValencia
p8048
(lp8049
V1
p8050
aV1
p8051
ag10
(g14
S'\x01\x00\x00\x00'
p8052
tp8053
Rp8054
tp8055
a(g6511
g7999
VSporting Gijon
p8056
(lp8057
V2
p8058
aV0
p8059
ag10
(g14
S'\x01\x00\x00\x00'
p8060
tp8061
Rp8062
tp8063
a(g6511
g7999
VEspanyol
p8064
(lp8065
V2
p8066
aV1
p8067
ag10
(g14
S'\x01\x00\x00\x00'
p8068
tp8069
Rp8070
tp8071
a(g6511
g7999
VGranada
p8072
(lp8073
V5
p8074
aV1
p8075
ag10
(g14
S'\x01\x00\x00\x00'
p8076
tp8077
Rp8078
tp8079
a(g6511
g7999
VMalaga
p8080
(lp8081
V1
p8082
aV2
p8083
ag10
(g14
S'\x01\x00\x00\x00'
p8084
tp8085
Rp8086
tp8087
a(g6511
g7999
VLevante
p8088
(lp8089
V2
p8090
aV0
p8091
ag10
(g14
S'\x01\x00\x00\x00'
p8092
tp8093
Rp8094
tp8095
a(g6511
g7999
VLas Palmas
p8096
(lp8097
V0
p8098
aV1
p8099
ag10
(g14
S'\x01\x00\x00\x00'
p8100
tp8101
Rp8102
tp8103
a(g6511
g7999
VBarcelona
p8104
(lp8105
V0
p8106
aV4
p8107
ag10
(g14
S'\xff\xff\xff\xff'
p8108
tp8109
Rp8110
tp8111
a(g6511
VCelta Vigo
p8112
VRayo Vallecano
p8113
(lp8114
V3
p8115
aV0
p8116
ag10
(g14
S'\x01\x00\x00\x00'
p8117
tp8118
Rp8119
tp8120
a(g6511
g8112
VLas Palmas
p8121
(lp8122
V3
p8123
aV3
p8124
ag10
(g14
S'\x01\x00\x00\x00'
p8125
tp8126
Rp8127
tp8128
a(g6511
g8112
VBarcelona
p8129
(lp8130
V4
p8131
aV1
p8132
ag10
(g14
S'\xff\xff\xff\xff'
p8133
tp8134
Rp8135
tp8136
a(g6511
g8112
VGetafe
p8137
(lp8138
V0
p8139
aV0
p8140
ag10
(g14
S'\x01\x00\x00\x00'
p8141
tp8142
Rp8143
tp8144
a(g6511
g8112
VReal Madrid
p8145
(lp8146
V1
p8147
aV3
p8148
ag10
(g14
S'\x01\x00\x00\x00'
p8149
tp8150
Rp8151
tp8152
a(g6511
g8112
VValencia
p8153
(lp8154
V1
p8155
aV5
p8156
ag10
(g14
S'\x01\x00\x00\x00'
p8157
tp8158
Rp8159
tp8160
a(g6511
g8112
VSporting Gijon
p8161
(lp8162
V2
p8163
aV1
p8164
ag10
(g14
S'\x01\x00\x00\x00'
p8165
tp8166
Rp8167
tp8168
a(g6511
g8112
VEspanyol
p8169
(lp8170
V1
p8171
aV0
p8172
ag10
(g14
S'\x01\x00\x00\x00'
p8173
tp8174
Rp8175
tp8176
a(g6511
g8112
VAthletic Club
p8177
(lp8178
V0
p8179
aV1
p8180
ag10
(g14
S'\x01\x00\x00\x00'
p8181
tp8182
Rp8183
tp8184
a(g6511
g8112
VAtletico Madrid
p8185
(lp8186
V0
p8187
aV2
p8188
ag10
(g14
S'\x01\x00\x00\x00'
p8189
tp8190
Rp8191
tp8192
a(g6511
g8112
VLevante
p8193
(lp8194
V4
p8195
aV3
p8196
ag10
(g14
S'\x01\x00\x00\x00'
p8197
tp8198
Rp8199
tp8200
a(g6511
g8112
VSevilla
p8201
(lp8202
V1
p8203
aV1
p8204
ag10
(g14
S'\x01\x00\x00\x00'
p8205
tp8206
Rp8207
tp8208
a(g6511
g8112
VEibar
p8209
(lp8210
V3
p8211
aV2
p8212
ag10
(g14
S'\x01\x00\x00\x00'
p8213
tp8214
Rp8215
tp8216
a(g6511
g8112
VVillarreal
p8217
(lp8218
V0
p8219
aV0
p8220
ag10
(g14
S'\x01\x00\x00\x00'
p8221
tp8222
Rp8223
tp8224
a(g6511
g8112
VReal Sociedad
p8225
(lp8226
V1
p8227
aV0
p8228
ag10
(g14
S'\x01\x00\x00\x00'
p8229
tp8230
Rp8231
tp8232
a(g6511
VSevilla
p8233
VAtletico Madrid
p8234
(lp8235
V0
p8236
aV3
p8237
ag10
(g14
S'\x01\x00\x00\x00'
p8238
tp8239
Rp8240
tp8241
a(g6511
g8233
VRayo Vallecano
p8242
(lp8243
V3
p8244
aV2
p8245
ag10
(g14
S'\x01\x00\x00\x00'
p8246
tp8247
Rp8248
tp8249
a(g6511
g8233
VBarcelona
p8250
(lp8251
V2
p8252
aV1
p8253
ag10
(g14
S'\xff\xff\xff\xff'
p8254
tp8255
Rp8256
tp8257
a(g6511
g8233
VGetafe
p8258
(lp8259
V5
p8260
aV0
p8261
ag10
(g14
S'\x01\x00\x00\x00'
p8262
tp8263
Rp8264
tp8265
a(g6511
g8233
VReal Madrid
p8266
(lp8267
V3
p8268
aV2
p8269
ag10
(g14
S'\xff\xff\xff\xff'
p8270
tp8271
Rp8272
tp8273
a(g6511
g8233
VValencia
p8274
(lp8275
V1
p8276
aV0
p8277
ag10
(g14
S'\x01\x00\x00\x00'
p8278
tp8279
Rp8280
tp8281
a(g6511
g8233
VSporting Gijon
p8282
(lp8283
V2
p8284
aV0
p8285
ag10
(g14
S'\x01\x00\x00\x00'
p8286
tp8287
Rp8288
tp8289
a(g6511
g8233
VEspanyol
p8290
(lp8291
V2
p8292
aV0
p8293
ag10
(g14
S'\x01\x00\x00\x00'
p8294
tp8295
Rp8296
tp8297
a(g6511
g8233
VAthletic Club
p8298
(lp8299
V2
p8300
aV0
p8301
ag10
(g14
S'\x01\x00\x00\x00'
p8302
tp8303
Rp8304
tp8305
a(g6511
g8233
VMalaga
p8306
(lp8307
V2
p8308
aV1
p8309
ag10
(g14
S'\x01\x00\x00\x00'
p8310
tp8311
Rp8312
tp8313
a(g6511
g8233
VLevante
p8314
(lp8315
V3
p8316
aV1
p8317
ag10
(g14
S'\x01\x00\x00\x00'
p8318
tp8319
Rp8320
tp8321
a(g6511
g8233
VLas Palmas
p8322
(lp8323
V2
p8324
aV0
p8325
ag10
(g14
S'\x01\x00\x00\x00'
p8326
tp8327
Rp8328
tp8329
a(g6511
g8233
VEibar
p8330
(lp8331
V1
p8332
aV0
p8333
ag10
(g14
S'\x01\x00\x00\x00'
p8334
tp8335
Rp8336
tp8337
a(g6511
VAtletico Madrid
p8338
VBarcelona
p8339
(lp8340
V1
p8341
aV2
p8342
ag10
(g14
S'\xff\xff\xff\xff'
p8343
tp8344
Rp8345
tp8346
a(g6511
g8338
VGetafe
p8347
(lp8348
V2
p8349
aV0
p8350
ag10
(g14
S'\x01\x00\x00\x00'
p8351
tp8352
Rp8353
tp8354
a(g6511
g8338
VReal Madrid
p8355
(lp8356
V1
p8357
aV1
p8358
ag10
(g14
S'\xff\xff\xff\xff'
p8359
tp8360
Rp8361
tp8362
a(g6511
g8338
VValencia
p8363
(lp8364
V2
p8365
aV1
p8366
ag10
(g14
S'\x01\x00\x00\x00'
p8367
tp8368
Rp8369
tp8370
a(g6511
g8338
VSporting Gijon
p8371
(lp8372
V1
p8373
aV0
p8374
ag10
(g14
S'\x01\x00\x00\x00'
p8375
tp8376
Rp8377
tp8378
a(g6511
g8338
VEspanyol
p8379
(lp8380
V1
p8381
aV0
p8382
ag10
(g14
S'\x01\x00\x00\x00'
p8383
tp8384
Rp8385
tp8386
a(g6511
g8338
VAthletic Club
p8387
(lp8388
V2
p8389
aV1
p8390
ag10
(g14
S'\x01\x00\x00\x00'
p8391
tp8392
Rp8393
tp8394
a(g6511
g8338
VLevante
p8395
(lp8396
V1
p8397
aV0
p8398
ag10
(g14
S'\x01\x00\x00\x00'
p8399
tp8400
Rp8401
tp8402
a(g6511
g8338
VSevilla
p8403
(lp8404
V0
p8405
aV0
p8406
ag10
(g14
S'\x01\x00\x00\x00'
p8407
tp8408
Rp8409
tp8410
a(g6511
g8338
VEibar
p8411
(lp8412
V3
p8413
aV1
p8414
ag10
(g14
S'\x01\x00\x00\x00'
p8415
tp8416
Rp8417
tp8418
a(g6511
g8338
VVillarreal
p8419
(lp8420
V0
p8421
aV0
p8422
ag10
(g14
S'\x01\x00\x00\x00'
p8423
tp8424
Rp8425
tp8426
a(g6511
g8338
VReal Sociedad
p8427
(lp8428
V3
p8429
aV0
p8430
ag10
(g14
S'\x01\x00\x00\x00'
p8431
tp8432
Rp8433
tp8434
a(g6511
g8338
VDeportivo La Coruna
p8435
(lp8436
V3
p8437
aV0
p8438
ag10
(g14
S'\x01\x00\x00\x00'
p8439
tp8440
Rp8441
tp8442
a(g6511
VReal Betis
p8443
VReal Sociedad
p8444
(lp8445
V1
p8446
aV0
p8447
ag10
(g14
S'\x01\x00\x00\x00'
p8448
tp8449
Rp8450
tp8451
a(g6511
g8443
VDeportivo La Coruna
p8452
(lp8453
V1
p8454
aV2
p8455
ag10
(g14
S'\x01\x00\x00\x00'
p8456
tp8457
Rp8458
tp8459
a(g6511
g8443
VEspanyol
p8460
(lp8461
V1
p8462
aV3
p8463
ag10
(g14
S'\x01\x00\x00\x00'
p8464
tp8465
Rp8466
tp8467
a(g6511
g8443
VAtletico Madrid
p8468
(lp8469
V0
p8470
aV1
p8471
ag10
(g14
S'\x01\x00\x00\x00'
p8472
tp8473
Rp8474
tp8475
a(g6511
g8443
VCelta Vigo
p8476
(lp8477
V1
p8478
aV1
p8479
ag10
(g14
S'\x01\x00\x00\x00'
p8480
tp8481
Rp8482
tp8483
a(g6511
g8443
VSevilla
p8484
(lp8485
V0
p8486
aV0
p8487
ag10
(g14
S'\xff\xff\xff\xff'
p8488
tp8489
Rp8490
tp8491
a(g6511
g8443
VEibar
p8492
(lp8493
V0
p8494
aV4
p8495
ag10
(g14
S'\x01\x00\x00\x00'
p8496
tp8497
Rp8498
tp8499
a(g6511
g8443
VReal Madrid
p8500
(lp8501
V1
p8502
aV1
p8503
ag10
(g14
S'\xff\xff\xff\xff'
p8504
tp8505
Rp8506
tp8507
a(g6511
g8443
VValencia
p8508
(lp8509
V1
p8510
aV0
p8511
ag10
(g14
S'\x01\x00\x00\x00'
p8512
tp8513
Rp8514
tp8515
a(g6511
g8443
VSporting Gijon
p8516
(lp8517
V1
p8518
aV1
p8519
ag10
(g14
S'\x01\x00\x00\x00'
p8520
tp8521
Rp8522
tp8523
a(g6511
g8443
VRayo Vallecano
p8524
(lp8525
V2
p8526
aV2
p8527
ag10
(g14
S'\xff\xff\xff\xff'
p8528
tp8529
Rp8530
tp8531
a(g6511
g8443
VGranada
p8532
(lp8533
V2
p8534
aV0
p8535
ag10
(g14
S'\x01\x00\x00\x00'
p8536
tp8537
Rp8538
tp8539
a(g6511
VAthletic Club
p8540
VBarcelona
p8541
(lp8542
V0
p8543
aV1
p8544
ag10
(g14
S'\xff\xff\xff\xff'
p8545
tp8546
Rp8547
tp8548
a(g6511
g8540
VGetafe
p8549
(lp8550
V3
p8551
aV1
p8552
ag10
(g14
S'\x01\x00\x00\x00'
p8553
tp8554
Rp8555
tp8556
a(g6511
g8540
VReal Madrid
p8557
(lp8558
V1
p8559
aV2
p8560
ag10
(g14
S'\x00\x00\x00\x00'
p8561
tp8562
Rp8563
tp8564
a(g6511
g8540
VValencia
p8565
(lp8566
V3
p8567
aV1
p8568
ag10
(g14
S'\xff\xff\xff\xff'
p8569
tp8570
Rp8571
tp8572
a(g6511
g8540
VSporting Gijon
p8573
(lp8574
V3
p8575
aV0
p8576
ag10
(g14
S'\x01\x00\x00\x00'
p8577
tp8578
Rp8579
tp8580
a(g6511
g8540
VEspanyol
p8581
(lp8582
V2
p8583
aV1
p8584
ag10
(g14
S'\x01\x00\x00\x00'
p8585
tp8586
Rp8587
tp8588
a(g6511
g8540
VMalaga
p8589
(lp8590
V0
p8591
aV0
p8592
ag10
(g14
S'\x01\x00\x00\x00'
p8593
tp8594
Rp8595
tp8596
a(g6511
g8540
VLevante
p8597
(lp8598
V2
p8599
aV0
p8600
ag10
(g14
S'\x01\x00\x00\x00'
p8601
tp8602
Rp8603
tp8604
a(g6511
g8540
VLas Palmas
p8605
(lp8606
V2
p8607
aV2
p8608
ag10
(g14
S'\x01\x00\x00\x00'
p8609
tp8610
Rp8611
tp8612
a(g6511
g8540
VEibar
p8613
(lp8614
V5
p8615
aV2
p8616
ag10
(g14
S'\x01\x00\x00\x00'
p8617
tp8618
Rp8619
tp8620
a(g6511
g8540
VVillarreal
p8621
(lp8622
V0
p8623
aV0
p8624
ag10
(g14
S'\xff\xff\xff\xff'
p8625
tp8626
Rp8627
tp8628
a(g6511
g8540
VReal Sociedad
p8629
(lp8630
V0
p8631
aV1
p8632
ag10
(g14
S'\xff\xff\xff\xff'
p8633
tp8634
Rp8635
tp8636
a(g6511
g8540
VDeportivo La Coruna
p8637
(lp8638
V4
p8639
aV1
p8640
ag10
(g14
S'\x01\x00\x00\x00'
p8641
tp8642
Rp8643
tp8644
a(g6511
VEspanyol
p8645
VGetafe
p8646
(lp8647
V1
p8648
aV0
p8649
ag10
(g14
S'\x01\x00\x00\x00'
p8650
tp8651
Rp8652
tp8653
a(g6511
g8645
VReal Madrid
p8654
(lp8655
V0
p8656
aV6
p8657
ag10
(g14
S'\xff\xff\xff\xff'
p8658
tp8659
Rp8660
tp8661
a(g6511
g8645
VValencia
p8662
(lp8663
V1
p8664
aV0
p8665
ag10
(g14
S'\xff\xff\xff\xff'
p8666
tp8667
Rp8668
tp8669
a(g6511
g8645
VSporting Gijon
p8670
(lp8671
V1
p8672
aV2
p8673
ag10
(g14
S'\x01\x00\x00\x00'
p8674
tp8675
Rp8676
tp8677
a(g6511
g8645
VGranada
p8678
(lp8679
V1
p8680
aV1
p8681
ag10
(g14
S'\x01\x00\x00\x00'
p8682
tp8683
Rp8684
tp8685
a(g6511
g8645
VMalaga
p8686
(lp8687
V2
p8688
aV0
p8689
ag10
(g14
S'\x01\x00\x00\x00'
p8690
tp8691
Rp8692
tp8693
a(g6511
g8645
VLevante
p8694
(lp8695
V1
p8696
aV1
p8697
ag10
(g14
S'\x01\x00\x00\x00'
p8698
tp8699
Rp8700
tp8701
a(g6511
g8645
VLas Palmas
p8702
(lp8703
V1
p8704
aV0
p8705
ag10
(g14
S'\x01\x00\x00\x00'
p8706
tp8707
Rp8708
tp8709
a(g6511
g8645
VBarcelona
p8710
(lp8711
V0
p8712
aV0
p8713
ag10
(g14
S'\xff\xff\xff\xff'
p8714
tp8715
Rp8716
tp8717
a(g6511
g8645
VVillarreal
p8718
(lp8719
V2
p8720
aV2
p8721
ag10
(g14
S'\x01\x00\x00\x00'
p8722
tp8723
Rp8724
tp8725
a(g6511
g8645
VReal Sociedad
p8726
(lp8727
V0
p8728
aV5
p8729
ag10
(g14
S'\xff\xff\xff\xff'
p8730
tp8731
Rp8732
tp8733
a(g6511
g8645
VDeportivo La Coruna
p8734
(lp8735
V1
p8736
aV0
p8737
ag10
(g14
S'\x01\x00\x00\x00'
p8738
tp8739
Rp8740
tp8741
a(g6511
g8645
VReal Betis
p8742
(lp8743
V0
p8744
aV3
p8745
ag10
(g14
S'\x01\x00\x00\x00'
p8746
tp8747
Rp8748
tp8749
a(g6511
g8645
VRayo Vallecano
p8750
(lp8751
V2
p8752
aV1
p8753
ag10
(g14
S'\xff\xff\xff\xff'
p8754
tp8755
Rp8756
tp8757
asg2352
g10
(g2355
S'5\tQ\xfcE\xce\xe0?'
p8758
tp8759
Rp8760
sg2361
(dp8761
I0
F0.0
sI1
F0.42857142857142855
sI2
F0.6
sI3
F0.5
sI4
F0.4
sI5
F0.5
sI6
F0.5454545454545454
sI7
F0.0
sI8
F0.5
sI9
F0.6666666666666666
sI10
F0.5
sI11
F0.6
sI12
F0.5
sI13
F0.5
sI14
F0.4
sI15
F0.3
sI16
F0.6
sI17
F0.5555555555555556
sI18
F0.6153846153846154
sI19
F0.6666666666666666
sI20
F0.42857142857142855
sI21
F0.38461538461538464
sI22
F0.375
sI23
F0.9230769230769231
sI24
F0.7142857142857143
sI25
F0.3333333333333333
sI26
F0.625
sI27
F0.75
sI28
F0.5
sI29
F0.75
sI30
F0.0
sI31
F0.0
sI32
F0.0
sI33
F0.0
sI34
F0.0
sI35
F0.0
sI36
F0.0
sI37
F0.0
sI38
F0.0
sI39
F0.0
sI40
F0.0
sI41
F0.0
sI42
F0.0
sI43
F0.0
sI44
F0.0
sI45
F0.0
sI46
F0.0
sI47
F0.0
sI48
F0.0
sI49
F0.0
sI50
F0.0
sI51
F0.0
sI52
F0.0
sI53
F0.0
sI54
F0.0
sI55
F0.0
sI56
F0.0
sI57
F0.0
sI58
F0.0
sI59
F0.0
sI60
F0.0
sssS'Serie_A'
p8762
(dp8763
g3
(lp8764
(g8762
VVerona
p8765
VRoma
p8766
(lp8767
V1
p8768
aV1
p8769
ag10
(g14
S'\xff\xff\xff\xff'
p8770
tp8771
Rp8772
tp8773
a(g8762
g8765
VTorino
p8774
(lp8775
V2
p8776
aV2
p8777
ag10
(g14
S'\x01\x00\x00\x00'
p8778
tp8779
Rp8780
tp8781
a(g8762
g8765
VLazio
p8782
(lp8783
V1
p8784
aV2
p8785
ag10
(g14
S'\xff\xff\xff\xff'
p8786
tp8787
Rp8788
tp8789
a(g8762
g8765
VUdinese
p8790
(lp8791
V1
p8792
aV1
p8793
ag10
(g14
S'\x01\x00\x00\x00'
p8794
tp8795
Rp8796
tp8797
a(g8762
g8765
VFiorentina
p8798
(lp8799
V0
p8800
aV2
p8801
ag10
(g14
S'\xff\xff\xff\xff'
p8802
tp8803
Rp8804
tp8805
a(g8762
g8765
VBologna
p8806
(lp8807
V0
p8808
aV2
p8809
ag10
(g14
S'\x01\x00\x00\x00'
p8810
tp8811
Rp8812
tp8813
a(g8762
g8765
VNapoli
p8814
(lp8815
V0
p8816
aV2
p8817
ag10
(g14
S'\xff\xff\xff\xff'
p8818
tp8819
Rp8820
tp8821
a(g8762
g8765
VEmpoli
p8822
(lp8823
V0
p8824
aV1
p8825
ag10
(g14
S'\x01\x00\x00\x00'
p8826
tp8827
Rp8828
tp8829
a(g8762
g8765
VSassuolo
p8830
(lp8831
V1
p8832
aV1
p8833
ag10
(g14
S'\x01\x00\x00\x00'
p8834
tp8835
Rp8836
tp8837
a(g8762
g8765
VPalermo
p8838
(lp8839
V0
p8840
aV1
p8841
ag10
(g14
S'\x01\x00\x00\x00'
p8842
tp8843
Rp8844
tp8845
a(g8762
g8765
VGenoa
p8846
(lp8847
V1
p8848
aV1
p8849
ag10
(g14
S'\xff\xff\xff\xff'
p8850
tp8851
Rp8852
tp8853
a(g8762
g8765
VAtalanta
p8854
(lp8855
V2
p8856
aV1
p8857
ag10
(g14
S'\x01\x00\x00\x00'
p8858
tp8859
Rp8860
tp8861
a(g8762
g8765
VInter
p8862
(lp8863
V3
p8864
aV3
p8865
ag10
(g14
S'\xff\xff\xff\xff'
p8866
tp8867
Rp8868
tp8869
a(g8762
g8765
VChievo
p8870
(lp8871
V3
p8872
aV1
p8873
ag10
(g14
S'\x01\x00\x00\x00'
p8874
tp8875
Rp8876
tp8877
a(g8762
g8765
VSampdoria
p8878
(lp8879
V0
p8880
aV3
p8881
ag10
(g14
S'\x01\x00\x00\x00'
p8882
tp8883
Rp8884
tp8885
a(g8762
VUdinese
p8886
VPalermo
p8887
(lp8888
V0
p8889
aV1
p8890
ag10
(g14
S'\x01\x00\x00\x00'
p8891
tp8892
Rp8893
tp8894
a(g8762
g8886
VEmpoli
p8895
(lp8896
V1
p8897
aV2
p8898
ag10
(g14
S'\xff\xff\xff\xff'
p8899
tp8900
Rp8901
tp8902
a(g8762
g8886
VAC Milan
p8903
(lp8904
V2
p8905
aV3
p8906
ag10
(g14
S'\x01\x00\x00\x00'
p8907
tp8908
Rp8909
tp8910
a(g8762
g8886
VGenoa
p8911
(lp8912
V1
p8913
aV1
p8914
ag10
(g14
S'\x01\x00\x00\x00'
p8915
tp8916
Rp8917
tp8918
a(g8762
g8886
VFrosinone
p8919
(lp8920
V1
p8921
aV0
p8922
ag10
(g14
S'\x01\x00\x00\x00'
p8923
tp8924
Rp8925
tp8926
a(g8762
g8886
VSassuolo
p8927
(lp8928
V0
p8929
aV0
p8930
ag10
(g14
S'\x01\x00\x00\x00'
p8931
tp8932
Rp8933
tp8934
a(g8762
g8886
VSampdoria
p8935
(lp8936
V1
p8937
aV0
p8938
ag10
(g14
S'\x01\x00\x00\x00'
p8939
tp8940
Rp8941
tp8942
a(g8762
g8886
VInter
p8943
(lp8944
V0
p8945
aV4
p8946
ag10
(g14
S'\xff\xff\xff\xff'
p8947
tp8948
Rp8949
tp8950
a(g8762
g8886
VAtalanta
p8951
(lp8952
V2
p8953
aV1
p8954
ag10
(g14
S'\x01\x00\x00\x00'
p8955
tp8956
Rp8957
tp8958
a(g8762
g8886
VJuventus
p8959
(lp8960
V0
p8961
aV4
p8962
ag10
(g14
S'\xff\xff\xff\xff'
p8963
tp8964
Rp8965
tp8966
a(g8762
g8886
VLazio
p8967
(lp8968
V0
p8969
aV0
p8970
ag10
(g14
S'\xff\xff\xff\xff'
p8971
tp8972
Rp8973
tp8974
a(g8762
g8886
VBologna
p8975
(lp8976
V0
p8977
aV1
p8978
ag10
(g14
S'\x01\x00\x00\x00'
p8979
tp8980
Rp8981
tp8982
a(g8762
g8886
VVerona
p8983
(lp8984
V2
p8985
aV0
p8986
ag10
(g14
S'\x01\x00\x00\x00'
p8987
tp8988
Rp8989
tp8990
a(g8762
g8886
VRoma
p8991
(lp8992
V1
p8993
aV2
p8994
ag10
(g14
S'\xff\xff\xff\xff'
p8995
tp8996
Rp8997
tp8998
a(g8762
VTorino
p8999
VFiorentina
p9000
(lp9001
V3
p9002
aV1
p9003
ag10
(g14
S'\xff\xff\xff\xff'
p9004
tp9005
Rp9006
tp9007
a(g8762
g8999
VSampdoria
p9008
(lp9009
V2
p9010
aV0
p9011
ag10
(g14
S'\x01\x00\x00\x00'
p9012
tp9013
Rp9014
tp9015
a(g8762
g8999
VPalermo
p9016
(lp9017
V2
p9018
aV1
p9019
ag10
(g14
S'\x01\x00\x00\x00'
p9020
tp9021
Rp9022
tp9023
a(g8762
g8999
VAC Milan
p9024
(lp9025
V1
p9026
aV1
p9027
ag10
(g14
S'\x01\x00\x00\x00'
p9028
tp9029
Rp9030
tp9031
a(g8762
g8999
VGenoa
p9032
(lp9033
V3
p9034
aV3
p9035
ag10
(g14
S'\x00\x00\x00\x00'
p9036
tp9037
Rp9038
tp9039
a(g8762
g8999
VInter
p9040
(lp9041
V0
p9042
aV1
p9043
ag10
(g14
S'\xff\xff\xff\xff'
p9044
tp9045
Rp9046
tp9047
a(g8762
g8999
VBologna
p9048
(lp9049
V2
p9050
aV0
p9051
ag10
(g14
S'\x01\x00\x00\x00'
p9052
tp9053
Rp9054
tp9055
a(g8762
g8999
VRoma
p9056
(lp9057
V1
p9058
aV1
p9059
ag10
(g14
S'\xff\xff\xff\xff'
p9060
tp9061
Rp9062
tp9063
a(g8762
g8999
VUdinese
p9064
(lp9065
V0
p9066
aV1
p9067
ag10
(g14
S'\x01\x00\x00\x00'
p9068
tp9069
Rp9070
tp9071
a(g8762
g8999
VEmpoli
p9072
(lp9073
V0
p9074
aV1
p9075
ag10
(g14
S'\x01\x00\x00\x00'
p9076
tp9077
Rp9078
tp9079
a(g8762
g8999
VFrosinone
p9080
(lp9081
V4
p9082
aV2
p9083
ag10
(g14
S'\x01\x00\x00\x00'
p9084
tp9085
Rp9086
tp9087
a(g8762
g8999
VVerona
p9088
(lp9089
V0
p9090
aV0
p9091
ag10
(g14
S'\x01\x00\x00\x00'
p9092
tp9093
Rp9094
tp9095
a(g8762
g8999
VChievo
p9096
(lp9097
V1
p9098
aV2
p9099
ag10
(g14
S'\x01\x00\x00\x00'
p9100
tp9101
Rp9102
tp9103
a(g8762
g8999
VCarpi
p9104
(lp9105
V0
p9106
aV0
p9107
ag10
(g14
S'\x01\x00\x00\x00'
p9108
tp9109
Rp9110
tp9111
a(g8762
g8999
VLazio
p9112
(lp9113
V1
p9114
aV1
p9115
ag10
(g14
S'\xff\xff\xff\xff'
p9116
tp9117
Rp9118
tp9119
a(g8762
VFrosinone
p9120
VRoma
p9121
(lp9122
V0
p9123
aV2
p9124
ag10
(g14
S'\xff\xff\xff\xff'
p9125
tp9126
Rp9127
tp9128
a(g8762
g9120
VEmpoli
p9129
(lp9130
V2
p9131
aV0
p9132
ag10
(g14
S'\xff\xff\xff\xff'
p9133
tp9134
Rp9135
tp9136
a(g8762
g9120
VSampdoria
p9137
(lp9138
V2
p9139
aV0
p9140
ag10
(g14
S'\xff\xff\xff\xff'
p9141
tp9142
Rp9143
tp9144
a(g8762
g9120
VCarpi
p9145
(lp9146
V2
p9147
aV1
p9148
ag10
(g14
S'\x01\x00\x00\x00'
p9149
tp9150
Rp9151
tp9152
a(g8762
g9120
VGenoa
p9153
(lp9154
V2
p9155
aV2
p9156
ag10
(g14
S'\xff\xff\xff\xff'
p9157
tp9158
Rp9159
tp9160
a(g8762
g9120
VVerona
p9161
(lp9162
V3
p9163
aV2
p9164
ag10
(g14
S'\x01\x00\x00\x00'
p9165
tp9166
Rp9167
tp9168
a(g8762
g9120
VChievo
p9169
(lp9170
V0
p9171
aV2
p9172
ag10
(g14
S'\x01\x00\x00\x00'
p9173
tp9174
Rp9175
tp9176
a(g8762
g9120
VAC Milan
p9177
(lp9178
V2
p9179
aV4
p9180
ag10
(g14
S'\x01\x00\x00\x00'
p9181
tp9182
Rp9183
tp9184
a(g8762
g9120
VNapoli
p9185
(lp9186
V1
p9187
aV5
p9188
ag10
(g14
S'\xff\xff\xff\xff'
p9189
tp9190
Rp9191
tp9192
a(g8762
g9120
VAtalanta
p9193
(lp9194
V0
p9195
aV0
p9196
ag10
(g14
S'\xff\xff\xff\xff'
p9197
tp9198
Rp9199
tp9200
a(g8762
g9120
VBologna
p9201
(lp9202
V1
p9203
aV0
p9204
ag10
(g14
S'\x01\x00\x00\x00'
p9205
tp9206
Rp9207
tp9208
a(g8762
g9120
VJuventus
p9209
(lp9210
V0
p9211
aV2
p9212
ag10
(g14
S'\xff\xff\xff\xff'
p9213
tp9214
Rp9215
tp9216
a(g8762
g9120
VLazio
p9217
(lp9218
V0
p9219
aV0
p9220
ag10
(g14
S'\xff\xff\xff\xff'
p9221
tp9222
Rp9223
tp9224
a(g8762
g9120
VUdinese
p9225
(lp9226
V2
p9227
aV0
p9228
ag10
(g14
S'\x01\x00\x00\x00'
p9229
tp9230
Rp9231
tp9232
a(g8762
VSampdoria
p9233
VBologna
p9234
(lp9235
V2
p9236
aV0
p9237
ag10
(g14
S'\x01\x00\x00\x00'
p9238
tp9239
Rp9240
tp9241
a(g8762
g9233
VRoma
p9242
(lp9243
V2
p9244
aV1
p9245
ag10
(g14
S'\xff\xff\xff\xff'
p9246
tp9247
Rp9248
tp9249
a(g8762
g9233
VInter
p9250
(lp9251
V1
p9252
aV1
p9253
ag10
(g14
S'\xff\xff\xff\xff'
p9254
tp9255
Rp9256
tp9257
a(g8762
g9233
VVerona
p9258
(lp9259
V4
p9260
aV1
p9261
ag10
(g14
S'\x01\x00\x00\x00'
p9262
tp9263
Rp9264
tp9265
a(g8762
g9233
VEmpoli
p9266
(lp9267
V1
p9268
aV1
p9269
ag10
(g14
S'\x00\x00\x00\x00'
p9270
tp9271
Rp9272
tp9273
a(g8762
g9233
VFiorentina
p9274
(lp9275
V0
p9276
aV2
p9277
ag10
(g14
S'\xff\xff\xff\xff'
p9278
tp9279
Rp9280
tp9281
a(g8762
g9233
VSassuolo
p9282
(lp9283
V1
p9284
aV3
p9285
ag10
(g14
S'\x01\x00\x00\x00'
p9286
tp9287
Rp9288
tp9289
a(g8762
g9233
VPalermo
p9290
(lp9291
V2
p9292
aV0
p9293
ag10
(g14
S'\x01\x00\x00\x00'
p9294
tp9295
Rp9296
tp9297
a(g8762
g9233
VJuventus
p9298
(lp9299
V1
p9300
aV2
p9301
ag10
(g14
S'\xff\xff\xff\xff'
p9302
tp9303
Rp9304
tp9305
a(g8762
g9233
VNapoli
p9306
(lp9307
V2
p9308
aV4
p9309
ag10
(g14
S'\xff\xff\xff\xff'
p9310
tp9311
Rp9312
tp9313
a(g8762
g9233
VTorino
p9314
(lp9315
V2
p9316
aV2
p9317
ag10
(g14
S'\x01\x00\x00\x00'
p9318
tp9319
Rp9320
tp9321
a(g8762
g9233
VAtalanta
p9322
(lp9323
V0
p9324
aV0
p9325
ag10
(g14
S'\x01\x00\x00\x00'
p9326
tp9327
Rp9328
tp9329
a(g8762
g9233
VFrosinone
p9330
(lp9331
V2
p9332
aV0
p9333
ag10
(g14
S'\x01\x00\x00\x00'
p9334
tp9335
Rp9336
tp9337
a(g8762
VSassuolo
p9338
VNapoli
p9339
(lp9340
V2
p9341
aV1
p9342
ag10
(g14
S'\xff\xff\xff\xff'
p9343
tp9344
Rp9345
tp9346
a(g8762
g9338
VAtalanta
p9347
(lp9348
V2
p9349
aV2
p9350
ag10
(g14
S'\x01\x00\x00\x00'
p9351
tp9352
Rp9353
tp9354
a(g8762
g9338
VChievo
p9355
(lp9356
V1
p9357
aV1
p9358
ag10
(g14
S'\x01\x00\x00\x00'
p9359
tp9360
Rp9361
tp9362
a(g8762
g9338
VLazio
p9363
(lp9364
V2
p9365
aV1
p9366
ag10
(g14
S'\xff\xff\xff\xff'
p9367
tp9368
Rp9369
tp9370
a(g8762
g9338
VJuventus
p9371
(lp9372
V1
p9373
aV0
p9374
ag10
(g14
S'\xff\xff\xff\xff'
p9375
tp9376
Rp9377
tp9378
a(g8762
g9338
VCarpi
p9379
(lp9380
V1
p9381
aV0
p9382
ag10
(g14
S'\x01\x00\x00\x00'
p9383
tp9384
Rp9385
tp9386
a(g8762
g9338
VFiorentina
p9387
(lp9388
V1
p9389
aV1
p9390
ag10
(g14
S'\xff\xff\xff\xff'
p9391
tp9392
Rp9393
tp9394
a(g8762
g9338
VFrosinone
p9395
(lp9396
V2
p9397
aV2
p9398
ag10
(g14
S'\x01\x00\x00\x00'
p9399
tp9400
Rp9401
tp9402
a(g8762
g9338
VTorino
p9403
(lp9404
V1
p9405
aV1
p9406
ag10
(g14
S'\x00\x00\x00\x00'
p9407
tp9408
Rp9409
tp9410
a(g8762
g9338
VBologna
p9411
(lp9412
V0
p9413
aV2
p9414
ag10
(g14
S'\x01\x00\x00\x00'
p9415
tp9416
Rp9417
tp9418
a(g8762
g9338
VRoma
p9419
(lp9420
V0
p9421
aV2
p9422
ag10
(g14
S'\xff\xff\xff\xff'
p9423
tp9424
Rp9425
tp9426
a(g8762
g9338
VPalermo
p9427
(lp9428
V2
p9429
aV2
p9430
ag10
(g14
S'\x01\x00\x00\x00'
p9431
tp9432
Rp9433
tp9434
a(g8762
g9338
VEmpoli
p9435
(lp9436
V3
p9437
aV2
p9438
ag10
(g14
S'\x00\x00\x00\x00'
p9439
tp9440
Rp9441
tp9442
a(g8762
g9338
VAC Milan
p9443
(lp9444
V2
p9445
aV0
p9446
ag10
(g14
S'\x01\x00\x00\x00'
p9447
tp9448
Rp9449
tp9450
a(g8762
VBologna
p9451
VSassuolo
p9452
(lp9453
V0
p9454
aV1
p9455
ag10
(g14
S'\xff\xff\xff\xff'
p9456
tp9457
Rp9458
tp9459
a(g8762
g9451
VFrosinone
p9460
(lp9461
V1
p9462
aV0
p9463
ag10
(g14
S'\x01\x00\x00\x00'
p9464
tp9465
Rp9466
tp9467
a(g8762
g9451
VUdinese
p9468
(lp9469
V1
p9470
aV2
p9471
ag10
(g14
S'\x01\x00\x00\x00'
p9472
tp9473
Rp9474
tp9475
a(g8762
g9451
VPalermo
p9476
(lp9477
V0
p9478
aV1
p9479
ag10
(g14
S'\x01\x00\x00\x00'
p9480
tp9481
Rp9482
tp9483
a(g8762
g9451
VInter
p9484
(lp9485
V0
p9486
aV1
p9487
ag10
(g14
S'\xff\xff\xff\xff'
p9488
tp9489
Rp9490
tp9491
a(g8762
g9451
VAtalanta
p9492
(lp9493
V3
p9494
aV0
p9495
ag10
(g14
S'\x01\x00\x00\x00'
p9496
tp9497
Rp9498
tp9499
a(g8762
g9451
VRoma
p9500
(lp9501
V2
p9502
aV2
p9503
ag10
(g14
S'\xff\xff\xff\xff'
p9504
tp9505
Rp9506
tp9507
a(g8762
g9451
VNapoli
p9508
(lp9509
V3
p9510
aV2
p9511
ag10
(g14
S'\xff\xff\xff\xff'
p9512
tp9513
Rp9514
tp9515
a(g8762
g9451
VEmpoli
p9516
(lp9517
V2
p9518
aV3
p9519
ag10
(g14
S'\xff\xff\xff\xff'
p9520
tp9521
Rp9522
tp9523
a(g8762
g9451
VChievo
p9524
(lp9525
V0
p9526
aV1
p9527
ag10
(g14
S'\x01\x00\x00\x00'
p9528
tp9529
Rp9530
tp9531
a(g8762
g9451
VLazio
p9532
(lp9533
V2
p9534
aV2
p9535
ag10
(g14
S'\xff\xff\xff\xff'
p9536
tp9537
Rp9538
tp9539
a(g8762
g9451
VSampdoria
p9540
(lp9541
V3
p9542
aV2
p9543
ag10
(g14
S'\x01\x00\x00\x00'
p9544
tp9545
Rp9546
tp9547
a(g8762
g9451
VFiorentina
p9548
(lp9549
V1
p9550
aV1
p9551
ag10
(g14
S'\xff\xff\xff\xff'
p9552
tp9553
Rp9554
tp9555
a(g8762
g9451
VJuventus
p9556
(lp9557
V0
p9558
aV0
p9559
ag10
(g14
S'\xff\xff\xff\xff'
p9560
tp9561
Rp9562
tp9563
a(g8762
g9451
VCarpi
p9564
(lp9565
V0
p9566
aV0
p9567
ag10
(g14
S'\x01\x00\x00\x00'
p9568
tp9569
Rp9570
tp9571
a(g8762
VAC Milan
p9572
VEmpoli
p9573
(lp9574
V2
p9575
aV1
p9576
ag10
(g14
S'\x00\x00\x00\x00'
p9577
tp9578
Rp9579
tp9580
a(g8762
g9572
VPalermo
p9581
(lp9582
V3
p9583
aV2
p9584
ag10
(g14
S'\x01\x00\x00\x00'
p9585
tp9586
Rp9587
tp9588
a(g8762
g9572
VNapoli
p9589
(lp9590
V0
p9591
aV4
p9592
ag10
(g14
S'\xff\xff\xff\xff'
p9593
tp9594
Rp9595
tp9596
a(g8762
g9572
VSassuolo
p9597
(lp9598
V2
p9599
aV1
p9600
ag10
(g14
S'\x01\x00\x00\x00'
p9601
tp9602
Rp9603
tp9604
a(g8762
g9572
VChievo
p9605
(lp9606
V1
p9607
aV0
p9608
ag10
(g14
S'\x01\x00\x00\x00'
p9609
tp9610
Rp9611
tp9612
a(g8762
g9572
VAtalanta
p9613
(lp9614
V0
p9615
aV0
p9616
ag10
(g14
S'\x01\x00\x00\x00'
p9617
tp9618
Rp9619
tp9620
a(g8762
g9572
VSampdoria
p9621
(lp9622
V4
p9623
aV1
p9624
ag10
(g14
S'\x01\x00\x00\x00'
p9625
tp9626
Rp9627
tp9628
a(g8762
g9572
VVerona
p9629
(lp9630
V1
p9631
aV1
p9632
ag10
(g14
S'\x01\x00\x00\x00'
p9633
tp9634
Rp9635
tp9636
a(g8762
g9572
VBologna
p9637
(lp9638
V0
p9639
aV1
p9640
ag10
(g14
S'\x01\x00\x00\x00'
p9641
tp9642
Rp9643
tp9644
a(g8762
g9572
VFiorentina
p9645
(lp9646
V2
p9647
aV0
p9648
ag10
(g14
S'\xff\xff\xff\xff'
p9649
tp9650
Rp9651
tp9652
a(g8762
g9572
VInter
p9653
(lp9654
V3
p9655
aV0
p9656
ag10
(g14
S'\x01\x00\x00\x00'
p9657
tp9658
Rp9659
tp9660
a(g8762
g9572
VUdinese
p9661
(lp9662
V1
p9663
aV1
p9664
ag10
(g14
S'\x01\x00\x00\x00'
p9665
tp9666
Rp9667
tp9668
a(g8762
g9572
VGenoa
p9669
(lp9670
V2
p9671
aV1
p9672
ag10
(g14
S'\x01\x00\x00\x00'
p9673
tp9674
Rp9675
tp9676
a(g8762
g9572
VTorino
p9677
(lp9678
V1
p9679
aV0
p9680
ag10
(g14
S'\x01\x00\x00\x00'
p9681
tp9682
Rp9683
tp9684
a(g8762
VLazio
p9685
VUdinese
p9686
(lp9687
V2
p9688
aV0
p9689
ag10
(g14
S'\x01\x00\x00\x00'
p9690
tp9691
Rp9692
tp9693
a(g8762
g9685
VGenoa
p9694
(lp9695
V2
p9696
aV0
p9697
ag10
(g14
S'\x01\x00\x00\x00'
p9698
tp9699
Rp9700
tp9701
a(g8762
g9685
VFrosinone
p9702
(lp9703
V2
p9704
aV0
p9705
ag10
(g14
S'\x01\x00\x00\x00'
p9706
tp9707
Rp9708
tp9709
a(g8762
g9685
VTorino
p9710
(lp9711
V3
p9712
aV0
p9713
ag10
(g14
S'\x01\x00\x00\x00'
p9714
tp9715
Rp9716
tp9717
a(g8762
g9685
VAC Milan
p9718
(lp9719
V1
p9720
aV3
p9721
ag10
(g14
S'\x01\x00\x00\x00'
p9722
tp9723
Rp9724
tp9725
a(g8762
g9685
VPalermo
p9726
(lp9727
V1
p9728
aV1
p9729
ag10
(g14
S'\x01\x00\x00\x00'
p9730
tp9731
Rp9732
tp9733
a(g8762
g9685
VJuventus
p9734
(lp9735
V0
p9736
aV2
p9737
ag10
(g14
S'\x01\x00\x00\x00'
p9738
tp9739
Rp9740
tp9741
a(g8762
g9685
VSampdoria
p9742
(lp9743
V1
p9744
aV1
p9745
ag10
(g14
S'\x01\x00\x00\x00'
p9746
tp9747
Rp9748
tp9749
a(g8762
g9685
VCarpi
p9750
(lp9751
V0
p9752
aV0
p9753
ag10
(g14
S'\x01\x00\x00\x00'
p9754
tp9755
Rp9756
tp9757
a(g8762
g9685
VChievo
p9758
(lp9759
V4
p9760
aV1
p9761
ag10
(g14
S'\x01\x00\x00\x00'
p9762
tp9763
Rp9764
tp9765
a(g8762
g9685
VNapoli
p9766
(lp9767
V0
p9768
aV2
p9769
ag10
(g14
S'\x01\x00\x00\x00'
p9770
tp9771
Rp9772
tp9773
a(g8762
g9685
VVerona
p9774
(lp9775
V5
p9776
aV2
p9777
ag10
(g14
S'\x01\x00\x00\x00'
p9778
tp9779
Rp9780
tp9781
a(g8762
g9685
VSassuolo
p9782
(lp9783
V0
p9784
aV2
p9785
ag10
(g14
S'\x01\x00\x00\x00'
p9786
tp9787
Rp9788
tp9789
a(g8762
g9685
VAtalanta
p9790
(lp9791
V2
p9792
aV0
p9793
ag10
(g14
S'\x01\x00\x00\x00'
p9794
tp9795
Rp9796
tp9797
a(g8762
VRoma
p9798
VJuventus
p9799
(lp9800
V2
p9801
aV1
p9802
ag10
(g14
S'\x01\x00\x00\x00'
p9803
tp9804
Rp9805
tp9806
a(g8762
g9798
VSassuolo
p9807
(lp9808
V2
p9809
aV2
p9810
ag10
(g14
S'\x01\x00\x00\x00'
p9811
tp9812
Rp9813
tp9814
a(g8762
g9798
VCarpi
p9815
(lp9816
V5
p9817
aV1
p9818
ag10
(g14
S'\x01\x00\x00\x00'
p9819
tp9820
Rp9821
tp9822
a(g8762
g9798
VEmpoli
p9823
(lp9824
V3
p9825
aV1
p9826
ag10
(g14
S'\x01\x00\x00\x00'
p9827
tp9828
Rp9829
tp9830
a(g8762
g9798
VUdinese
p9831
(lp9832
V3
p9833
aV1
p9834
ag10
(g14
S'\x01\x00\x00\x00'
p9835
tp9836
Rp9837
tp9838
a(g8762
g9798
VLazio
p9839
(lp9840
V2
p9841
aV0
p9842
ag10
(g14
S'\x01\x00\x00\x00'
p9843
tp9844
Rp9845
tp9846
a(g8762
g9798
VAtalanta
p9847
(lp9848
V0
p9849
aV2
p9850
ag10
(g14
S'\x01\x00\x00\x00'
p9851
tp9852
Rp9853
tp9854
a(g8762
g9798
VGenoa
p9855
(lp9856
V2
p9857
aV0
p9858
ag10
(g14
S'\x01\x00\x00\x00'
p9859
tp9860
Rp9861
tp9862
a(g8762
g9798
VAC Milan
p9863
(lp9864
V1
p9865
aV1
p9866
ag10
(g14
S'\x01\x00\x00\x00'
p9867
tp9868
Rp9869
tp9870
a(g8762
g9798
VVerona
p9871
(lp9872
V1
p9873
aV1
p9874
ag10
(g14
S'\x01\x00\x00\x00'
p9875
tp9876
Rp9877
tp9878
a(g8762
g9798
VFrosinone
p9879
(lp9880
V3
p9881
aV1
p9882
ag10
(g14
S'\x01\x00\x00\x00'
p9883
tp9884
Rp9885
tp9886
a(g8762
g9798
VSampdoria
p9887
(lp9888
V2
p9889
aV1
p9890
ag10
(g14
S'\x01\x00\x00\x00'
p9891
tp9892
Rp9893
tp9894
a(g8762
g9798
VPalermo
p9895
(lp9896
V5
p9897
aV0
p9898
ag10
(g14
S'\x01\x00\x00\x00'
p9899
tp9900
Rp9901
tp9902
a(g8762
g9798
VFiorentina
p9903
(lp9904
V4
p9905
aV1
p9906
ag10
(g14
S'\x01\x00\x00\x00'
p9907
tp9908
Rp9909
tp9910
a(g8762
VJuventus
p9911
VUdinese
p9912
(lp9913
V0
p9914
aV1
p9915
ag10
(g14
S'\x01\x00\x00\x00'
p9916
tp9917
Rp9918
tp9919
a(g8762
g9911
VChievo
p9920
(lp9921
V1
p9922
aV1
p9923
ag10
(g14
S'\x01\x00\x00\x00'
p9924
tp9925
Rp9926
tp9927
a(g8762
g9911
VFrosinone
p9928
(lp9929
V1
p9930
aV1
p9931
ag10
(g14
S'\x01\x00\x00\x00'
p9932
tp9933
Rp9934
tp9935
a(g8762
g9911
VBologna
p9936
(lp9937
V3
p9938
aV1
p9939
ag10
(g14
S'\x01\x00\x00\x00'
p9940
tp9941
Rp9942
tp9943
a(g8762
g9911
VAtalanta
p9944
(lp9945
V2
p9946
aV0
p9947
ag10
(g14
S'\x01\x00\x00\x00'
p9948
tp9949
Rp9950
tp9951
a(g8762
g9911
VTorino
p9952
(lp9953
V2
p9954
aV1
p9955
ag10
(g14
S'\x01\x00\x00\x00'
p9956
tp9957
Rp9958
tp9959
a(g8762
g9911
VAC Milan
p9960
(lp9961
V1
p9962
aV0
p9963
ag10
(g14
S'\x01\x00\x00\x00'
p9964
tp9965
Rp9966
tp9967
a(g8762
g9911
VFiorentina
p9968
(lp9969
V3
p9970
aV1
p9971
ag10
(g14
S'\x01\x00\x00\x00'
p9972
tp9973
Rp9974
tp9975
a(g8762
g9911
VVerona
p9976
(lp9977
V3
p9978
aV0
p9979
ag10
(g14
S'\x01\x00\x00\x00'
p9980
tp9981
Rp9982
tp9983
a(g8762
g9911
VRoma
p9984
(lp9985
V1
p9986
aV0
p9987
ag10
(g14
S'\x01\x00\x00\x00'
p9988
tp9989
Rp9990
tp9991
a(g8762
g9911
VGenoa
p9992
(lp9993
V1
p9994
aV0
p9995
ag10
(g14
S'\x01\x00\x00\x00'
p9996
tp9997
Rp9998
tp9999
a(g8762
g9911
VNapoli
p10000
(lp10001
V1
p10002
aV0
p10003
ag10
(g14
S'\x01\x00\x00\x00'
p10004
tp10005
Rp10006
tp10007
a(g8762
g9911
VInter
p10008
(lp10009
V2
p10010
aV0
p10011
ag10
(g14
S'\x01\x00\x00\x00'
p10012
tp10013
Rp10014
tp10015
a(g8762
g9911
VSassuolo
p10016
(lp10017
V1
p10018
aV0
p10019
ag10
(g14
S'\x01\x00\x00\x00'
p10020
tp10021
Rp10022
tp10023
a(g8762
VInter
p10024
VAtalanta
p10025
(lp10026
V1
p10027
aV0
p10028
ag10
(g14
S'\x01\x00\x00\x00'
p10029
tp10030
Rp10031
tp10032
a(g8762
g10024
VAC Milan
p10033
(lp10034
V1
p10035
aV0
p10036
ag10
(g14
S'\x01\x00\x00\x00'
p10037
tp10038
Rp10039
tp10040
a(g8762
g10024
VVerona
p10041
(lp10042
V1
p10043
aV0
p10044
ag10
(g14
S'\x01\x00\x00\x00'
p10045
tp10046
Rp10047
tp10048
a(g8762
g10024
VFiorentina
p10049
(lp10050
V1
p10051
aV4
p10052
ag10
(g14
S'\x01\x00\x00\x00'
p10053
tp10054
Rp10055
tp10056
a(g8762
g10024
VJuventus
p10057
(lp10058
V0
p10059
aV0
p10060
ag10
(g14
S'\x00\x00\x00\x00'
p10061
tp10062
Rp10063
tp10064
a(g8762
g10024
VRoma
p10065
(lp10066
V1
p10067
aV0
p10068
ag10
(g14
S'\x01\x00\x00\x00'
p10069
tp10070
Rp10071
tp10072
a(g8762
g10024
VFrosinone
p10073
(lp10074
V4
p10075
aV0
p10076
ag10
(g14
S'\x01\x00\x00\x00'
p10077
tp10078
Rp10079
tp10080
a(g8762
g10024
VGenoa
p10081
(lp10082
V1
p10083
aV0
p10084
ag10
(g14
S'\x01\x00\x00\x00'
p10085
tp10086
Rp10087
tp10088
a(g8762
g10024
VLazio
p10089
(lp10090
V1
p10091
aV2
p10092
ag10
(g14
S'\x01\x00\x00\x00'
p10093
tp10094
Rp10095
tp10096
a(g8762
g10024
VSassuolo
p10097
(lp10098
V0
p10099
aV1
p10100
ag10
(g14
S'\x01\x00\x00\x00'
p10101
tp10102
Rp10103
tp10104
a(g8762
g10024
VCarpi
p10105
(lp10106
V1
p10107
aV1
p10108
ag10
(g14
S'\x01\x00\x00\x00'
p10109
tp10110
Rp10111
tp10112
a(g8762
g10024
VChievo
p10113
(lp10114
V1
p10115
aV0
p10116
ag10
(g14
S'\x01\x00\x00\x00'
p10117
tp10118
Rp10119
tp10120
a(g8762
g10024
VSampdoria
p10121
(lp10122
V3
p10123
aV1
p10124
ag10
(g14
S'\x01\x00\x00\x00'
p10125
tp10126
Rp10127
tp10128
a(g8762
g10024
VPalermo
p10129
(lp10130
V3
p10131
aV1
p10132
ag10
(g14
S'\x01\x00\x00\x00'
p10133
tp10134
Rp10135
tp10136
a(g8762
g10024
VBologna
p10137
(lp10138
V2
p10139
aV1
p10140
ag10
(g14
S'\x01\x00\x00\x00'
p10141
tp10142
Rp10143
tp10144
a(g8762
VPalermo
p10145
VGenoa
p10146
(lp10147
V1
p10148
aV0
p10149
ag10
(g14
S'\xff\xff\xff\xff'
p10150
tp10151
Rp10152
tp10153
a(g8762
g10145
VCarpi
p10154
(lp10155
V2
p10156
aV2
p10157
ag10
(g14
S'\x01\x00\x00\x00'
p10158
tp10159
Rp10160
tp10161
a(g8762
g10145
VSassuolo
p10162
(lp10163
V0
p10164
aV1
p10165
ag10
(g14
S'\xff\xff\xff\xff'
p10166
tp10167
Rp10168
tp10169
a(g8762
g10145
VRoma
p10170
(lp10171
V2
p10172
aV4
p10173
ag10
(g14
S'\xff\xff\xff\xff'
p10174
tp10175
Rp10176
tp10177
a(g8762
g10145
VInter
p10178
(lp10179
V1
p10180
aV1
p10181
ag10
(g14
S'\xff\xff\xff\xff'
p10182
tp10183
Rp10184
tp10185
a(g8762
g10145
VEmpoli
p10186
(lp10187
V0
p10188
aV1
p10189
ag10
(g14
S'\xff\xff\xff\xff'
p10190
tp10191
Rp10192
tp10193
a(g8762
g10145
VChievo
p10194
(lp10195
V1
p10196
aV0
p10197
ag10
(g14
S'\x01\x00\x00\x00'
p10198
tp10199
Rp10200
tp10201
a(g8762
g10145
VJuventus
p10202
(lp10203
V0
p10204
aV3
p10205
ag10
(g14
S'\xff\xff\xff\xff'
p10206
tp10207
Rp10208
tp10209
a(g8762
g10145
VFrosinone
p10210
(lp10211
V4
p10212
aV1
p10213
ag10
(g14
S'\x01\x00\x00\x00'
p10214
tp10215
Rp10216
tp10217
a(g8762
g10145
VFiorentina
p10218
(lp10219
V1
p10220
aV3
p10221
ag10
(g14
S'\xff\xff\xff\xff'
p10222
tp10223
Rp10224
tp10225
a(g8762
g10145
VUdinese
p10226
(lp10227
V4
p10228
aV1
p10229
ag10
(g14
S'\x01\x00\x00\x00'
p10230
tp10231
Rp10232
tp10233
a(g8762
g10145
VAC Milan
p10234
(lp10235
V0
p10236
aV2
p10237
ag10
(g14
S'\x01\x00\x00\x00'
p10238
tp10239
Rp10240
tp10241
a(g8762
g10145
VTorino
p10242
(lp10243
V1
p10244
aV3
p10245
ag10
(g14
S'\x01\x00\x00\x00'
p10246
tp10247
Rp10248
tp10249
a(g8762
g10145
VBologna
p10250
(lp10251
V0
p10252
aV0
p10253
ag10
(g14
S'\x01\x00\x00\x00'
p10254
tp10255
Rp10256
tp10257
a(g8762
g10145
VNapoli
p10258
(lp10259
V0
p10260
aV1
p10261
ag10
(g14
S'\xff\xff\xff\xff'
p10262
tp10263
Rp10264
tp10265
a(g8762
VGenoa
p10266
VVerona
p10267
(lp10268
V2
p10269
aV0
p10270
ag10
(g14
S'\x01\x00\x00\x00'
p10271
tp10272
Rp10273
tp10274
a(g8762
g10266
VJuventus
p10275
(lp10276
V0
p10277
aV2
p10278
ag10
(g14
S'\x01\x00\x00\x00'
p10279
tp10280
Rp10281
tp10282
a(g8762
g10266
VAC Milan
p10283
(lp10284
V1
p10285
aV0
p10286
ag10
(g14
S'\x01\x00\x00\x00'
p10287
tp10288
Rp10289
tp10290
a(g8762
g10266
VChievo
p10291
(lp10292
V3
p10293
aV2
p10294
ag10
(g14
S'\x01\x00\x00\x00'
p10295
tp10296
Rp10297
tp10298
a(g8762
g10266
VNapoli
p10299
(lp10300
V0
p10301
aV0
p10302
ag10
(g14
S'\xff\xff\xff\xff'
p10303
tp10304
Rp10305
tp10306
a(g8762
g10266
VSassuolo
p10307
(lp10308
V2
p10309
aV1
p10310
ag10
(g14
S'\x01\x00\x00\x00'
p10311
tp10312
Rp10313
tp10314
a(g8762
g10266
VCarpi
p10315
(lp10316
V1
p10317
aV2
p10318
ag10
(g14
S'\x01\x00\x00\x00'
p10319
tp10320
Rp10321
tp10322
a(g8762
g10266
VBologna
p10323
(lp10324
V0
p10325
aV1
p10326
ag10
(g14
S'\x01\x00\x00\x00'
p10327
tp10328
Rp10329
tp10330
a(g8762
g10266
VSampdoria
p10331
(lp10332
V2
p10333
aV3
p10334
ag10
(g14
S'\x00\x00\x00\x00'
p10335
tp10336
Rp10337
tp10338
a(g8762
g10266
VPalermo
p10339
(lp10340
V4
p10341
aV0
p10342
ag10
(g14
S'\x01\x00\x00\x00'
p10343
tp10344
Rp10345
tp10346
a(g8762
g10266
VFiorentina
p10347
(lp10348
V0
p10349
aV0
p10350
ag10
(g14
S'\xff\xff\xff\xff'
p10351
tp10352
Rp10353
tp10354
a(g8762
g10266
VLazio
p10355
(lp10356
V0
p10357
aV0
p10358
ag10
(g14
S'\x01\x00\x00\x00'
p10359
tp10360
Rp10361
tp10362
a(g8762
g10266
VUdinese
p10363
(lp10364
V2
p10365
aV1
p10366
ag10
(g14
S'\x01\x00\x00\x00'
p10367
tp10368
Rp10369
tp10370
a(g8762
g10266
VEmpoli
p10371
(lp10372
V1
p10373
aV0
p10374
ag10
(g14
S'\x00\x00\x00\x00'
p10375
tp10376
Rp10377
tp10378
a(g8762
g10266
VTorino
p10379
(lp10380
V3
p10381
aV2
p10382
ag10
(g14
S'\x01\x00\x00\x00'
p10383
tp10384
Rp10385
tp10386
a(g8762
VNapoli
p10387
VSampdoria
p10388
(lp10389
V2
p10390
aV2
p10391
ag10
(g14
S'\x01\x00\x00\x00'
p10392
tp10393
Rp10394
tp10395
a(g8762
g10387
VLazio
p10396
(lp10397
V5
p10398
aV0
p10399
ag10
(g14
S'\x01\x00\x00\x00'
p10400
tp10401
Rp10402
tp10403
a(g8762
g10387
VJuventus
p10404
(lp10405
V2
p10406
aV1
p10407
ag10
(g14
S'\x01\x00\x00\x00'
p10408
tp10409
Rp10410
tp10411
a(g8762
g10387
VFiorentina
p10412
(lp10413
V2
p10414
aV1
p10415
ag10
(g14
S'\x01\x00\x00\x00'
p10416
tp10417
Rp10418
tp10419
a(g8762
g10387
VPalermo
p10420
(lp10421
V2
p10422
aV0
p10423
ag10
(g14
S'\x01\x00\x00\x00'
p10424
tp10425
Rp10426
tp10427
a(g8762
g10387
VUdinese
p10428
(lp10429
V1
p10430
aV0
p10431
ag10
(g14
S'\x01\x00\x00\x00'
p10432
tp10433
Rp10434
tp10435
a(g8762
g10387
VInter
p10436
(lp10437
V2
p10438
aV1
p10439
ag10
(g14
S'\x01\x00\x00\x00'
p10440
tp10441
Rp10442
tp10443
a(g8762
g10387
VRoma
p10444
(lp10445
V0
p10446
aV0
p10447
ag10
(g14
S'\x01\x00\x00\x00'
p10448
tp10449
Rp10450
tp10451
a(g8762
g10387
VTorino
p10452
(lp10453
V2
p10454
aV1
p10455
ag10
(g14
S'\x01\x00\x00\x00'
p10456
tp10457
Rp10458
tp10459
a(g8762
g10387
VSassuolo
p10460
(lp10461
V3
p10462
aV1
p10463
ag10
(g14
S'\x01\x00\x00\x00'
p10464
tp10465
Rp10466
tp10467
a(g8762
g10387
VEmpoli
p10468
(lp10469
V5
p10470
aV1
p10471
ag10
(g14
S'\x01\x00\x00\x00'
p10472
tp10473
Rp10474
tp10475
a(g8762
g10387
VCarpi
p10476
(lp10477
V1
p10478
aV0
p10479
ag10
(g14
S'\x01\x00\x00\x00'
p10480
tp10481
Rp10482
tp10483
a(g8762
g10387
VAC Milan
p10484
(lp10485
V1
p10486
aV1
p10487
ag10
(g14
S'\x01\x00\x00\x00'
p10488
tp10489
Rp10490
tp10491
a(g8762
g10387
VChievo
p10492
(lp10493
V3
p10494
aV1
p10495
ag10
(g14
S'\x01\x00\x00\x00'
p10496
tp10497
Rp10498
tp10499
a(g8762
VFiorentina
p10500
VAC Milan
p10501
(lp10502
V2
p10503
aV0
p10504
ag10
(g14
S'\x01\x00\x00\x00'
p10505
tp10506
Rp10507
tp10508
a(g8762
g10500
VGenoa
p10509
(lp10510
V1
p10511
aV0
p10512
ag10
(g14
S'\x01\x00\x00\x00'
p10513
tp10514
Rp10515
tp10516
a(g8762
g10500
VBologna
p10517
(lp10518
V2
p10519
aV0
p10520
ag10
(g14
S'\x01\x00\x00\x00'
p10521
tp10522
Rp10523
tp10524
a(g8762
g10500
VAtalanta
p10525
(lp10526
V3
p10527
aV0
p10528
ag10
(g14
S'\x01\x00\x00\x00'
p10529
tp10530
Rp10531
tp10532
a(g8762
g10500
VRoma
p10533
(lp10534
V1
p10535
aV2
p10536
ag10
(g14
S'\x01\x00\x00\x00'
p10537
tp10538
Rp10539
tp10540
a(g8762
g10500
VFrosinone
p10541
(lp10542
V4
p10543
aV1
p10544
ag10
(g14
S'\x01\x00\x00\x00'
p10545
tp10546
Rp10547
tp10548
a(g8762
g10500
VEmpoli
p10549
(lp10550
V2
p10551
aV2
p10552
ag10
(g14
S'\x01\x00\x00\x00'
p10553
tp10554
Rp10555
tp10556
a(g8762
g10500
VUdinese
p10557
(lp10558
V3
p10559
aV0
p10560
ag10
(g14
S'\x01\x00\x00\x00'
p10561
tp10562
Rp10563
tp10564
a(g8762
g10500
VChievo
p10565
(lp10566
V2
p10567
aV0
p10568
ag10
(g14
S'\x01\x00\x00\x00'
p10569
tp10570
Rp10571
tp10572
a(g8762
g10500
VLazio
p10573
(lp10574
V1
p10575
aV3
p10576
ag10
(g14
S'\x01\x00\x00\x00'
p10577
tp10578
Rp10579
tp10580
a(g8762
g10500
VTorino
p10581
(lp10582
V2
p10583
aV0
p10584
ag10
(g14
S'\x01\x00\x00\x00'
p10585
tp10586
Rp10587
tp10588
a(g8762
g10500
VCarpi
p10589
(lp10590
V2
p10591
aV1
p10592
ag10
(g14
S'\x01\x00\x00\x00'
p10593
tp10594
Rp10595
tp10596
a(g8762
g10500
VInter
p10597
(lp10598
V2
p10599
aV1
p10600
ag10
(g14
S'\x01\x00\x00\x00'
p10601
tp10602
Rp10603
tp10604
a(g8762
g10500
VNapoli
p10605
(lp10606
V1
p10607
aV1
p10608
ag10
(g14
S'\x01\x00\x00\x00'
p10609
tp10610
Rp10611
tp10612
a(g8762
g10500
VVerona
p10613
(lp10614
V1
p10615
aV1
p10616
ag10
(g14
S'\x01\x00\x00\x00'
p10617
tp10618
Rp10619
tp10620
a(g8762
VCarpi
p10621
VInter
p10622
(lp10623
V1
p10624
aV2
p10625
ag10
(g14
S'\xff\xff\xff\xff'
p10626
tp10627
Rp10628
tp10629
a(g8762
g10621
VFiorentina
p10630
(lp10631
V0
p10632
aV1
p10633
ag10
(g14
S'\xff\xff\xff\xff'
p10634
tp10635
Rp10636
tp10637
a(g8762
g10621
VNapoli
p10638
(lp10639
V0
p10640
aV0
p10641
ag10
(g14
S'\xff\xff\xff\xff'
p10642
tp10643
Rp10644
tp10645
a(g8762
g10621
VTorino
p10646
(lp10647
V2
p10648
aV1
p10649
ag10
(g14
S'\xff\xff\xff\xff'
p10650
tp10651
Rp10652
tp10653
a(g8762
g10621
VBologna
p10654
(lp10655
V1
p10656
aV2
p10657
ag10
(g14
S'\xff\xff\xff\xff'
p10658
tp10659
Rp10660
tp10661
a(g8762
g10621
VVerona
p10662
(lp10663
V0
p10664
aV0
p10665
ag10
(g14
S'\x01\x00\x00\x00'
p10666
tp10667
Rp10668
tp10669
a(g8762
g10621
VChievo
p10670
(lp10671
V1
p10672
aV2
p10673
ag10
(g14
S'\x01\x00\x00\x00'
p10674
tp10675
Rp10676
tp10677
a(g8762
g10621
VAC Milan
p10678
(lp10679
V0
p10680
aV0
p10681
ag10
(g14
S'\xff\xff\xff\xff'
p10682
tp10683
Rp10684
tp10685
a(g8762
g10621
VJuventus
p10686
(lp10687
V2
p10688
aV3
p10689
ag10
(g14
S'\xff\xff\xff\xff'
p10690
tp10691
Rp10692
tp10693
a(g8762
g10621
VUdinese
p10694
(lp10695
V2
p10696
aV1
p10697
ag10
(g14
S'\xff\xff\xff\xff'
p10698
tp10699
Rp10700
tp10701
a(g8762
g10621
VSampdoria
p10702
(lp10703
V2
p10704
aV1
p10705
ag10
(g14
S'\xff\xff\xff\xff'
p10706
tp10707
Rp10708
tp10709
a(g8762
g10621
VPalermo
p10710
(lp10711
V1
p10712
aV1
p10713
ag10
(g14
S'\xff\xff\xff\xff'
p10714
tp10715
Rp10716
tp10717
a(g8762
g10621
VRoma
p10718
(lp10719
V1
p10720
aV3
p10721
ag10
(g14
S'\xff\xff\xff\xff'
p10722
tp10723
Rp10724
tp10725
a(g8762
g10621
VAtalanta
p10726
(lp10727
V1
p10728
aV1
p10729
ag10
(g14
S'\xff\xff\xff\xff'
p10730
tp10731
Rp10732
tp10733
a(g8762
g10621
VFrosinone
p10734
(lp10735
V2
p10736
aV1
p10737
ag10
(g14
S'\x00\x00\x00\x00'
p10738
tp10739
Rp10740
tp10741
a(g8762
VChievo
p10742
VLazio
p10743
(lp10744
V4
p10745
aV0
p10746
ag10
(g14
S'\xff\xff\xff\xff'
p10747
tp10748
Rp10749
tp10750
a(g8762
g10742
VInter
p10751
(lp10752
V0
p10753
aV1
p10754
ag10
(g14
S'\xff\xff\xff\xff'
p10755
tp10756
Rp10757
tp10758
a(g8762
g10742
VTorino
p10759
(lp10760
V1
p10761
aV0
p10762
ag10
(g14
S'\xff\xff\xff\xff'
p10763
tp10764
Rp10765
tp10766
a(g8762
g10742
VVerona
p10767
(lp10768
V1
p10769
aV1
p10770
ag10
(g14
S'\x01\x00\x00\x00'
p10771
tp10772
Rp10773
tp10774
a(g8762
g10742
VNapoli
p10775
(lp10776
V0
p10777
aV1
p10778
ag10
(g14
S'\xff\xff\xff\xff'
p10779
tp10780
Rp10781
tp10782
a(g8762
g10742
VSampdoria
p10783
(lp10784
V1
p10785
aV1
p10786
ag10
(g14
S'\x01\x00\x00\x00'
p10787
tp10788
Rp10789
tp10790
a(g8762
g10742
VUdinese
p10791
(lp10792
V2
p10793
aV3
p10794
ag10
(g14
S'\x01\x00\x00\x00'
p10795
tp10796
Rp10797
tp10798
a(g8762
g10742
VAtalanta
p10799
(lp10800
V1
p10801
aV0
p10802
ag10
(g14
S'\x00\x00\x00\x00'
p10803
tp10804
Rp10805
tp10806
a(g8762
g10742
VRoma
p10807
(lp10808
V3
p10809
aV3
p10810
ag10
(g14
S'\xff\xff\xff\xff'
p10811
tp10812
Rp10813
tp10814
a(g8762
g10742
VEmpoli
p10815
(lp10816
V1
p10817
aV1
p10818
ag10
(g14
S'\x01\x00\x00\x00'
p10819
tp10820
Rp10821
tp10822
a(g8762
g10742
VJuventus
p10823
(lp10824
V0
p10825
aV4
p10826
ag10
(g14
S'\xff\xff\xff\xff'
p10827
tp10828
Rp10829
tp10830
a(g8762
g10742
VSassuolo
p10831
(lp10832
V1
p10833
aV1
p10834
ag10
(g14
S'\x01\x00\x00\x00'
p10835
tp10836
Rp10837
tp10838
a(g8762
g10742
VGenoa
p10839
(lp10840
V1
p10841
aV0
p10842
ag10
(g14
S'\xff\xff\xff\xff'
p10843
tp10844
Rp10845
tp10846
a(g8762
g10742
VAC Milan
p10847
(lp10848
V0
p10849
aV0
p10850
ag10
(g14
S'\xff\xff\xff\xff'
p10851
tp10852
Rp10853
tp10854
a(g8762
VEmpoli
p10855
VChievo
p10856
(lp10857
V1
p10858
aV3
p10859
ag10
(g14
S'\x01\x00\x00\x00'
p10860
tp10861
Rp10862
tp10863
a(g8762
g10855
VNapoli
p10864
(lp10865
V2
p10866
aV2
p10867
ag10
(g14
S'\xff\xff\xff\xff'
p10868
tp10869
Rp10870
tp10871
a(g8762
g10855
VAtalanta
p10872
(lp10873
V0
p10874
aV1
p10875
ag10
(g14
S'\x01\x00\x00\x00'
p10876
tp10877
Rp10878
tp10879
a(g8762
g10855
VSassuolo
p10880
(lp10881
V1
p10882
aV0
p10883
ag10
(g14
S'\x01\x00\x00\x00'
p10884
tp10885
Rp10886
tp10887
a(g8762
g10855
VGenoa
p10888
(lp10889
V2
p10890
aV0
p10891
ag10
(g14
S'\x01\x00\x00\x00'
p10892
tp10893
Rp10894
tp10895
a(g8762
g10855
VJuventus
p10896
(lp10897
V1
p10898
aV3
p10899
ag10
(g14
S'\x01\x00\x00\x00'
p10900
tp10901
Rp10902
tp10903
a(g8762
g10855
VLazio
p10904
(lp10905
V1
p10906
aV0
p10907
ag10
(g14
S'\x00\x00\x00\x00'
p10908
tp10909
Rp10910
tp10911
a(g8762
g10855
VCarpi
p10912
(lp10913
V3
p10914
aV0
p10915
ag10
(g14
S'\x01\x00\x00\x00'
p10916
tp10917
Rp10918
tp10919
a(g8762
g10855
VInter
p10920
(lp10921
V0
p10922
aV1
p10923
ag10
(g14
S'\x01\x00\x00\x00'
p10924
tp10925
Rp10926
tp10927
a(g8762
g10855
VAC Milan
p10928
(lp10929
V2
p10930
aV2
p10931
ag10
(g14
S'\x01\x00\x00\x00'
p10932
tp10933
Rp10934
tp10935
a(g8762
g10855
VUdinese
p10936
(lp10937
V1
p10938
aV1
p10939
ag10
(g14
S'\x01\x00\x00\x00'
p10940
tp10941
Rp10942
tp10943
a(g8762
g10855
VFrosinone
p10944
(lp10945
V1
p10946
aV2
p10947
ag10
(g14
S'\x01\x00\x00\x00'
p10948
tp10949
Rp10950
tp10951
a(g8762
g10855
VRoma
p10952
(lp10953
V1
p10954
aV3
p10955
ag10
(g14
S'\x01\x00\x00\x00'
p10956
tp10957
Rp10958
tp10959
a(g8762
g10855
VSampdoria
p10960
(lp10961
V1
p10962
aV1
p10963
ag10
(g14
S'\x01\x00\x00\x00'
p10964
tp10965
Rp10966
tp10967
a(g8762
VAtalanta
p10968
VFrosinone
p10969
(lp10970
V2
p10971
aV0
p10972
ag10
(g14
S'\x01\x00\x00\x00'
p10973
tp10974
Rp10975
tp10976
a(g8762
g10968
VVerona
p10977
(lp10978
V1
p10979
aV1
p10980
ag10
(g14
S'\x01\x00\x00\x00'
p10981
tp10982
Rp10983
tp10984
a(g8762
g10968
VSampdoria
p10985
(lp10986
V2
p10987
aV1
p10988
ag10
(g14
S'\x01\x00\x00\x00'
p10989
tp10990
Rp10991
tp10992
a(g8762
g10968
VCarpi
p10993
(lp10994
V3
p10995
aV0
p10996
ag10
(g14
S'\x01\x00\x00\x00'
p10997
tp10998
Rp10999
tp11000
a(g8762
g10968
VLazio
p11001
(lp11002
V2
p11003
aV1
p11004
ag10
(g14
S'\xff\xff\xff\xff'
p11005
tp11006
Rp11007
tp11008
a(g8762
g10968
VTorino
p11009
(lp11010
V0
p11011
aV1
p11012
ag10
(g14
S'\x01\x00\x00\x00'
p11013
tp11014
Rp11015
tp11016
a(g8762
g10968
VPalermo
p11017
(lp11018
V3
p11019
aV0
p11020
ag10
(g14
S'\x01\x00\x00\x00'
p11021
tp11022
Rp11023
tp11024
a(g8762
g10968
VNapoli
p11025
(lp11026
V1
p11027
aV3
p11028
ag10
(g14
S'\xff\xff\xff\xff'
p11029
tp11030
Rp11031
tp11032
a(g8762
g10968
VGenoa
p11033
(lp11034
V0
p11035
aV2
p11036
ag10
(g14
S'\x01\x00\x00\x00'
p11037
tp11038
Rp11039
tp11040
a(g8762
g10968
VInter
p11041
(lp11042
V1
p11043
aV1
p11044
ag10
(g14
S'\x01\x00\x00\x00'
p11045
tp11046
Rp11047
tp11048
a(g8762
g10968
VSassuolo
p11049
(lp11050
V1
p11051
aV1
p11052
ag10
(g14
S'\x01\x00\x00\x00'
p11053
tp11054
Rp11055
tp11056
a(g8762
g10968
VEmpoli
p11057
(lp11058
V0
p11059
aV0
p11060
ag10
(g14
S'\x01\x00\x00\x00'
p11061
tp11062
Rp11063
tp11064
a(g8762
g10968
VFiorentina
p11065
(lp11066
V2
p11067
aV3
p11068
ag10
(g14
S'\xff\xff\xff\xff'
p11069
tp11070
Rp11071
tp11072
a(g8762
g10968
VJuventus
p11073
(lp11074
V0
p11075
aV2
p11076
ag10
(g14
S'\xff\xff\xff\xff'
p11077
tp11078
Rp11079
tp11080
asg2352
g10
(g2355
S'\xdat\xe3\xdf[G\xe0?'
p11081
tp11082
Rp11083
sg2361
(dp11084
I0
F0.0
sI1
F0.2857142857142857
sI2
F0.5
sI3
F0.5
sI4
F0.7
sI5
F0.4
sI6
F0.6
sI7
F0.6
sI8
F0.5
sI9
F0.8
sI10
F0.8
sI11
F0.5
sI12
F0.6
sI13
F0.5
sI14
F0.5
sI15
F0.3
sI16
F0.4
sI17
F0.6
sI18
F0.4
sI19
F0.3
sI20
F0.4
sI21
F0.5
sI22
F0.5
sI23
F0.6
sI24
F0.3
sI25
F0.5
sI26
F0.5
sI27
F0.4
sI28
F0.6
sI29
F0.6
sI30
F0.0
sI31
F0.0
sI32
F0.0
sI33
F0.0
sI34
F0.0
sI35
F0.0
sI36
F0.0
sI37
F0.0
sI38
F0.0
sI39
F0.0
sI40
F0.0
sI41
F0.0
sI42
F0.0
sI43
F0.0
sI44
F0.0
sI45
F0.0
sI46
F0.0
sI47
F0.0
sI48
F0.0
sI49
F0.0
sI50
F0.0
sI51
F0.0
sI52
F0.0
sI53
F0.0
sI54
F0.0
sI55
F0.0
sI56
F0.0
sI57
F0.0
sI58
F0.0
sI59
F0.0
sI60
F0.0
sss.