(dp0
S'Udinese'
p1
I37
sS'Palermo'
p2
I36
sS'Inter'
p3
I36
sS'Chievo'
p4
I37
sS'Carpi'
p5
I36
sS'Napoli'
p6
I36
sS'Lazio'
p7
I36
sS'Bologna'
p8
I36
sS'Torino'
p9
I37
sS'Sassuolo'
p10
I36
sS'Empoli'
p11
I36
sS'Atalanta'
p12
I36
sS'Sampdoria'
p13
I36
sS'Juventus'
p14
I36
sS'Roma'
p15
I36
sS'Verona'
p16
I36
sS'Genoa'
p17
I36
sS'Frosinone'
p18
I36
sS'Fiorentina'
p19
I37
sS'AC Milan'
p20
I36
s.