(dp0
S'Udinese'
p1
I28
sS'Palermo'
p2
I28
sS'Inter'
p3
I28
sS'Chievo'
p4
I28
sS'Carpi'
p5
I28
sS'Napoli'
p6
I28
sS'Lazio'
p7
I28
sS'Bologna'
p8
I28
sS'Torino'
p9
I28
sS'Sassuolo'
p10
I28
sS'Empoli'
p11
I28
sS'Atalanta'
p12
I28
sS'Sampdoria'
p13
I28
sS'Juventus'
p14
I28
sS'Roma'
p15
I28
sS'Verona'
p16
I28
sS'Genoa'
p17
I28
sS'Frosinone'
p18
I28
sS'Fiorentina'
p19
I28
sS'AC Milan'
p20
I28
s.