(dp0
S'Udinese'
p1
I30
sS'Palermo'
p2
I30
sS'Inter'
p3
I30
sS'Chievo'
p4
I30
sS'Carpi'
p5
I30
sS'Napoli'
p6
I30
sS'Lazio'
p7
I30
sS'Bologna'
p8
I30
sS'Torino'
p9
I30
sS'Sassuolo'
p10
I30
sS'Empoli'
p11
I30
sS'Atalanta'
p12
I30
sS'Sampdoria'
p13
I30
sS'Juventus'
p14
I30
sS'Roma'
p15
I30
sS'Verona'
p16
I30
sS'Genoa'
p17
I30
sS'Frosinone'
p18
I30
sS'Fiorentina'
p19
I30
sS'AC Milan'
p20
I30
s.