(dp0
S'Udinese'
p1
NsS'Palermo'
p2
NsS'Inter'
p3
NsS'Chievo'
p4
NsS'Carpi'
p5
NsS'Napoli'
p6
NsS'Lazio'
p7
NsS'Bologna'
p8
NsS'Torino'
p9
NsS'Sassuolo'
p10
NsS'Empoli'
p11
NsS'Atalanta'
p12
NsS'Sampdoria'
p13
NsS'Juventus'
p14
NsS'Roma'
p15
NsS'Verona'
p16
NsS'Genoa'
p17
NsS'Frosinone'
p18
NsS'Fiorentina'
p19
NsS'AC Milan'
p20
Ns.