(dp0
F0.5
(I4358
F0.5853602569986233
tp1
sF0.47
(I5123
F0.5711497169627172
tp2
sF0.44
(I6422
F0.5493615696044846
tp3
sF0.41
(I6817
F0.5321989144785096
tp4
sF0.38
(I7646
F0.5213183363850379
tp5
sF0.35
(I8832
F0.5036231884057971
tp6
sF0.59
(I1935
F0.6506459948320413
tp7
sF0.58
(I2416
F0.6382450331125827
tp8
sF0.52
(I3472
F0.6042626728110599
tp9
sF0.48
(I4616
F0.5814558058925476
tp10
sF0.45
(I6022
F0.5521421454666224
tp11
sF0.42
(I7064
F0.5376557191392979
tp12
sF0.53
(I3036
F0.6248353096179183
tp13
sF0.36
(I8694
F0.5081665516448125
tp14
sF0.54
(I2910
F0.6278350515463917
tp15
sF0.49
(I4375
F0.5878857142857142
tp16
sF0.57
(I2344
F0.6454778156996587
tp17
sF0.46
(I5786
F0.5620463187003111
tp18
sF0.43
(I6443
F0.5455533136737545
tp19
sF0.55
(I3028
F0.6360634081902246
tp20
sF0.4
(I7559
F0.529699695726948
tp21
sF0.37
(I8199
F0.5129893889498719
tp22
sF0.39
(I7990
F0.5180225281602002
tp23
sF0.34
(I9015
F0.49794786466999447
tp24
sF0.51
(I4184
F0.5915391969407265
tp25
sF0.56
(I2740
F0.6335766423357664
tp26
s.