(dp0
S'DTC'
p1
(dp2
F0.04
F0.49603402906314054
sF0.22
F0.45472737553705506
sF0.18
F0.4612626367364917
sF0.19
F0.46318605446036215
sF0.06
F0.5058726568021694
sF0.01
F0.5134986216698987
sF0.12
F0.48733834530079145
sF0.13
F0.48047022264119
sF0.03
F0.5127210115086219
sF0.24
F0.4456087268102243
sF0.08
F0.49358208701580375
sF0.21
F0.4544612082447249
sF0.11
F0.48517211250956505
sF0.09
F0.4921497777324266
sF0.15
F0.4729229775599227
sF0.2
F0.4573042677561808
sF0.23
F0.4487882304788249
sF0.14
F0.47666414959473447
sF0.16
F0.4778965255206655
sF0.05
F0.5003751998816013
sF0.1
F0.47946880459154856
sF0.02
F0.5068097920513138
sF0.17
F0.4712598728718186
sF0.07
F0.5033950800686833
ssS'RFC'
p3
(dp4
F0.04
F0.527874214460739
sF0.22
F0.5269976056371024
sF0.18
F0.5268661839988578
sF0.19
F0.5268151397109934
sF0.06
F0.5275043446201968
sF0.01
F0.5275040214175888
sF0.12
F0.5270172664742679
sF0.13
F0.5265236535097492
sF0.03
F0.5255854915388649
sF0.24
F0.5255819940130946
sF0.08
F0.5263315186958064
sF0.21
F0.5278513428208247
sF0.11
F0.5253473469195861
sF0.09
F0.5260127302006402
sF0.15
F0.5266842315041736
sF0.2
F0.5263271278589022
sF0.23
F0.5264388684624672
sF0.14
F0.5262534419770437
sF0.16
F0.5277416924225461
sF0.05
F0.5261969064523269
sF0.1
F0.5266232916200718
sF0.02
F0.527023441173848
sF0.17
F0.5269251699889808
sF0.07
F0.5276083337503201
ss.