(dp0
S'DTC'
p1
(dp2
F0.09
(I9015
F0.4856885709291815
tp3
sF0.05
(I9015
F0.4880968526490176
tp4
sF0.13
(I9015
F0.4626961729829756
tp5
sF0.11
(I9015
F0.4747401000028688
tp6
sF0.15
(I9015
F0.4482251502563822
tp7
sF0.03
(I9015
F0.489153020320143
tp8
sF0.17
(I9015
F0.45046770001665104
tp9
sF0.19
(I9015
F0.4373656979550945
tp10
sF0.07
(I9015
F0.4793732443004862
tp11
sF0.01
(I9015
F0.5029927500536344
tp12
ssS'RFC'
p13
(dp14
F0.09
(I9015
F0.5141629052700395
tp15
sF0.05
(I9015
F0.5131806705278004
tp16
sF0.13
(I9015
F0.515762003007973
tp17
sF0.11
(I9015
F0.5162095292925406
tp18
sF0.15
(I9015
F0.5152785122069854
tp19
sF0.03
(I9015
F0.5150938258613904
tp20
sF0.17
(I9015
F0.5135554777787419
tp21
sF0.19
(I9015
F0.5160040985698294
tp22
sF0.07
(I9015
F0.5147507819408569
tp23
sF0.01
(I9015
F0.5156796886236116
tp24
ssS'AG'
p25
I9015
s.