(dp0
S'DTC'
p1
(dp2
F0.5
(I3925
F0.6033121019108281
tp3
sF0.47
(I5151
F0.5661036691904484
tp4
sF0.44
(I6538
F0.5442031202202509
tp5
sF0.41
(I7337
F0.5316887011039935
tp6
sF0.38
(I8308
F0.5113143957631199
tp7
sF0.35
(I8998
F0.5058901978217382
tp8
sF0.59
(I1825
F0.6695890410958905
tp9
sF0.58
(I2353
F0.6587335316617084
tp10
sF0.52
(I3751
F0.5998400426552919
tp11
sF0.48
(I4598
F0.5826446280991735
tp12
sF0.45
(I5902
F0.5506607929515418
tp13
sF0.42
(I6860
F0.5422740524781341
tp14
sF0.53
(I3736
F0.6137580299785867
tp15
sF0.36
(I8790
F0.5018202502844141
tp16
sF0.54
(I2921
F0.6319753509072236
tp17
sF0.49
(I4565
F0.5971522453450164
tp18
sF0.57
(I2520
F0.6369047619047619
tp19
sF0.46
(I5755
F0.5584708948740226
tp20
sF0.43
(I6366
F0.5409990574929312
tp21
sF0.55
(I3188
F0.6176286072772899
tp22
sF0.4
(I7358
F0.5318021201413428
tp23
sF0.37
(I8217
F0.5104052573932092
tp24
sF0.39
(I7806
F0.5213937996413016
tp25
sF0.34
(I9015
F0.5038269550748752
tp26
sF0.51
(I3747
F0.6087536696023486
tp27
sF0.56
(I2663
F0.6357491550882464
tp28
ssS'RFC'
p29
(dp30
F0.5
(I3955
F0.6214917825537295
tp31
sF0.47
(I4880
F0.5950819672131148
tp32
sF0.44
(I5972
F0.5721701272605493
tp33
sF0.41
(I7050
F0.5483687943262411
tp34
sF0.38
(I8294
F0.5261634916807331
tp35
sF0.35
(I9013
F0.5153666925551981
tp36
sF0.59
(I1837
F0.6978769733260751
tp37
sF0.58
(I2018
F0.6843409316154608
tp38
sF0.52
(I3373
F0.640972428105544
tp39
sF0.48
(I4527
F0.6065827258670201
tp40
sF0.45
(I5661
F0.5783430489312842
tp41
sF0.42
(I6724
F0.5556216537775134
tp42
sF0.53
(I3108
F0.6512226512226512
tp43
sF0.36
(I8935
F0.5156127588136542
tp44
sF0.54
(I2872
F0.658774373259053
tp45
sF0.49
(I4238
F0.6130250117980179
tp46
sF0.57
(I2239
F0.6775346136668156
tp47
sF0.46
(I5261
F0.5879110435278464
tp48
sF0.43
(I6354
F0.56657223796034
tp49
sF0.55
(I2637
F0.6613576033371256
tp50
sF0.4
(I7421
F0.5418407222746261
tp51
sF0.37
(I8631
F0.5206812652068127
tp52
sF0.39
(I7859
F0.5336556813844
tp53
sF0.34
(I9015
F0.5151414309484194
tp54
sF0.51
(I3656
F0.6301969365426696
tp55
sF0.56
(I2449
F0.6696610861576153
tp56
ss.