(dp0
S'DTC'
p1
(dp2
F0.5
(I4337
F0.6230112981323496
tp3
sF0.47
(I5552
F0.5925792507204611
tp4
sF0.44
(I5764
F0.5862248438584317
tp5
sF0.41
(I6494
F0.5714505697566985
tp6
sF0.38
(I7969
F0.535700840757937
tp7
sF0.35
(I8882
F0.5220671020040532
tp8
sF0.59
(I2694
F0.676317743132888
tp9
sF0.64
(I1359
F0.7189109639440765
tp10
sF0.58
(I3198
F0.6610381488430269
tp11
sF0.52
(I3701
F0.6392866792758714
tp12
sF0.48
(I4777
F0.6120996441281139
tp13
sF0.45
(I5708
F0.5807638402242467
tp14
sF0.42
(I6180
F0.5742718446601942
tp15
sF0.53
(I3549
F0.6506058044519583
tp16
sF0.36
(I8442
F0.5220326936744847
tp17
sF0.61
(I2423
F0.6945934791580685
tp18
sF0.6
(I2387
F0.6937578550481777
tp19
sF0.54
(I3240
F0.6549382716049382
tp20
sF0.49
(I4409
F0.6248582444998866
tp21
sF0.57
(I3059
F0.6708074534161491
tp22
sF0.46
(I5392
F0.5936572700296736
tp23
sF0.43
(I6471
F0.5705455107402256
tp24
sF0.55
(I3325
F0.6622556390977443
tp25
sF0.4
(I6922
F0.5598093036694597
tp26
sF0.65
(I1793
F0.7255995538204127
tp27
sF0.37
(I8164
F0.5303772660460558
tp28
sF0.63
(I1658
F0.7231604342581424
tp29
sF0.39
(I7987
F0.5367472142231126
tp30
sF0.34
(I9015
F0.5189129229062673
tp31
sF0.62
(I1977
F0.7132018209408194
tp32
sF0.51
(I3909
F0.6369915579432079
tp33
sF0.56
(I3276
F0.6523199023199023
tp34
ssS'RFC'
p35
(dp36
F0.5
(I4165
F0.6494597839135654
tp37
sF0.47
(I4954
F0.6217198223657651
tp38
sF0.44
(I5874
F0.5983997276132108
tp39
sF0.41
(I6907
F0.5718835963515274
tp40
sF0.38
(I8058
F0.5446760982874163
tp41
sF0.35
(I8991
F0.5289734178623068
tp42
sF0.59
(I2262
F0.7122015915119363
tp43
sF0.64
(I1408
F0.7599431818181818
tp44
sF0.58
(I2418
F0.7076095947063689
tp45
sF0.52
(I3680
F0.6673913043478261
tp46
sF0.48
(I4702
F0.6284559761803488
tp47
sF0.45
(I5525
F0.6066968325791855
tp48
sF0.42
(I6566
F0.5788912579957356
tp49
sF0.53
(I3450
F0.6742028985507247
tp50
sF0.36
(I8800
F0.5332954545454546
tp51
sF0.61
(I1909
F0.7302252488213724
tp52
sF0.6
(I2085
F0.7189448441247003
tp53
sF0.54
(I3227
F0.6805082119615742
tp54
sF0.49
(I4414
F0.6404621658359765
tp55
sF0.57
(I2616
F0.706039755351682
tp56
sF0.46
(I5247
F0.6117781589479703
tp57
sF0.43
(I6221
F0.589294325671114
tp58
sF0.55
(I2992
F0.6885026737967914
tp59
sF0.4
(I7301
F0.5619778112587317
tp60
sF0.65
(I1263
F0.7640538400633412
tp61
sF0.37
(I8456
F0.5372516556291391
tp62
sF0.63
(I1555
F0.7485530546623794
tp63
sF0.39
(I7668
F0.5542514345331246
tp64
sF0.34
(I9015
F0.5285635052689961
tp65
sF0.62
(I1729
F0.7420474262579526
tp66
sF0.51
(I3919
F0.6570553712681807
tp67
sF0.56
(I2803
F0.6953264359614698
tp68
ssS'AG'
p69
I9015
s.