(dp0
S'array'
p1
(lp2
(S'Primer_League'
p3
VWest Ham
p4
VLeicester
p5
(lp6
V1
p7
aV2
p8
acnumpy.core.multiarray
scalar
p9
(cnumpy
dtype
p10
(S'i4'
p11
I0
I1
tp12
Rp13
(I3
S'<'
p14
NNNI-1
I-1
I0
tp15
bS'\x01\x00\x00\x00'
p16
tp17
Rp18
tp19
a(g3
g4
VBournemouth
p20
(lp21
V3
p22
aV4
p23
ag9
(g13
S'\x01\x00\x00\x00'
p24
tp25
Rp26
tp27
a(g3
g4
VNewcastle United
p28
(lp29
V2
p30
aV0
p31
ag9
(g13
S'\x01\x00\x00\x00'
p32
tp33
Rp34
tp35
a(g3
g4
VNorwich
p36
(lp37
V2
p38
aV2
p39
ag9
(g13
S'\x01\x00\x00\x00'
p40
tp41
Rp42
tp43
a(g3
g4
VChelsea
p44
(lp45
V2
p46
aV1
p47
ag9
(g13
S'\xff\xff\xff\xff'
p48
tp49
Rp50
tp51
a(g3
g4
VEverton
p52
(lp53
V1
p54
aV1
p55
ag9
(g13
S'\xff\xff\xff\xff'
p56
tp57
Rp58
tp59
a(g3
g4
VWest Bromwich Albion
p60
(lp61
V1
p62
aV1
p63
ag9
(g13
S'\x01\x00\x00\x00'
p64
tp65
Rp66
tp67
a(g3
g4
VStoke
p68
(lp69
V0
p70
aV0
p71
ag9
(g13
S'\x01\x00\x00\x00'
p72
tp73
Rp74
tp75
a(g3
g4
VSouthampton
p76
(lp77
V2
p78
aV1
p79
ag9
(g13
S'\x01\x00\x00\x00'
p80
tp81
Rp82
tp83
a(g3
g4
VLiverpool
p84
(lp85
V2
p86
aV0
p87
ag9
(g13
S'\x01\x00\x00\x00'
p88
tp89
Rp90
tp91
a(g3
g4
VManchester City
p92
(lp93
V2
p94
aV2
p95
ag9
(g13
S'\xff\xff\xff\xff'
p96
tp97
Rp98
tp99
a(g3
g4
VAston Villa
p100
(lp101
V2
p102
aV0
p103
ag9
(g13
S'\x01\x00\x00\x00'
p104
tp105
Rp106
tp107
a(g3
g4
VSunderland
p108
(lp109
V1
p110
aV0
p111
ag9
(g13
S'\x01\x00\x00\x00'
p112
tp113
Rp114
tp115
a(g3
g4
VTottenham
p116
(lp117
V1
p118
aV0
p119
ag9
(g13
S'\xff\xff\xff\xff'
p120
tp121
Rp122
tp123
a(g3
VTottenham
p124
VStoke
p125
(lp126
V2
p127
aV2
p128
ag9
(g13
S'\x01\x00\x00\x00'
p129
tp130
Rp131
tp132
a(g3
g124
VEverton
p133
(lp134
V0
p135
aV0
p136
ag9
(g13
S'\x01\x00\x00\x00'
p137
tp138
Rp139
tp140
a(g3
g124
VCrystal Palace
p141
(lp142
V1
p143
aV0
p144
ag9
(g13
S'\x01\x00\x00\x00'
p145
tp146
Rp147
tp148
a(g3
g124
VManchester City
p149
(lp150
V4
p151
aV1
p152
ag9
(g13
S'\x01\x00\x00\x00'
p153
tp154
Rp155
tp156
a(g3
g124
VLiverpool
p157
(lp158
V0
p159
aV0
p160
ag9
(g13
S'\x01\x00\x00\x00'
p161
tp162
Rp163
tp164
a(g3
g124
VAston Villa
p165
(lp166
V3
p167
aV1
p168
ag9
(g13
S'\x01\x00\x00\x00'
p169
tp170
Rp171
tp172
a(g3
g124
VWest Ham
p173
(lp174
V4
p175
aV1
p176
ag9
(g13
S'\x01\x00\x00\x00'
p177
tp178
Rp179
tp180
a(g3
g124
VChelsea
p181
(lp182
V0
p183
aV0
p184
ag9
(g13
S'\x01\x00\x00\x00'
p185
tp186
Rp187
tp188
a(g3
g124
VNewcastle United
p189
(lp190
V1
p191
aV2
p192
ag9
(g13
S'\x01\x00\x00\x00'
p193
tp194
Rp195
tp196
a(g3
g124
VNorwich
p197
(lp198
V3
p199
aV0
p200
ag9
(g13
S'\x01\x00\x00\x00'
p201
tp202
Rp203
tp204
a(g3
g124
VLeicester
p205
(lp206
V0
p207
aV1
p208
ag9
(g13
S'\x01\x00\x00\x00'
p209
tp210
Rp211
tp212
a(g3
g124
VSunderland
p213
(lp214
V4
p215
aV1
p216
ag9
(g13
S'\x01\x00\x00\x00'
p217
tp218
Rp219
tp220
a(g3
g124
VWatford
p221
(lp222
V1
p223
aV0
p224
ag9
(g13
S'\x01\x00\x00\x00'
p225
tp226
Rp227
tp228
a(g3
g124
VSwansea
p229
(lp230
V2
p231
aV1
p232
ag9
(g13
S'\x01\x00\x00\x00'
p233
tp234
Rp235
tp236
a(g3
g124
VArsenal
p237
(lp238
V2
p239
aV2
p240
ag9
(g13
S'\x01\x00\x00\x00'
p241
tp242
Rp243
tp244
a(g3
VSwansea
p245
VNewcastle United
p246
(lp247
V2
p248
aV0
p249
ag9
(g13
S'\x01\x00\x00\x00'
p250
tp251
Rp252
tp253
a(g3
g245
VManchester United
p254
(lp255
V2
p256
aV1
p257
ag9
(g13
S'\x01\x00\x00\x00'
p258
tp259
Rp260
tp261
a(g3
g245
VEverton
p262
(lp263
V0
p264
aV0
p265
ag9
(g13
S'\x01\x00\x00\x00'
p266
tp267
Rp268
tp269
a(g3
g245
VTottenham
p270
(lp271
V2
p272
aV2
p273
ag9
(g13
S'\xff\xff\xff\xff'
p274
tp275
Rp276
tp277
a(g3
g245
VStoke
p278
(lp279
V0
p280
aV1
p281
ag9
(g13
S'\x01\x00\x00\x00'
p282
tp283
Rp284
tp285
a(g3
g245
VArsenal
p286
(lp287
V0
p288
aV3
p289
ag9
(g13
S'\xff\xff\xff\xff'
p290
tp291
Rp292
tp293
a(g3
g245
VBournemouth
p294
(lp295
V2
p296
aV2
p297
ag9
(g13
S'\x01\x00\x00\x00'
p298
tp299
Rp300
tp301
a(g3
g245
VLeicester
p302
(lp303
V0
p304
aV3
p305
ag9
(g13
S'\x01\x00\x00\x00'
p306
tp307
Rp308
tp309
a(g3
g245
VWest Ham
p310
(lp311
V0
p312
aV0
p313
ag9
(g13
S'\x01\x00\x00\x00'
p314
tp315
Rp316
tp317
a(g3
g245
VWest Bromwich Albion
p318
(lp319
V1
p320
aV0
p321
ag9
(g13
S'\x01\x00\x00\x00'
p322
tp323
Rp324
tp325
a(g3
g245
VSunderland
p326
(lp327
V2
p328
aV4
p329
ag9
(g13
S'\x01\x00\x00\x00'
p330
tp331
Rp332
tp333
a(g3
g245
VWatford
p334
(lp335
V1
p336
aV0
p337
ag9
(g13
S'\x01\x00\x00\x00'
p338
tp339
Rp340
tp341
a(g3
g245
VCrystal Palace
p342
(lp343
V1
p344
aV1
p345
ag9
(g13
S'\x01\x00\x00\x00'
p346
tp347
Rp348
tp349
a(g3
g245
VSouthampton
p350
(lp351
V0
p352
aV1
p353
ag9
(g13
S'\x01\x00\x00\x00'
p354
tp355
Rp356
tp357
a(g3
g245
VNorwich
p358
(lp359
V1
p360
aV0
p361
ag9
(g13
S'\x01\x00\x00\x00'
p362
tp363
Rp364
tp365
a(g3
VStoke
p366
VLiverpool
p367
(lp368
V0
p369
aV1
p370
ag9
(g13
S'\xff\xff\xff\xff'
p371
tp372
Rp373
tp374
a(g3
g366
VWest Bromwich Albion
p375
(lp376
V0
p377
aV1
p378
ag9
(g13
S'\x01\x00\x00\x00'
p379
tp380
Rp381
tp382
a(g3
g366
VLeicester
p383
(lp384
V2
p385
aV2
p386
ag9
(g13
S'\x01\x00\x00\x00'
p387
tp388
Rp389
tp390
a(g3
g366
VBournemouth
p391
(lp392
V2
p393
aV1
p394
ag9
(g13
S'\x01\x00\x00\x00'
p395
tp396
Rp397
tp398
a(g3
g366
VWatford
p399
(lp400
V0
p401
aV2
p402
ag9
(g13
S'\x01\x00\x00\x00'
p403
tp404
Rp405
tp406
a(g3
g366
VChelsea
p407
(lp408
V1
p409
aV0
p410
ag9
(g13
S'\xff\xff\xff\xff'
p411
tp412
Rp413
tp414
a(g3
g366
VManchester City
p415
(lp416
V2
p417
aV0
p418
ag9
(g13
S'\xff\xff\xff\xff'
p419
tp420
Rp421
tp422
a(g3
g366
VCrystal Palace
p423
(lp424
V1
p425
aV2
p426
ag9
(g13
S'\x01\x00\x00\x00'
p427
tp428
Rp429
tp430
a(g3
g366
VManchester United
p431
(lp432
V2
p433
aV0
p434
ag9
(g13
S'\xff\xff\xff\xff'
p435
tp436
Rp437
tp438
a(g3
g366
VNorwich
p439
(lp440
V3
p441
aV1
p442
ag9
(g13
S'\x01\x00\x00\x00'
p443
tp444
Rp445
tp446
a(g3
g366
VArsenal
p447
(lp448
V0
p449
aV0
p450
ag9
(g13
S'\xff\xff\xff\xff'
p451
tp452
Rp453
tp454
a(g3
g366
VEverton
p455
(lp456
V0
p457
aV3
p458
ag9
(g13
S'\xff\xff\xff\xff'
p459
tp460
Rp461
tp462
a(g3
g366
VAston Villa
p463
(lp464
V2
p465
aV1
p466
ag9
(g13
S'\x01\x00\x00\x00'
p467
tp468
Rp469
tp470
a(g3
g366
VNewcastle United
p471
(lp472
V1
p473
aV0
p474
ag9
(g13
S'\x01\x00\x00\x00'
p475
tp476
Rp477
tp478
a(g3
g366
VSouthampton
p479
(lp480
V1
p481
aV2
p482
ag9
(g13
S'\x01\x00\x00\x00'
p483
tp484
Rp485
tp486
a(g3
VBournemouth
p487
VLeicester
p488
(lp489
V1
p490
aV1
p491
ag9
(g13
S'\x01\x00\x00\x00'
p492
tp493
Rp494
tp495
a(g3
g487
VSunderland
p496
(lp497
V2
p498
aV0
p499
ag9
(g13
S'\x01\x00\x00\x00'
p500
tp501
Rp502
tp503
a(g3
g487
VWatford
p504
(lp505
V1
p506
aV1
p507
ag9
(g13
S'\x01\x00\x00\x00'
p508
tp509
Rp510
tp511
a(g3
g487
VTottenham
p512
(lp513
V1
p514
aV5
p515
ag9
(g13
S'\x01\x00\x00\x00'
p516
tp517
Rp518
tp519
a(g3
g487
VNewcastle United
p520
(lp521
V0
p522
aV1
p523
ag9
(g13
S'\x01\x00\x00\x00'
p524
tp525
Rp526
tp527
a(g3
g487
VEverton
p528
(lp529
V3
p530
aV3
p531
ag9
(g13
S'\x01\x00\x00\x00'
p532
tp533
Rp534
tp535
a(g3
g487
VManchester United
p536
(lp537
V2
p538
aV1
p539
ag9
(g13
S'\xff\xff\xff\xff'
p540
tp541
Rp542
tp543
a(g3
g487
VCrystal Palace
p544
(lp545
V0
p546
aV0
p547
ag9
(g13
S'\x01\x00\x00\x00'
p548
tp549
Rp550
tp551
a(g3
g487
VWest Ham
p552
(lp553
V1
p554
aV3
p555
ag9
(g13
S'\x01\x00\x00\x00'
p556
tp557
Rp558
tp559
a(g3
g487
VNorwich
p560
(lp561
V3
p562
aV0
p563
ag9
(g13
S'\x01\x00\x00\x00'
p564
tp565
Rp566
tp567
a(g3
g487
VArsenal
p568
(lp569
V0
p570
aV2
p571
ag9
(g13
S'\xff\xff\xff\xff'
p572
tp573
Rp574
tp575
a(g3
g487
VStoke
p576
(lp577
V1
p578
aV3
p579
ag9
(g13
S'\x01\x00\x00\x00'
p580
tp581
Rp582
tp583
a(g3
g487
VSouthampton
p584
(lp585
V2
p586
aV0
p587
ag9
(g13
S'\x01\x00\x00\x00'
p588
tp589
Rp590
tp591
a(g3
g487
VSwansea
p592
(lp593
V3
p594
aV2
p595
ag9
(g13
S'\x01\x00\x00\x00'
p596
tp597
Rp598
tp599
a(g3
VManchester City
p600
VChelsea
p601
(lp602
V3
p603
aV0
p604
ag9
(g13
S'\x01\x00\x00\x00'
p605
tp606
Rp607
tp608
a(g3
g600
VWatford
p609
(lp610
V2
p611
aV0
p612
ag9
(g13
S'\x01\x00\x00\x00'
p613
tp614
Rp615
tp616
a(g3
g600
VWest Ham
p617
(lp618
V1
p619
aV2
p620
ag9
(g13
S'\x01\x00\x00\x00'
p621
tp622
Rp623
tp624
a(g3
g600
VNewcastle United
p625
(lp626
V6
p627
aV1
p628
ag9
(g13
S'\x01\x00\x00\x00'
p629
tp630
Rp631
tp632
a(g3
g600
VBournemouth
p633
(lp634
V5
p635
aV1
p636
ag9
(g13
S'\x01\x00\x00\x00'
p637
tp638
Rp639
tp640
a(g3
g600
VNorwich
p641
(lp642
V2
p643
aV1
p644
ag9
(g13
S'\x01\x00\x00\x00'
p645
tp646
Rp647
tp648
a(g3
g600
VLiverpool
p649
(lp650
V1
p651
aV4
p652
ag9
(g13
S'\x01\x00\x00\x00'
p653
tp654
Rp655
tp656
a(g3
g600
VSouthampton
p657
(lp658
V3
p659
aV1
p660
ag9
(g13
S'\x01\x00\x00\x00'
p661
tp662
Rp663
tp664
a(g3
g600
VSwansea
p665
(lp666
V2
p667
aV1
p668
ag9
(g13
S'\x01\x00\x00\x00'
p669
tp670
Rp671
tp672
a(g3
g600
VSunderland
p673
(lp674
V4
p675
aV1
p676
ag9
(g13
S'\x01\x00\x00\x00'
p677
tp678
Rp679
tp680
a(g3
g600
VEverton
p681
(lp682
V0
p683
aV0
p684
ag9
(g13
S'\x01\x00\x00\x00'
p685
tp686
Rp687
tp688
a(g3
g600
VCrystal Palace
p689
(lp690
V4
p691
aV0
p692
ag9
(g13
S'\x01\x00\x00\x00'
p693
tp694
Rp695
tp696
a(g3
g600
VLeicester
p697
(lp698
V1
p699
aV3
p700
ag9
(g13
S'\x01\x00\x00\x00'
p701
tp702
Rp703
tp704
a(g3
g600
VTottenham
p705
(lp706
V1
p707
aV2
p708
ag9
(g13
S'\x01\x00\x00\x00'
p709
tp710
Rp711
tp712
a(g3
g600
VAston Villa
p713
(lp714
V4
p715
aV0
p716
ag9
(g13
S'\x01\x00\x00\x00'
p717
tp718
Rp719
tp720
a(g3
VSunderland
p721
VNorwich
p722
(lp723
V1
p724
aV3
p725
ag9
(g13
S'\x01\x00\x00\x00'
p726
tp727
Rp728
tp729
a(g3
g721
VSwansea
p730
(lp731
V1
p732
aV1
p733
ag9
(g13
S'\xff\xff\xff\xff'
p734
tp735
Rp736
tp737
a(g3
g721
VTottenham
p738
(lp739
V0
p740
aV1
p741
ag9
(g13
S'\xff\xff\xff\xff'
p742
tp743
Rp744
tp745
a(g3
g721
VWest Ham
p746
(lp747
V2
p748
aV2
p749
ag9
(g13
S'\xff\xff\xff\xff'
p750
tp751
Rp752
tp753
a(g3
g721
VNewcastle United
p754
(lp755
V3
p756
aV0
p757
ag9
(g13
S'\x01\x00\x00\x00'
p758
tp759
Rp760
tp761
a(g3
g721
VSouthampton
p762
(lp763
V0
p764
aV1
p765
ag9
(g13
S'\xff\xff\xff\xff'
p766
tp767
Rp768
tp769
a(g3
g721
VStoke
p770
(lp771
V2
p772
aV0
p773
ag9
(g13
S'\x01\x00\x00\x00'
p774
tp775
Rp776
tp777
a(g3
g721
VWatford
p778
(lp779
V0
p780
aV1
p781
ag9
(g13
S'\x01\x00\x00\x00'
p782
tp783
Rp784
tp785
a(g3
g721
VLiverpool
p786
(lp787
V0
p788
aV1
p789
ag9
(g13
S'\xff\xff\xff\xff'
p790
tp791
Rp792
tp793
a(g3
g721
VAston Villa
p794
(lp795
V3
p796
aV1
p797
ag9
(g13
S'\x01\x00\x00\x00'
p798
tp799
Rp800
tp801
a(g3
g721
VBournemouth
p802
(lp803
V1
p804
aV1
p805
ag9
(g13
S'\x01\x00\x00\x00'
p806
tp807
Rp808
tp809
a(g3
g721
VManchester City
p810
(lp811
V0
p812
aV1
p813
ag9
(g13
S'\xff\xff\xff\xff'
p814
tp815
Rp816
tp817
a(g3
g721
VManchester United
p818
(lp819
V2
p820
aV1
p821
ag9
(g13
S'\xff\xff\xff\xff'
p822
tp823
Rp824
tp825
a(g3
g721
VCrystal Palace
p826
(lp827
V2
p828
aV2
p829
ag9
(g13
S'\x01\x00\x00\x00'
p830
tp831
Rp832
tp833
a(g3
VAston Villa
p834
VManchester United
p835
(lp836
V0
p837
aV1
p838
ag9
(g13
S'\xff\xff\xff\xff'
p839
tp840
Rp841
tp842
a(g3
g834
VSunderland
p843
(lp844
V2
p845
aV2
p846
ag9
(g13
S'\x01\x00\x00\x00'
p847
tp848
Rp849
tp850
a(g3
g834
VWest Bromwich Albion
p851
(lp852
V0
p853
aV1
p854
ag9
(g13
S'\x01\x00\x00\x00'
p855
tp856
Rp857
tp858
a(g3
g834
VStoke
p859
(lp860
V0
p861
aV1
p862
ag9
(g13
S'\x01\x00\x00\x00'
p863
tp864
Rp865
tp866
a(g3
g834
VSwansea
p867
(lp868
V1
p869
aV2
p870
ag9
(g13
S'\x01\x00\x00\x00'
p871
tp872
Rp873
tp874
a(g3
g834
VManchester City
p875
(lp876
V0
p877
aV0
p878
ag9
(g13
S'\xff\xff\xff\xff'
p879
tp880
Rp881
tp882
a(g3
g834
VWatford
p883
(lp884
V2
p885
aV3
p886
ag9
(g13
S'\x01\x00\x00\x00'
p887
tp888
Rp889
tp890
a(g3
g834
VArsenal
p891
(lp892
V0
p893
aV2
p894
ag9
(g13
S'\xff\xff\xff\xff'
p895
tp896
Rp897
tp898
a(g3
g834
VWest Ham
p899
(lp900
V1
p901
aV1
p902
ag9
(g13
S'\x01\x00\x00\x00'
p903
tp904
Rp905
tp906
a(g3
g834
VCrystal Palace
p907
(lp908
V1
p909
aV0
p910
ag9
(g13
S'\x01\x00\x00\x00'
p911
tp912
Rp913
tp914
a(g3
g834
VLeicester
p915
(lp916
V1
p917
aV1
p918
ag9
(g13
S'\x01\x00\x00\x00'
p919
tp920
Rp921
tp922
a(g3
g834
VNorwich
p923
(lp924
V2
p925
aV0
p926
ag9
(g13
S'\x01\x00\x00\x00'
p927
tp928
Rp929
tp930
a(g3
g834
VLiverpool
p931
(lp932
V0
p933
aV6
p934
ag9
(g13
S'\xff\xff\xff\xff'
p935
tp936
Rp937
tp938
a(g3
g834
VEverton
p939
(lp940
V1
p941
aV3
p942
ag9
(g13
S'\x01\x00\x00\x00'
p943
tp944
Rp945
tp946
a(g3
g834
VTottenham
p947
(lp948
V0
p949
aV2
p950
ag9
(g13
S'\xff\xff\xff\xff'
p951
tp952
Rp953
tp954
a(g3
VManchester United
p955
VTottenham
p956
(lp957
V1
p958
aV0
p959
ag9
(g13
S'\xff\xff\xff\xff'
p960
tp961
Rp962
tp963
a(g3
g955
VNewcastle United
p964
(lp965
V0
p966
aV0
p967
ag9
(g13
S'\x01\x00\x00\x00'
p968
tp969
Rp970
tp971
a(g3
g955
VLiverpool
p972
(lp973
V3
p974
aV1
p975
ag9
(g13
S'\x01\x00\x00\x00'
p976
tp977
Rp978
tp979
a(g3
g955
VSunderland
p980
(lp981
V3
p982
aV0
p983
ag9
(g13
S'\x01\x00\x00\x00'
p984
tp985
Rp986
tp987
a(g3
g955
VManchester City
p988
(lp989
V0
p990
aV0
p991
ag9
(g13
S'\x01\x00\x00\x00'
p992
tp993
Rp994
tp995
a(g3
g955
VWest Bromwich Albion
p996
(lp997
V2
p998
aV0
p999
ag9
(g13
S'\x01\x00\x00\x00'
p1000
tp1001
Rp1002
tp1003
a(g3
g955
VWest Ham
p1004
(lp1005
V0
p1006
aV0
p1007
ag9
(g13
S'\x01\x00\x00\x00'
p1008
tp1009
Rp1010
tp1011
a(g3
g955
VNorwich
p1012
(lp1013
V1
p1014
aV2
p1015
ag9
(g13
S'\x01\x00\x00\x00'
p1016
tp1017
Rp1018
tp1019
a(g3
g955
VChelsea
p1020
(lp1021
V0
p1022
aV0
p1023
ag9
(g13
S'\x01\x00\x00\x00'
p1024
tp1025
Rp1026
tp1027
a(g3
g955
VSwansea
p1028
(lp1029
V2
p1030
aV1
p1031
ag9
(g13
S'\x01\x00\x00\x00'
p1032
tp1033
Rp1034
tp1035
a(g3
g955
VSouthampton
p1036
(lp1037
V0
p1038
aV1
p1039
ag9
(g13
S'\x01\x00\x00\x00'
p1040
tp1041
Rp1042
tp1043
a(g3
g955
VStoke
p1044
(lp1045
V3
p1046
aV0
p1047
ag9
(g13
S'\x01\x00\x00\x00'
p1048
tp1049
Rp1050
tp1051
a(g3
g955
VArsenal
p1052
(lp1053
V3
p1054
aV2
p1055
ag9
(g13
S'\x01\x00\x00\x00'
p1056
tp1057
Rp1058
tp1059
a(g3
g955
VWatford
p1060
(lp1061
V1
p1062
aV0
p1063
ag9
(g13
S'\x01\x00\x00\x00'
p1064
tp1065
Rp1066
tp1067
a(g3
VLiverpool
p1068
VBournemouth
p1069
(lp1070
V1
p1071
aV0
p1072
ag9
(g13
S'\x01\x00\x00\x00'
p1073
tp1074
Rp1075
tp1076
a(g3
g1068
VWest Ham
p1077
(lp1078
V0
p1079
aV3
p1080
ag9
(g13
S'\x01\x00\x00\x00'
p1081
tp1082
Rp1083
tp1084
a(g3
g1068
VNorwich
p1085
(lp1086
V1
p1087
aV1
p1088
ag9
(g13
S'\x01\x00\x00\x00'
p1089
tp1090
Rp1091
tp1092
a(g3
g1068
VAston Villa
p1093
(lp1094
V3
p1095
aV2
p1096
ag9
(g13
S'\x01\x00\x00\x00'
p1097
tp1098
Rp1099
tp1100
a(g3
g1068
VSouthampton
p1101
(lp1102
V1
p1103
aV1
p1104
ag9
(g13
S'\x01\x00\x00\x00'
p1105
tp1106
Rp1107
tp1108
a(g3
g1068
VCrystal Palace
p1109
(lp1110
V1
p1111
aV2
p1112
ag9
(g13
S'\x01\x00\x00\x00'
p1113
tp1114
Rp1115
tp1116
a(g3
g1068
VSwansea
p1117
(lp1118
V1
p1119
aV0
p1120
ag9
(g13
S'\x01\x00\x00\x00'
p1121
tp1122
Rp1123
tp1124
a(g3
g1068
VWest Bromwich Albion
p1125
(lp1126
V2
p1127
aV2
p1128
ag9
(g13
S'\x01\x00\x00\x00'
p1129
tp1130
Rp1131
tp1132
a(g3
g1068
VLeicester
p1133
(lp1134
V1
p1135
aV0
p1136
ag9
(g13
S'\x01\x00\x00\x00'
p1137
tp1138
Rp1139
tp1140
a(g3
g1068
VArsenal
p1141
(lp1142
V3
p1143
aV3
p1144
ag9
(g13
S'\x01\x00\x00\x00'
p1145
tp1146
Rp1147
tp1148
a(g3
g1068
VManchester United
p1149
(lp1150
V0
p1151
aV1
p1152
ag9
(g13
S'\x01\x00\x00\x00'
p1153
tp1154
Rp1155
tp1156
a(g3
g1068
VSunderland
p1157
(lp1158
V2
p1159
aV2
p1160
ag9
(g13
S'\x01\x00\x00\x00'
p1161
tp1162
Rp1163
tp1164
a(g3
g1068
VManchester City
p1165
(lp1166
V3
p1167
aV0
p1168
ag9
(g13
S'\x01\x00\x00\x00'
p1169
tp1170
Rp1171
tp1172
a(g3
VWatford
p1173
VWest Bromwich Albion
p1174
(lp1175
V0
p1176
aV0
p1177
ag9
(g13
S'\x01\x00\x00\x00'
p1178
tp1179
Rp1180
tp1181
a(g3
g1173
VSouthampton
p1182
(lp1183
V0
p1184
aV0
p1185
ag9
(g13
S'\x01\x00\x00\x00'
p1186
tp1187
Rp1188
tp1189
a(g3
g1173
VSwansea
p1190
(lp1191
V1
p1192
aV0
p1193
ag9
(g13
S'\x01\x00\x00\x00'
p1194
tp1195
Rp1196
tp1197
a(g3
g1173
VCrystal Palace
p1198
(lp1199
V0
p1200
aV1
p1201
ag9
(g13
S'\x01\x00\x00\x00'
p1202
tp1203
Rp1204
tp1205
a(g3
g1173
VArsenal
p1206
(lp1207
V0
p1208
aV3
p1209
ag9
(g13
S'\xff\xff\xff\xff'
p1210
tp1211
Rp1212
tp1213
a(g3
g1173
VWest Ham
p1214
(lp1215
V2
p1216
aV0
p1217
ag9
(g13
S'\xff\xff\xff\xff'
p1218
tp1219
Rp1220
tp1221
a(g3
g1173
VManchester United
p1222
(lp1223
V1
p1224
aV2
p1225
ag9
(g13
S'\xff\xff\xff\xff'
p1226
tp1227
Rp1228
tp1229
a(g3
g1173
VNorwich
p1230
(lp1231
V2
p1232
aV0
p1233
ag9
(g13
S'\x01\x00\x00\x00'
p1234
tp1235
Rp1236
tp1237
a(g3
g1173
VLiverpool
p1238
(lp1239
V3
p1240
aV0
p1241
ag9
(g13
S'\xff\xff\xff\xff'
p1242
tp1243
Rp1244
tp1245
a(g3
g1173
VTottenham
p1246
(lp1247
V1
p1248
aV2
p1249
ag9
(g13
S'\xff\xff\xff\xff'
p1250
tp1251
Rp1252
tp1253
a(g3
g1173
VManchester City
p1254
(lp1255
V1
p1256
aV2
p1257
ag9
(g13
S'\xff\xff\xff\xff'
p1258
tp1259
Rp1260
tp1261
a(g3
g1173
VNewcastle United
p1262
(lp1263
V2
p1264
aV1
p1265
ag9
(g13
S'\x01\x00\x00\x00'
p1266
tp1267
Rp1268
tp1269
a(g3
g1173
VChelsea
p1270
(lp1271
V0
p1272
aV0
p1273
ag9
(g13
S'\xff\xff\xff\xff'
p1274
tp1275
Rp1276
tp1277
a(g3
g1173
VBournemouth
p1278
(lp1279
V0
p1280
aV0
p1281
ag9
(g13
S'\xff\xff\xff\xff'
p1282
tp1283
Rp1284
tp1285
a(g3
g1173
VLeicester
p1286
(lp1287
V0
p1288
aV1
p1289
ag9
(g13
S'\x01\x00\x00\x00'
p1290
tp1291
Rp1292
tp1293
a(g3
VLeicester
p1294
VSunderland
p1295
(lp1296
V4
p1297
aV2
p1298
ag9
(g13
S'\x01\x00\x00\x00'
p1299
tp1300
Rp1301
tp1302
a(g3
g1294
VTottenham
p1303
(lp1304
V1
p1305
aV1
p1306
ag9
(g13
S'\x01\x00\x00\x00'
p1307
tp1308
Rp1309
tp1310
a(g3
g1294
VAston Villa
p1311
(lp1312
V3
p1313
aV2
p1314
ag9
(g13
S'\x01\x00\x00\x00'
p1315
tp1316
Rp1317
tp1318
a(g3
g1294
VArsenal
p1319
(lp1320
V2
p1321
aV5
p1322
ag9
(g13
S'\x01\x00\x00\x00'
p1323
tp1324
Rp1325
tp1326
a(g3
g1294
VCrystal Palace
p1327
(lp1328
V1
p1329
aV0
p1330
ag9
(g13
S'\x01\x00\x00\x00'
p1331
tp1332
Rp1333
tp1334
a(g3
g1294
VWatford
p1335
(lp1336
V2
p1337
aV1
p1338
ag9
(g13
S'\x01\x00\x00\x00'
p1339
tp1340
Rp1341
tp1342
a(g3
g1294
VManchester United
p1343
(lp1344
V1
p1345
aV1
p1346
ag9
(g13
S'\xff\xff\xff\xff'
p1347
tp1348
Rp1349
tp1350
a(g3
g1294
VChelsea
p1351
(lp1352
V2
p1353
aV1
p1354
ag9
(g13
S'\xff\xff\xff\xff'
p1355
tp1356
Rp1357
tp1358
a(g3
g1294
VManchester City
p1359
(lp1360
V0
p1361
aV0
p1362
ag9
(g13
S'\xff\xff\xff\xff'
p1363
tp1364
Rp1365
tp1366
a(g3
g1294
VBournemouth
p1367
(lp1368
V0
p1369
aV0
p1370
ag9
(g13
S'\xff\xff\xff\xff'
p1371
tp1372
Rp1373
tp1374
a(g3
g1294
VStoke
p1375
(lp1376
V3
p1377
aV0
p1378
ag9
(g13
S'\xff\xff\xff\xff'
p1379
tp1380
Rp1381
tp1382
a(g3
g1294
VLiverpool
p1383
(lp1384
V2
p1385
aV0
p1386
ag9
(g13
S'\xff\xff\xff\xff'
p1387
tp1388
Rp1389
tp1390
a(g3
g1294
VNorwich
p1391
(lp1392
V1
p1393
aV0
p1394
ag9
(g13
S'\x01\x00\x00\x00'
p1395
tp1396
Rp1397
tp1398
a(g3
g1294
VWest Bromwich Albion
p1399
(lp1400
V2
p1401
aV2
p1402
ag9
(g13
S'\x01\x00\x00\x00'
p1403
tp1404
Rp1405
tp1406
a(g3
g1294
VNewcastle United
p1407
(lp1408
V1
p1409
aV0
p1410
ag9
(g13
S'\x01\x00\x00\x00'
p1411
tp1412
Rp1413
tp1414
a(g3
VCrystal Palace
p1415
VArsenal
p1416
(lp1417
V1
p1418
aV2
p1419
ag9
(g13
S'\xff\xff\xff\xff'
p1420
tp1421
Rp1422
tp1423
a(g3
g1415
VAston Villa
p1424
(lp1425
V2
p1426
aV1
p1427
ag9
(g13
S'\x01\x00\x00\x00'
p1428
tp1429
Rp1430
tp1431
a(g3
g1415
VManchester City
p1432
(lp1433
V0
p1434
aV1
p1435
ag9
(g13
S'\xff\xff\xff\xff'
p1436
tp1437
Rp1438
tp1439
a(g3
g1415
VWest Bromwich Albion
p1440
(lp1441
V2
p1442
aV0
p1443
ag9
(g13
S'\x01\x00\x00\x00'
p1444
tp1445
Rp1446
tp1447
a(g3
g1415
VWest Ham
p1448
(lp1449
V1
p1450
aV3
p1451
ag9
(g13
S'\xff\xff\xff\xff'
p1452
tp1453
Rp1454
tp1455
a(g3
g1415
VManchester United
p1456
(lp1457
V0
p1458
aV0
p1459
ag9
(g13
S'\xff\xff\xff\xff'
p1460
tp1461
Rp1462
tp1463
a(g3
g1415
VSunderland
p1464
(lp1465
V0
p1466
aV1
p1467
ag9
(g13
S'\x01\x00\x00\x00'
p1468
tp1469
Rp1470
tp1471
a(g3
g1415
VNewcastle United
p1472
(lp1473
V5
p1474
aV1
p1475
ag9
(g13
S'\x01\x00\x00\x00'
p1476
tp1477
Rp1478
tp1479
a(g3
g1415
VSouthampton
p1480
(lp1481
V1
p1482
aV0
p1483
ag9
(g13
S'\x01\x00\x00\x00'
p1484
tp1485
Rp1486
tp1487
a(g3
g1415
VSwansea
p1488
(lp1489
V0
p1490
aV0
p1491
ag9
(g13
S'\x01\x00\x00\x00'
p1492
tp1493
Rp1494
tp1495
a(g3
g1415
VChelsea
p1496
(lp1497
V0
p1498
aV3
p1499
ag9
(g13
S'\x01\x00\x00\x00'
p1500
tp1501
Rp1502
tp1503
a(g3
g1415
VTottenham
p1504
(lp1505
V1
p1506
aV3
p1507
ag9
(g13
S'\x01\x00\x00\x00'
p1508
tp1509
Rp1510
tp1511
a(g3
g1415
VBournemouth
p1512
(lp1513
V1
p1514
aV2
p1515
ag9
(g13
S'\x01\x00\x00\x00'
p1516
tp1517
Rp1518
tp1519
a(g3
g1415
VWatford
p1520
(lp1521
V1
p1522
aV2
p1523
ag9
(g13
S'\x01\x00\x00\x00'
p1524
tp1525
Rp1526
tp1527
a(g3
g1415
VLiverpool
p1528
(lp1529
V1
p1530
aV2
p1531
ag9
(g13
S'\x01\x00\x00\x00'
p1532
tp1533
Rp1534
tp1535
a(g3
VWest Bromwich Albion
p1536
VManchester City
p1537
(lp1538
V0
p1539
aV3
p1540
ag9
(g13
S'\xff\xff\xff\xff'
p1541
tp1542
Rp1543
tp1544
a(g3
g1536
VChelsea
p1545
(lp1546
V2
p1547
aV3
p1548
ag9
(g13
S'\x01\x00\x00\x00'
p1549
tp1550
Rp1551
tp1552
a(g3
g1536
VSouthampton
p1553
(lp1554
V0
p1555
aV0
p1556
ag9
(g13
S'\x01\x00\x00\x00'
p1557
tp1558
Rp1559
tp1560
a(g3
g1536
VEverton
p1561
(lp1562
V2
p1563
aV3
p1564
ag9
(g13
S'\x01\x00\x00\x00'
p1565
tp1566
Rp1567
tp1568
a(g3
g1536
VSunderland
p1569
(lp1570
V1
p1571
aV0
p1572
ag9
(g13
S'\x01\x00\x00\x00'
p1573
tp1574
Rp1575
tp1576
a(g3
g1536
VLeicester
p1577
(lp1578
V2
p1579
aV3
p1580
ag9
(g13
S'\x01\x00\x00\x00'
p1581
tp1582
Rp1583
tp1584
a(g3
g1536
VArsenal
p1585
(lp1586
V2
p1587
aV1
p1588
ag9
(g13
S'\x01\x00\x00\x00'
p1589
tp1590
Rp1591
tp1592
a(g3
g1536
VBournemouth
p1593
(lp1594
V1
p1595
aV2
p1596
ag9
(g13
S'\x01\x00\x00\x00'
p1597
tp1598
Rp1599
tp1600
a(g3
g1536
VNewcastle United
p1601
(lp1602
V1
p1603
aV0
p1604
ag9
(g13
S'\x01\x00\x00\x00'
p1605
tp1606
Rp1607
tp1608
a(g3
g1536
VStoke
p1609
(lp1610
V2
p1611
aV1
p1612
ag9
(g13
S'\x01\x00\x00\x00'
p1613
tp1614
Rp1615
tp1616
a(g3
g1536
VAston Villa
p1617
(lp1618
V0
p1619
aV0
p1620
ag9
(g13
S'\xff\xff\xff\xff'
p1621
tp1622
Rp1623
tp1624
a(g3
g1536
VSwansea
p1625
(lp1626
V1
p1627
aV1
p1628
ag9
(g13
S'\x01\x00\x00\x00'
p1629
tp1630
Rp1631
tp1632
a(g3
g1536
VCrystal Palace
p1633
(lp1634
V3
p1635
aV2
p1636
ag9
(g13
S'\x01\x00\x00\x00'
p1637
tp1638
Rp1639
tp1640
a(g3
g1536
VManchester United
p1641
(lp1642
V1
p1643
aV0
p1644
ag9
(g13
S'\xff\xff\xff\xff'
p1645
tp1646
Rp1647
tp1648
a(g3
VSouthampton
p1649
VEverton
p1650
(lp1651
V0
p1652
aV3
p1653
ag9
(g13
S'\xff\xff\xff\xff'
p1654
tp1655
Rp1656
tp1657
a(g3
g1649
VNorwich
p1658
(lp1659
V3
p1660
aV0
p1661
ag9
(g13
S'\x01\x00\x00\x00'
p1662
tp1663
Rp1664
tp1665
a(g3
g1649
VManchester United
p1666
(lp1667
V2
p1668
aV3
p1669
ag9
(g13
S'\x01\x00\x00\x00'
p1670
tp1671
Rp1672
tp1673
a(g3
g1649
VSwansea
p1674
(lp1675
V3
p1676
aV1
p1677
ag9
(g13
S'\x01\x00\x00\x00'
p1678
tp1679
Rp1680
tp1681
a(g3
g1649
VLeicester
p1682
(lp1683
V2
p1684
aV2
p1685
ag9
(g13
S'\x01\x00\x00\x00'
p1686
tp1687
Rp1688
tp1689
a(g3
g1649
VBournemouth
p1690
(lp1691
V2
p1692
aV0
p1693
ag9
(g13
S'\x01\x00\x00\x00'
p1694
tp1695
Rp1696
tp1697
a(g3
g1649
VStoke
p1698
(lp1699
V0
p1700
aV1
p1701
ag9
(g13
S'\x01\x00\x00\x00'
p1702
tp1703
Rp1704
tp1705
a(g3
g1649
VAston Villa
p1706
(lp1707
V1
p1708
aV1
p1709
ag9
(g13
S'\x01\x00\x00\x00'
p1710
tp1711
Rp1712
tp1713
a(g3
g1649
VTottenham
p1714
(lp1715
V0
p1716
aV2
p1717
ag9
(g13
S'\x01\x00\x00\x00'
p1718
tp1719
Rp1720
tp1721
a(g3
g1649
VArsenal
p1722
(lp1723
V4
p1724
aV0
p1725
ag9
(g13
S'\x01\x00\x00\x00'
p1726
tp1727
Rp1728
tp1729
a(g3
g1649
VWatford
p1730
(lp1731
V2
p1732
aV0
p1733
ag9
(g13
S'\x01\x00\x00\x00'
p1734
tp1735
Rp1736
tp1737
a(g3
g1649
VWest Bromwich Albion
p1738
(lp1739
V3
p1740
aV0
p1741
ag9
(g13
S'\x01\x00\x00\x00'
p1742
tp1743
Rp1744
tp1745
a(g3
g1649
VWest Ham
p1746
(lp1747
V1
p1748
aV0
p1749
ag9
(g13
S'\x01\x00\x00\x00'
p1750
tp1751
Rp1752
tp1753
a(g3
g1649
VChelsea
p1754
(lp1755
V1
p1756
aV2
p1757
ag9
(g13
S'\x01\x00\x00\x00'
p1758
tp1759
Rp1760
tp1761
a(g3
g1649
VSunderland
p1762
(lp1763
V1
p1764
aV1
p1765
ag9
(g13
S'\x01\x00\x00\x00'
p1766
tp1767
Rp1768
tp1769
a(g3
VNewcastle United
p1770
VSouthampton
p1771
(lp1772
V2
p1773
aV2
p1774
ag9
(g13
S'\x01\x00\x00\x00'
p1775
tp1776
Rp1777
tp1778
a(g3
g1770
VArsenal
p1779
(lp1780
V0
p1781
aV1
p1782
ag9
(g13
S'\xff\xff\xff\xff'
p1783
tp1784
Rp1785
tp1786
a(g3
g1770
VWatford
p1787
(lp1788
V1
p1789
aV2
p1790
ag9
(g13
S'\x01\x00\x00\x00'
p1791
tp1792
Rp1793
tp1794
a(g3
g1770
VChelsea
p1795
(lp1796
V2
p1797
aV2
p1798
ag9
(g13
S'\xff\xff\xff\xff'
p1799
tp1800
Rp1801
tp1802
a(g3
g1770
VNorwich
p1803
(lp1804
V6
p1805
aV2
p1806
ag9
(g13
S'\xff\xff\xff\xff'
p1807
tp1808
Rp1809
tp1810
a(g3
g1770
VStoke
p1811
(lp1812
V0
p1813
aV0
p1814
ag9
(g13
S'\xff\xff\xff\xff'
p1815
tp1816
Rp1817
tp1818
a(g3
g1770
VLeicester
p1819
(lp1820
V0
p1821
aV3
p1822
ag9
(g13
S'\x01\x00\x00\x00'
p1823
tp1824
Rp1825
tp1826
a(g3
g1770
VLiverpool
p1827
(lp1828
V2
p1829
aV0
p1830
ag9
(g13
S'\xff\xff\xff\xff'
p1831
tp1832
Rp1833
tp1834
a(g3
g1770
VAston Villa
p1835
(lp1836
V1
p1837
aV1
p1838
ag9
(g13
S'\x01\x00\x00\x00'
p1839
tp1840
Rp1841
tp1842
a(g3
g1770
VEverton
p1843
(lp1844
V0
p1845
aV1
p1846
ag9
(g13
S'\xff\xff\xff\xff'
p1847
tp1848
Rp1849
tp1850
a(g3
g1770
VManchester United
p1851
(lp1852
V3
p1853
aV3
p1854
ag9
(g13
S'\xff\xff\xff\xff'
p1855
tp1856
Rp1857
tp1858
a(g3
g1770
VWest Ham
p1859
(lp1860
V2
p1861
aV1
p1862
ag9
(g13
S'\x01\x00\x00\x00'
p1863
tp1864
Rp1865
tp1866
a(g3
g1770
VWest Bromwich Albion
p1867
(lp1868
V1
p1869
aV0
p1870
ag9
(g13
S'\x01\x00\x00\x00'
p1871
tp1872
Rp1873
tp1874
a(g3
g1770
VBournemouth
p1875
(lp1876
V1
p1877
aV3
p1878
ag9
(g13
S'\x01\x00\x00\x00'
p1879
tp1880
Rp1881
tp1882
a(g3
VEverton
p1883
VManchester City
p1884
(lp1885
V0
p1886
aV2
p1887
ag9
(g13
S'\x01\x00\x00\x00'
p1888
tp1889
Rp1890
tp1891
a(g3
g1883
VChelsea
p1892
(lp1893
V3
p1894
aV1
p1895
ag9
(g13
S'\x01\x00\x00\x00'
p1896
tp1897
Rp1898
tp1899
a(g3
g1883
VLiverpool
p1900
(lp1901
V1
p1902
aV1
p1903
ag9
(g13
S'\x01\x00\x00\x00'
p1904
tp1905
Rp1906
tp1907
a(g3
g1883
VManchester United
p1908
(lp1909
V0
p1910
aV3
p1911
ag9
(g13
S'\x01\x00\x00\x00'
p1912
tp1913
Rp1914
tp1915
a(g3
g1883
VSunderland
p1916
(lp1917
V6
p1918
aV2
p1919
ag9
(g13
S'\x01\x00\x00\x00'
p1920
tp1921
Rp1922
tp1923
a(g3
g1883
VAston Villa
p1924
(lp1925
V4
p1926
aV0
p1927
ag9
(g13
S'\x01\x00\x00\x00'
p1928
tp1929
Rp1930
tp1931
a(g3
g1883
VCrystal Palace
p1932
(lp1933
V1
p1934
aV1
p1935
ag9
(g13
S'\x01\x00\x00\x00'
p1936
tp1937
Rp1938
tp1939
a(g3
g1883
VLeicester
p1940
(lp1941
V2
p1942
aV3
p1943
ag9
(g13
S'\x01\x00\x00\x00'
p1944
tp1945
Rp1946
tp1947
a(g3
g1883
VStoke
p1948
(lp1949
V3
p1950
aV4
p1951
ag9
(g13
S'\x01\x00\x00\x00'
p1952
tp1953
Rp1954
tp1955
a(g3
g1883
VTottenham
p1956
(lp1957
V1
p1958
aV1
p1959
ag9
(g13
S'\x01\x00\x00\x00'
p1960
tp1961
Rp1962
tp1963
a(g3
g1883
VSwansea
p1964
(lp1965
V1
p1966
aV2
p1967
ag9
(g13
S'\x01\x00\x00\x00'
p1968
tp1969
Rp1970
tp1971
a(g3
g1883
VNewcastle United
p1972
(lp1973
V3
p1974
aV0
p1975
ag9
(g13
S'\x01\x00\x00\x00'
p1976
tp1977
Rp1978
tp1979
a(g3
g1883
VWest Bromwich Albion
p1980
(lp1981
V0
p1982
aV1
p1983
ag9
(g13
S'\x01\x00\x00\x00'
p1984
tp1985
Rp1986
tp1987
a(g3
g1883
VWest Ham
p1988
(lp1989
V2
p1990
aV3
p1991
ag9
(g13
S'\x01\x00\x00\x00'
p1992
tp1993
Rp1994
tp1995
a(g3
VNorwich
p1996
VStoke
p1997
(lp1998
V1
p1999
aV1
p2000
ag9
(g13
S'\x01\x00\x00\x00'
p2001
tp2002
Rp2003
tp2004
a(g3
g1996
VBournemouth
p2005
(lp2006
V3
p2007
aV1
p2008
ag9
(g13
S'\x01\x00\x00\x00'
p2009
tp2010
Rp2011
tp2012
a(g3
g1996
VLeicester
p2013
(lp2014
V1
p2015
aV2
p2016
ag9
(g13
S'\x01\x00\x00\x00'
p2017
tp2018
Rp2019
tp2020
a(g3
g1996
VWest Bromwich Albion
p2021
(lp2022
V0
p2023
aV1
p2024
ag9
(g13
S'\x01\x00\x00\x00'
p2025
tp2026
Rp2027
tp2028
a(g3
g1996
VSwansea
p2029
(lp2030
V1
p2031
aV0
p2032
ag9
(g13
S'\x01\x00\x00\x00'
p2033
tp2034
Rp2035
tp2036
a(g3
g1996
VArsenal
p2037
(lp2038
V1
p2039
aV1
p2040
ag9
(g13
S'\xff\xff\xff\xff'
p2041
tp2042
Rp2043
tp2044
a(g3
g1996
VEverton
p2045
(lp2046
V1
p2047
aV1
p2048
ag9
(g13
S'\x01\x00\x00\x00'
p2049
tp2050
Rp2051
tp2052
a(g3
g1996
VAston Villa
p2053
(lp2054
V2
p2055
aV0
p2056
ag9
(g13
S'\x01\x00\x00\x00'
p2057
tp2058
Rp2059
tp2060
a(g3
g1996
VSouthampton
p2061
(lp2062
V1
p2063
aV0
p2064
ag9
(g13
S'\x01\x00\x00\x00'
p2065
tp2066
Rp2067
tp2068
a(g3
g1996
VLiverpool
p2069
(lp2070
V4
p2071
aV5
p2072
ag9
(g13
S'\x01\x00\x00\x00'
p2073
tp2074
Rp2075
tp2076
a(g3
g1996
VTottenham
p2077
(lp2078
V0
p2079
aV3
p2080
ag9
(g13
S'\xff\xff\xff\xff'
p2081
tp2082
Rp2083
tp2084
a(g3
g1996
VWest Ham
p2085
(lp2086
V2
p2087
aV2
p2088
ag9
(g13
S'\x01\x00\x00\x00'
p2089
tp2090
Rp2091
tp2092
a(g3
g1996
VChelsea
p2093
(lp2094
V1
p2095
aV2
p2096
ag9
(g13
S'\xff\xff\xff\xff'
p2097
tp2098
Rp2099
tp2100
a(g3
g1996
VManchester City
p2101
(lp2102
V0
p2103
aV0
p2104
ag9
(g13
S'\xff\xff\xff\xff'
p2105
tp2106
Rp2107
tp2108
a(g3
VChelsea
p2109
VSwansea
p2110
(lp2111
V2
p2112
aV2
p2113
ag9
(g13
S'\x01\x00\x00\x00'
p2114
tp2115
Rp2116
tp2117
a(g3
g2109
VCrystal Palace
p2118
(lp2119
V1
p2120
aV2
p2121
ag9
(g13
S'\x01\x00\x00\x00'
p2122
tp2123
Rp2124
tp2125
a(g3
g2109
VArsenal
p2126
(lp2127
V2
p2128
aV0
p2129
ag9
(g13
S'\x01\x00\x00\x00'
p2130
tp2131
Rp2132
tp2133
a(g3
g2109
VSouthampton
p2134
(lp2135
V1
p2136
aV3
p2137
ag9
(g13
S'\x01\x00\x00\x00'
p2138
tp2139
Rp2140
tp2141
a(g3
g2109
VAston Villa
p2142
(lp2143
V2
p2144
aV0
p2145
ag9
(g13
S'\x01\x00\x00\x00'
p2146
tp2147
Rp2148
tp2149
a(g3
g2109
VLiverpool
p2150
(lp2151
V1
p2152
aV3
p2153
ag9
(g13
S'\x01\x00\x00\x00'
p2154
tp2155
Rp2156
tp2157
a(g3
g2109
VNorwich
p2158
(lp2159
V1
p2160
aV0
p2161
ag9
(g13
S'\x01\x00\x00\x00'
p2162
tp2163
Rp2164
tp2165
a(g3
g2109
VBournemouth
p2166
(lp2167
V0
p2168
aV1
p2169
ag9
(g13
S'\x01\x00\x00\x00'
p2170
tp2171
Rp2172
tp2173
a(g3
g2109
VSunderland
p2174
(lp2175
V3
p2176
aV1
p2177
ag9
(g13
S'\x01\x00\x00\x00'
p2178
tp2179
Rp2180
tp2181
a(g3
g2109
VWatford
p2182
(lp2183
V2
p2184
aV2
p2185
ag9
(g13
S'\x01\x00\x00\x00'
p2186
tp2187
Rp2188
tp2189
a(g3
g2109
VWest Bromwich Albion
p2190
(lp2191
V2
p2192
aV2
p2193
ag9
(g13
S'\x01\x00\x00\x00'
p2194
tp2195
Rp2196
tp2197
a(g3
g2109
VEverton
p2198
(lp2199
V3
p2200
aV3
p2201
ag9
(g13
S'\x01\x00\x00\x00'
p2202
tp2203
Rp2204
tp2205
a(g3
g2109
VManchester United
p2206
(lp2207
V1
p2208
aV1
p2209
ag9
(g13
S'\x01\x00\x00\x00'
p2210
tp2211
Rp2212
tp2213
a(g3
g2109
VNewcastle United
p2214
(lp2215
V5
p2216
aV1
p2217
ag9
(g13
S'\x01\x00\x00\x00'
p2218
tp2219
Rp2220
tp2221
a(g3
g2109
VStoke
p2222
(lp2223
V1
p2224
aV1
p2225
ag9
(g13
S'\x01\x00\x00\x00'
p2226
tp2227
Rp2228
tp2229
a(g3
VArsenal
p2230
VWest Ham
p2231
(lp2232
V0
p2233
aV2
p2234
ag9
(g13
S'\x01\x00\x00\x00'
p2235
tp2236
Rp2237
tp2238
a(g3
g2230
VLiverpool
p2239
(lp2240
V0
p2241
aV0
p2242
ag9
(g13
S'\x01\x00\x00\x00'
p2243
tp2244
Rp2245
tp2246
a(g3
g2230
VStoke
p2247
(lp2248
V2
p2249
aV0
p2250
ag9
(g13
S'\x01\x00\x00\x00'
p2251
tp2252
Rp2253
tp2254
a(g3
g2230
VManchester United
p2255
(lp2256
V3
p2257
aV0
p2258
ag9
(g13
S'\x01\x00\x00\x00'
p2259
tp2260
Rp2261
tp2262
a(g3
g2230
VEverton
p2263
(lp2264
V2
p2265
aV1
p2266
ag9
(g13
S'\x01\x00\x00\x00'
p2267
tp2268
Rp2269
tp2270
a(g3
g2230
VTottenham
p2271
(lp2272
V1
p2273
aV1
p2274
ag9
(g13
S'\x01\x00\x00\x00'
p2275
tp2276
Rp2277
tp2278
a(g3
g2230
VSunderland
p2279
(lp2280
V3
p2281
aV1
p2282
ag9
(g13
S'\x01\x00\x00\x00'
p2283
tp2284
Rp2285
tp2286
a(g3
g2230
VManchester City
p2287
(lp2288
V2
p2289
aV1
p2290
ag9
(g13
S'\x01\x00\x00\x00'
p2291
tp2292
Rp2293
tp2294
a(g3
g2230
VBournemouth
p2295
(lp2296
V2
p2297
aV0
p2298
ag9
(g13
S'\x01\x00\x00\x00'
p2299
tp2300
Rp2301
tp2302
a(g3
g2230
VNewcastle United
p2303
(lp2304
V1
p2305
aV0
p2306
ag9
(g13
S'\x01\x00\x00\x00'
p2307
tp2308
Rp2309
tp2310
a(g3
g2230
VChelsea
p2311
(lp2312
V0
p2313
aV1
p2314
ag9
(g13
S'\x01\x00\x00\x00'
p2315
tp2316
Rp2317
tp2318
a(g3
g2230
VSouthampton
p2319
(lp2320
V0
p2321
aV0
p2322
ag9
(g13
S'\x01\x00\x00\x00'
p2323
tp2324
Rp2325
tp2326
a(g3
g2230
VLeicester
p2327
(lp2328
V2
p2329
aV1
p2330
ag9
(g13
S'\x01\x00\x00\x00'
p2331
tp2332
Rp2333
tp2334
a(g3
g2230
VSwansea
p2335
(lp2336
V1
p2337
aV2
p2338
ag9
(g13
S'\x01\x00\x00\x00'
p2339
tp2340
Rp2341
tp2342
a(S'Serie_A'
p2343
VVerona
p2344
VRoma
p2345
(lp2346
V1
p2347
aV1
p2348
ag9
(g13
S'\xff\xff\xff\xff'
p2349
tp2350
Rp2351
tp2352
a(g2343
g2344
VTorino
p2353
(lp2354
V2
p2355
aV2
p2356
ag9
(g13
S'\x01\x00\x00\x00'
p2357
tp2358
Rp2359
tp2360
a(g2343
g2344
VLazio
p2361
(lp2362
V1
p2363
aV2
p2364
ag9
(g13
S'\xff\xff\xff\xff'
p2365
tp2366
Rp2367
tp2368
a(g2343
g2344
VUdinese
p2369
(lp2370
V1
p2371
aV1
p2372
ag9
(g13
S'\x01\x00\x00\x00'
p2373
tp2374
Rp2375
tp2376
a(g2343
g2344
VFiorentina
p2377
(lp2378
V0
p2379
aV2
p2380
ag9
(g13
S'\xff\xff\xff\xff'
p2381
tp2382
Rp2383
tp2384
a(g2343
g2344
VBologna
p2385
(lp2386
V0
p2387
aV2
p2388
ag9
(g13
S'\x01\x00\x00\x00'
p2389
tp2390
Rp2391
tp2392
a(g2343
g2344
VNapoli
p2393
(lp2394
V0
p2395
aV2
p2396
ag9
(g13
S'\xff\xff\xff\xff'
p2397
tp2398
Rp2399
tp2400
a(g2343
g2344
VEmpoli
p2401
(lp2402
V0
p2403
aV1
p2404
ag9
(g13
S'\x01\x00\x00\x00'
p2405
tp2406
Rp2407
tp2408
a(g2343
g2344
VSassuolo
p2409
(lp2410
V1
p2411
aV1
p2412
ag9
(g13
S'\xff\xff\xff\xff'
p2413
tp2414
Rp2415
tp2416
a(g2343
g2344
VPalermo
p2417
(lp2418
V0
p2419
aV1
p2420
ag9
(g13
S'\x01\x00\x00\x00'
p2421
tp2422
Rp2423
tp2424
a(g2343
g2344
VGenoa
p2425
(lp2426
V1
p2427
aV1
p2428
ag9
(g13
S'\xff\xff\xff\xff'
p2429
tp2430
Rp2431
tp2432
a(g2343
g2344
VAtalanta
p2433
(lp2434
V2
p2435
aV1
p2436
ag9
(g13
S'\xff\xff\xff\xff'
p2437
tp2438
Rp2439
tp2440
a(g2343
g2344
VInter
p2441
(lp2442
V3
p2443
aV3
p2444
ag9
(g13
S'\xff\xff\xff\xff'
p2445
tp2446
Rp2447
tp2448
a(g2343
g2344
VChievo
p2449
(lp2450
V3
p2451
aV1
p2452
ag9
(g13
S'\x01\x00\x00\x00'
p2453
tp2454
Rp2455
tp2456
a(g2343
g2344
VSampdoria
p2457
(lp2458
V0
p2459
aV3
p2460
ag9
(g13
S'\x01\x00\x00\x00'
p2461
tp2462
Rp2463
tp2464
a(g2343
VUdinese
p2465
VPalermo
p2466
(lp2467
V0
p2468
aV1
p2469
ag9
(g13
S'\x01\x00\x00\x00'
p2470
tp2471
Rp2472
tp2473
a(g2343
g2465
VEmpoli
p2474
(lp2475
V1
p2476
aV2
p2477
ag9
(g13
S'\x01\x00\x00\x00'
p2478
tp2479
Rp2480
tp2481
a(g2343
g2465
VAC Milan
p2482
(lp2483
V2
p2484
aV3
p2485
ag9
(g13
S'\x01\x00\x00\x00'
p2486
tp2487
Rp2488
tp2489
a(g2343
g2465
VGenoa
p2490
(lp2491
V1
p2492
aV1
p2493
ag9
(g13
S'\x01\x00\x00\x00'
p2494
tp2495
Rp2496
tp2497
a(g2343
g2465
VFrosinone
p2498
(lp2499
V1
p2500
aV0
p2501
ag9
(g13
S'\x01\x00\x00\x00'
p2502
tp2503
Rp2504
tp2505
a(g2343
g2465
VSassuolo
p2506
(lp2507
V0
p2508
aV0
p2509
ag9
(g13
S'\x01\x00\x00\x00'
p2510
tp2511
Rp2512
tp2513
a(g2343
g2465
VSampdoria
p2514
(lp2515
V1
p2516
aV0
p2517
ag9
(g13
S'\x01\x00\x00\x00'
p2518
tp2519
Rp2520
tp2521
a(g2343
g2465
VInter
p2522
(lp2523
V0
p2524
aV4
p2525
ag9
(g13
S'\xff\xff\xff\xff'
p2526
tp2527
Rp2528
tp2529
a(g2343
g2465
VAtalanta
p2530
(lp2531
V2
p2532
aV1
p2533
ag9
(g13
S'\x01\x00\x00\x00'
p2534
tp2535
Rp2536
tp2537
a(g2343
g2465
VJuventus
p2538
(lp2539
V0
p2540
aV4
p2541
ag9
(g13
S'\xff\xff\xff\xff'
p2542
tp2543
Rp2544
tp2545
a(g2343
g2465
VLazio
p2546
(lp2547
V0
p2548
aV0
p2549
ag9
(g13
S'\xff\xff\xff\xff'
p2550
tp2551
Rp2552
tp2553
a(g2343
g2465
VBologna
p2554
(lp2555
V0
p2556
aV1
p2557
ag9
(g13
S'\x01\x00\x00\x00'
p2558
tp2559
Rp2560
tp2561
a(g2343
g2465
VVerona
p2562
(lp2563
V2
p2564
aV0
p2565
ag9
(g13
S'\x01\x00\x00\x00'
p2566
tp2567
Rp2568
tp2569
a(g2343
g2465
VRoma
p2570
(lp2571
V1
p2572
aV2
p2573
ag9
(g13
S'\xff\xff\xff\xff'
p2574
tp2575
Rp2576
tp2577
a(g2343
VTorino
p2578
VFiorentina
p2579
(lp2580
V3
p2581
aV1
p2582
ag9
(g13
S'\xff\xff\xff\xff'
p2583
tp2584
Rp2585
tp2586
a(g2343
g2578
VSampdoria
p2587
(lp2588
V2
p2589
aV0
p2590
ag9
(g13
S'\x01\x00\x00\x00'
p2591
tp2592
Rp2593
tp2594
a(g2343
g2578
VPalermo
p2595
(lp2596
V2
p2597
aV1
p2598
ag9
(g13
S'\x01\x00\x00\x00'
p2599
tp2600
Rp2601
tp2602
a(g2343
g2578
VAC Milan
p2603
(lp2604
V1
p2605
aV1
p2606
ag9
(g13
S'\x01\x00\x00\x00'
p2607
tp2608
Rp2609
tp2610
a(g2343
g2578
VGenoa
p2611
(lp2612
V3
p2613
aV3
p2614
ag9
(g13
S'\x01\x00\x00\x00'
p2615
tp2616
Rp2617
tp2618
a(g2343
g2578
VInter
p2619
(lp2620
V0
p2621
aV1
p2622
ag9
(g13
S'\xff\xff\xff\xff'
p2623
tp2624
Rp2625
tp2626
a(g2343
g2578
VBologna
p2627
(lp2628
V2
p2629
aV0
p2630
ag9
(g13
S'\x01\x00\x00\x00'
p2631
tp2632
Rp2633
tp2634
a(g2343
g2578
VRoma
p2635
(lp2636
V1
p2637
aV1
p2638
ag9
(g13
S'\xff\xff\xff\xff'
p2639
tp2640
Rp2641
tp2642
a(g2343
g2578
VUdinese
p2643
(lp2644
V0
p2645
aV1
p2646
ag9
(g13
S'\x01\x00\x00\x00'
p2647
tp2648
Rp2649
tp2650
a(g2343
g2578
VEmpoli
p2651
(lp2652
V0
p2653
aV1
p2654
ag9
(g13
S'\x01\x00\x00\x00'
p2655
tp2656
Rp2657
tp2658
a(g2343
g2578
VFrosinone
p2659
(lp2660
V4
p2661
aV2
p2662
ag9
(g13
S'\x01\x00\x00\x00'
p2663
tp2664
Rp2665
tp2666
a(g2343
g2578
VVerona
p2667
(lp2668
V0
p2669
aV0
p2670
ag9
(g13
S'\x01\x00\x00\x00'
p2671
tp2672
Rp2673
tp2674
a(g2343
g2578
VChievo
p2675
(lp2676
V1
p2677
aV2
p2678
ag9
(g13
S'\x01\x00\x00\x00'
p2679
tp2680
Rp2681
tp2682
a(g2343
g2578
VCarpi
p2683
(lp2684
V0
p2685
aV0
p2686
ag9
(g13
S'\x01\x00\x00\x00'
p2687
tp2688
Rp2689
tp2690
a(g2343
g2578
VLazio
p2691
(lp2692
V1
p2693
aV1
p2694
ag9
(g13
S'\xff\xff\xff\xff'
p2695
tp2696
Rp2697
tp2698
a(g2343
VFrosinone
p2699
VRoma
p2700
(lp2701
V0
p2702
aV2
p2703
ag9
(g13
S'\xff\xff\xff\xff'
p2704
tp2705
Rp2706
tp2707
a(g2343
g2699
VEmpoli
p2708
(lp2709
V2
p2710
aV0
p2711
ag9
(g13
S'\xff\xff\xff\xff'
p2712
tp2713
Rp2714
tp2715
a(g2343
g2699
VSampdoria
p2716
(lp2717
V2
p2718
aV0
p2719
ag9
(g13
S'\x01\x00\x00\x00'
p2720
tp2721
Rp2722
tp2723
a(g2343
g2699
VCarpi
p2724
(lp2725
V2
p2726
aV1
p2727
ag9
(g13
S'\x01\x00\x00\x00'
p2728
tp2729
Rp2730
tp2731
a(g2343
g2699
VGenoa
p2732
(lp2733
V2
p2734
aV2
p2735
ag9
(g13
S'\xff\xff\xff\xff'
p2736
tp2737
Rp2738
tp2739
a(g2343
g2699
VVerona
p2740
(lp2741
V3
p2742
aV2
p2743
ag9
(g13
S'\x01\x00\x00\x00'
p2744
tp2745
Rp2746
tp2747
a(g2343
g2699
VChievo
p2748
(lp2749
V0
p2750
aV2
p2751
ag9
(g13
S'\x01\x00\x00\x00'
p2752
tp2753
Rp2754
tp2755
a(g2343
g2699
VAC Milan
p2756
(lp2757
V2
p2758
aV4
p2759
ag9
(g13
S'\xff\xff\xff\xff'
p2760
tp2761
Rp2762
tp2763
a(g2343
g2699
VNapoli
p2764
(lp2765
V1
p2766
aV5
p2767
ag9
(g13
S'\xff\xff\xff\xff'
p2768
tp2769
Rp2770
tp2771
a(g2343
g2699
VAtalanta
p2772
(lp2773
V0
p2774
aV0
p2775
ag9
(g13
S'\xff\xff\xff\xff'
p2776
tp2777
Rp2778
tp2779
a(g2343
g2699
VBologna
p2780
(lp2781
V1
p2782
aV0
p2783
ag9
(g13
S'\xff\xff\xff\xff'
p2784
tp2785
Rp2786
tp2787
a(g2343
g2699
VJuventus
p2788
(lp2789
V0
p2790
aV2
p2791
ag9
(g13
S'\xff\xff\xff\xff'
p2792
tp2793
Rp2794
tp2795
a(g2343
g2699
VLazio
p2796
(lp2797
V0
p2798
aV0
p2799
ag9
(g13
S'\xff\xff\xff\xff'
p2800
tp2801
Rp2802
tp2803
a(g2343
g2699
VUdinese
p2804
(lp2805
V2
p2806
aV0
p2807
ag9
(g13
S'\xff\xff\xff\xff'
p2808
tp2809
Rp2810
tp2811
a(g2343
VSampdoria
p2812
VBologna
p2813
(lp2814
V2
p2815
aV0
p2816
ag9
(g13
S'\x01\x00\x00\x00'
p2817
tp2818
Rp2819
tp2820
a(g2343
g2812
VRoma
p2821
(lp2822
V2
p2823
aV1
p2824
ag9
(g13
S'\xff\xff\xff\xff'
p2825
tp2826
Rp2827
tp2828
a(g2343
g2812
VInter
p2829
(lp2830
V1
p2831
aV1
p2832
ag9
(g13
S'\xff\xff\xff\xff'
p2833
tp2834
Rp2835
tp2836
a(g2343
g2812
VVerona
p2837
(lp2838
V4
p2839
aV1
p2840
ag9
(g13
S'\x01\x00\x00\x00'
p2841
tp2842
Rp2843
tp2844
a(g2343
g2812
VEmpoli
p2845
(lp2846
V1
p2847
aV1
p2848
ag9
(g13
S'\x01\x00\x00\x00'
p2849
tp2850
Rp2851
tp2852
a(g2343
g2812
VFiorentina
p2853
(lp2854
V0
p2855
aV2
p2856
ag9
(g13
S'\xff\xff\xff\xff'
p2857
tp2858
Rp2859
tp2860
a(g2343
g2812
VSassuolo
p2861
(lp2862
V1
p2863
aV3
p2864
ag9
(g13
S'\x01\x00\x00\x00'
p2865
tp2866
Rp2867
tp2868
a(g2343
g2812
VPalermo
p2869
(lp2870
V2
p2871
aV0
p2872
ag9
(g13
S'\x01\x00\x00\x00'
p2873
tp2874
Rp2875
tp2876
a(g2343
g2812
VJuventus
p2877
(lp2878
V1
p2879
aV2
p2880
ag9
(g13
S'\xff\xff\xff\xff'
p2881
tp2882
Rp2883
tp2884
a(g2343
g2812
VNapoli
p2885
(lp2886
V2
p2887
aV4
p2888
ag9
(g13
S'\xff\xff\xff\xff'
p2889
tp2890
Rp2891
tp2892
a(g2343
g2812
VTorino
p2893
(lp2894
V2
p2895
aV2
p2896
ag9
(g13
S'\x01\x00\x00\x00'
p2897
tp2898
Rp2899
tp2900
a(g2343
g2812
VAtalanta
p2901
(lp2902
V0
p2903
aV0
p2904
ag9
(g13
S'\x01\x00\x00\x00'
p2905
tp2906
Rp2907
tp2908
a(g2343
g2812
VFrosinone
p2909
(lp2910
V2
p2911
aV0
p2912
ag9
(g13
S'\x01\x00\x00\x00'
p2913
tp2914
Rp2915
tp2916
a(g2343
VSassuolo
p2917
VNapoli
p2918
(lp2919
V2
p2920
aV1
p2921
ag9
(g13
S'\xff\xff\xff\xff'
p2922
tp2923
Rp2924
tp2925
a(g2343
g2917
VAtalanta
p2926
(lp2927
V2
p2928
aV2
p2929
ag9
(g13
S'\x01\x00\x00\x00'
p2930
tp2931
Rp2932
tp2933
a(g2343
g2917
VChievo
p2934
(lp2935
V1
p2936
aV1
p2937
ag9
(g13
S'\x01\x00\x00\x00'
p2938
tp2939
Rp2940
tp2941
a(g2343
g2917
VLazio
p2942
(lp2943
V2
p2944
aV1
p2945
ag9
(g13
S'\xff\xff\xff\xff'
p2946
tp2947
Rp2948
tp2949
a(g2343
g2917
VJuventus
p2950
(lp2951
V1
p2952
aV0
p2953
ag9
(g13
S'\x01\x00\x00\x00'
p2954
tp2955
Rp2956
tp2957
a(g2343
g2917
VCarpi
p2958
(lp2959
V1
p2960
aV0
p2961
ag9
(g13
S'\x01\x00\x00\x00'
p2962
tp2963
Rp2964
tp2965
a(g2343
g2917
VFiorentina
p2966
(lp2967
V1
p2968
aV1
p2969
ag9
(g13
S'\x01\x00\x00\x00'
p2970
tp2971
Rp2972
tp2973
a(g2343
g2917
VFrosinone
p2974
(lp2975
V2
p2976
aV2
p2977
ag9
(g13
S'\x01\x00\x00\x00'
p2978
tp2979
Rp2980
tp2981
a(g2343
g2917
VTorino
p2982
(lp2983
V1
p2984
aV1
p2985
ag9
(g13
S'\x01\x00\x00\x00'
p2986
tp2987
Rp2988
tp2989
a(g2343
g2917
VBologna
p2990
(lp2991
V0
p2992
aV2
p2993
ag9
(g13
S'\x01\x00\x00\x00'
p2994
tp2995
Rp2996
tp2997
a(g2343
g2917
VRoma
p2998
(lp2999
V0
p3000
aV2
p3001
ag9
(g13
S'\x01\x00\x00\x00'
p3002
tp3003
Rp3004
tp3005
a(g2343
g2917
VPalermo
p3006
(lp3007
V2
p3008
aV2
p3009
ag9
(g13
S'\x01\x00\x00\x00'
p3010
tp3011
Rp3012
tp3013
a(g2343
g2917
VEmpoli
p3014
(lp3015
V3
p3016
aV2
p3017
ag9
(g13
S'\x01\x00\x00\x00'
p3018
tp3019
Rp3020
tp3021
a(g2343
g2917
VAC Milan
p3022
(lp3023
V2
p3024
aV0
p3025
ag9
(g13
S'\x01\x00\x00\x00'
p3026
tp3027
Rp3028
tp3029
a(g2343
VBologna
p3030
VSassuolo
p3031
(lp3032
V0
p3033
aV1
p3034
ag9
(g13
S'\xff\xff\xff\xff'
p3035
tp3036
Rp3037
tp3038
a(g2343
g3030
VFrosinone
p3039
(lp3040
V1
p3041
aV0
p3042
ag9
(g13
S'\x01\x00\x00\x00'
p3043
tp3044
Rp3045
tp3046
a(g2343
g3030
VUdinese
p3047
(lp3048
V1
p3049
aV2
p3050
ag9
(g13
S'\x01\x00\x00\x00'
p3051
tp3052
Rp3053
tp3054
a(g2343
g3030
VPalermo
p3055
(lp3056
V0
p3057
aV1
p3058
ag9
(g13
S'\x01\x00\x00\x00'
p3059
tp3060
Rp3061
tp3062
a(g2343
g3030
VInter
p3063
(lp3064
V0
p3065
aV1
p3066
ag9
(g13
S'\xff\xff\xff\xff'
p3067
tp3068
Rp3069
tp3070
a(g2343
g3030
VAtalanta
p3071
(lp3072
V3
p3073
aV0
p3074
ag9
(g13
S'\x01\x00\x00\x00'
p3075
tp3076
Rp3077
tp3078
a(g2343
g3030
VRoma
p3079
(lp3080
V2
p3081
aV2
p3082
ag9
(g13
S'\xff\xff\xff\xff'
p3083
tp3084
Rp3085
tp3086
a(g2343
g3030
VNapoli
p3087
(lp3088
V3
p3089
aV2
p3090
ag9
(g13
S'\xff\xff\xff\xff'
p3091
tp3092
Rp3093
tp3094
a(g2343
g3030
VEmpoli
p3095
(lp3096
V2
p3097
aV3
p3098
ag9
(g13
S'\x01\x00\x00\x00'
p3099
tp3100
Rp3101
tp3102
a(g2343
g3030
VChievo
p3103
(lp3104
V0
p3105
aV1
p3106
ag9
(g13
S'\x01\x00\x00\x00'
p3107
tp3108
Rp3109
tp3110
a(g2343
g3030
VLazio
p3111
(lp3112
V2
p3113
aV2
p3114
ag9
(g13
S'\xff\xff\xff\xff'
p3115
tp3116
Rp3117
tp3118
a(g2343
g3030
VSampdoria
p3119
(lp3120
V3
p3121
aV2
p3122
ag9
(g13
S'\x01\x00\x00\x00'
p3123
tp3124
Rp3125
tp3126
a(g2343
g3030
VFiorentina
p3127
(lp3128
V1
p3129
aV1
p3130
ag9
(g13
S'\xff\xff\xff\xff'
p3131
tp3132
Rp3133
tp3134
a(g2343
g3030
VJuventus
p3135
(lp3136
V0
p3137
aV0
p3138
ag9
(g13
S'\xff\xff\xff\xff'
p3139
tp3140
Rp3141
tp3142
a(g2343
g3030
VCarpi
p3143
(lp3144
V0
p3145
aV0
p3146
ag9
(g13
S'\x01\x00\x00\x00'
p3147
tp3148
Rp3149
tp3150
a(g2343
VAC Milan
p3151
VEmpoli
p3152
(lp3153
V2
p3154
aV1
p3155
ag9
(g13
S'\x01\x00\x00\x00'
p3156
tp3157
Rp3158
tp3159
a(g2343
g3151
VPalermo
p3160
(lp3161
V3
p3162
aV2
p3163
ag9
(g13
S'\x01\x00\x00\x00'
p3164
tp3165
Rp3166
tp3167
a(g2343
g3151
VNapoli
p3168
(lp3169
V0
p3170
aV4
p3171
ag9
(g13
S'\xff\xff\xff\xff'
p3172
tp3173
Rp3174
tp3175
a(g2343
g3151
VSassuolo
p3176
(lp3177
V2
p3178
aV1
p3179
ag9
(g13
S'\x01\x00\x00\x00'
p3180
tp3181
Rp3182
tp3183
a(g2343
g3151
VChievo
p3184
(lp3185
V1
p3186
aV0
p3187
ag9
(g13
S'\x01\x00\x00\x00'
p3188
tp3189
Rp3190
tp3191
a(g2343
g3151
VAtalanta
p3192
(lp3193
V0
p3194
aV0
p3195
ag9
(g13
S'\x01\x00\x00\x00'
p3196
tp3197
Rp3198
tp3199
a(g2343
g3151
VSampdoria
p3200
(lp3201
V4
p3202
aV1
p3203
ag9
(g13
S'\x01\x00\x00\x00'
p3204
tp3205
Rp3206
tp3207
a(g2343
g3151
VVerona
p3208
(lp3209
V1
p3210
aV1
p3211
ag9
(g13
S'\x01\x00\x00\x00'
p3212
tp3213
Rp3214
tp3215
a(g2343
g3151
VBologna
p3216
(lp3217
V0
p3218
aV1
p3219
ag9
(g13
S'\x01\x00\x00\x00'
p3220
tp3221
Rp3222
tp3223
a(g2343
g3151
VFiorentina
p3224
(lp3225
V2
p3226
aV0
p3227
ag9
(g13
S'\xff\xff\xff\xff'
p3228
tp3229
Rp3230
tp3231
a(g2343
g3151
VInter
p3232
(lp3233
V3
p3234
aV0
p3235
ag9
(g13
S'\xff\xff\xff\xff'
p3236
tp3237
Rp3238
tp3239
a(g2343
g3151
VUdinese
p3240
(lp3241
V1
p3242
aV1
p3243
ag9
(g13
S'\x01\x00\x00\x00'
p3244
tp3245
Rp3246
tp3247
a(g2343
g3151
VGenoa
p3248
(lp3249
V2
p3250
aV1
p3251
ag9
(g13
S'\x01\x00\x00\x00'
p3252
tp3253
Rp3254
tp3255
a(g2343
g3151
VTorino
p3256
(lp3257
V1
p3258
aV0
p3259
ag9
(g13
S'\x01\x00\x00\x00'
p3260
tp3261
Rp3262
tp3263
a(g2343
VLazio
p3264
VUdinese
p3265
(lp3266
V2
p3267
aV0
p3268
ag9
(g13
S'\x01\x00\x00\x00'
p3269
tp3270
Rp3271
tp3272
a(g2343
g3264
VGenoa
p3273
(lp3274
V2
p3275
aV0
p3276
ag9
(g13
S'\x01\x00\x00\x00'
p3277
tp3278
Rp3279
tp3280
a(g2343
g3264
VFrosinone
p3281
(lp3282
V2
p3283
aV0
p3284
ag9
(g13
S'\x01\x00\x00\x00'
p3285
tp3286
Rp3287
tp3288
a(g2343
g3264
VTorino
p3289
(lp3290
V3
p3291
aV0
p3292
ag9
(g13
S'\x01\x00\x00\x00'
p3293
tp3294
Rp3295
tp3296
a(g2343
g3264
VAC Milan
p3297
(lp3298
V1
p3299
aV3
p3300
ag9
(g13
S'\x01\x00\x00\x00'
p3301
tp3302
Rp3303
tp3304
a(g2343
g3264
VPalermo
p3305
(lp3306
V1
p3307
aV1
p3308
ag9
(g13
S'\x01\x00\x00\x00'
p3309
tp3310
Rp3311
tp3312
a(g2343
g3264
VJuventus
p3313
(lp3314
V0
p3315
aV2
p3316
ag9
(g13
S'\x01\x00\x00\x00'
p3317
tp3318
Rp3319
tp3320
a(g2343
g3264
VSampdoria
p3321
(lp3322
V1
p3323
aV1
p3324
ag9
(g13
S'\x01\x00\x00\x00'
p3325
tp3326
Rp3327
tp3328
a(g2343
g3264
VCarpi
p3329
(lp3330
V0
p3331
aV0
p3332
ag9
(g13
S'\x01\x00\x00\x00'
p3333
tp3334
Rp3335
tp3336
a(g2343
g3264
VChievo
p3337
(lp3338
V4
p3339
aV1
p3340
ag9
(g13
S'\x01\x00\x00\x00'
p3341
tp3342
Rp3343
tp3344
a(g2343
g3264
VNapoli
p3345
(lp3346
V0
p3347
aV2
p3348
ag9
(g13
S'\xff\xff\xff\xff'
p3349
tp3350
Rp3351
tp3352
a(g2343
g3264
VVerona
p3353
(lp3354
V5
p3355
aV2
p3356
ag9
(g13
S'\x01\x00\x00\x00'
p3357
tp3358
Rp3359
tp3360
a(g2343
g3264
VSassuolo
p3361
(lp3362
V0
p3363
aV2
p3364
ag9
(g13
S'\x01\x00\x00\x00'
p3365
tp3366
Rp3367
tp3368
a(g2343
g3264
VAtalanta
p3369
(lp3370
V2
p3371
aV0
p3372
ag9
(g13
S'\x01\x00\x00\x00'
p3373
tp3374
Rp3375
tp3376
a(g2343
VRoma
p3377
VJuventus
p3378
(lp3379
V2
p3380
aV1
p3381
ag9
(g13
S'\x01\x00\x00\x00'
p3382
tp3383
Rp3384
tp3385
a(g2343
g3377
VSassuolo
p3386
(lp3387
V2
p3388
aV2
p3389
ag9
(g13
S'\x01\x00\x00\x00'
p3390
tp3391
Rp3392
tp3393
a(g2343
g3377
VCarpi
p3394
(lp3395
V5
p3396
aV1
p3397
ag9
(g13
S'\x01\x00\x00\x00'
p3398
tp3399
Rp3400
tp3401
a(g2343
g3377
VEmpoli
p3402
(lp3403
V3
p3404
aV1
p3405
ag9
(g13
S'\x01\x00\x00\x00'
p3406
tp3407
Rp3408
tp3409
a(g2343
g3377
VUdinese
p3410
(lp3411
V3
p3412
aV1
p3413
ag9
(g13
S'\x01\x00\x00\x00'
p3414
tp3415
Rp3416
tp3417
a(g2343
g3377
VLazio
p3418
(lp3419
V2
p3420
aV0
p3421
ag9
(g13
S'\x01\x00\x00\x00'
p3422
tp3423
Rp3424
tp3425
a(g2343
g3377
VAtalanta
p3426
(lp3427
V0
p3428
aV2
p3429
ag9
(g13
S'\x01\x00\x00\x00'
p3430
tp3431
Rp3432
tp3433
a(g2343
g3377
VGenoa
p3434
(lp3435
V2
p3436
aV0
p3437
ag9
(g13
S'\x01\x00\x00\x00'
p3438
tp3439
Rp3440
tp3441
a(g2343
g3377
VAC Milan
p3442
(lp3443
V1
p3444
aV1
p3445
ag9
(g13
S'\x01\x00\x00\x00'
p3446
tp3447
Rp3448
tp3449
a(g2343
g3377
VVerona
p3450
(lp3451
V1
p3452
aV1
p3453
ag9
(g13
S'\x01\x00\x00\x00'
p3454
tp3455
Rp3456
tp3457
a(g2343
g3377
VFrosinone
p3458
(lp3459
V3
p3460
aV1
p3461
ag9
(g13
S'\x01\x00\x00\x00'
p3462
tp3463
Rp3464
tp3465
a(g2343
g3377
VSampdoria
p3466
(lp3467
V2
p3468
aV1
p3469
ag9
(g13
S'\x01\x00\x00\x00'
p3470
tp3471
Rp3472
tp3473
a(g2343
g3377
VPalermo
p3474
(lp3475
V5
p3476
aV0
p3477
ag9
(g13
S'\x01\x00\x00\x00'
p3478
tp3479
Rp3480
tp3481
a(g2343
g3377
VFiorentina
p3482
(lp3483
V4
p3484
aV1
p3485
ag9
(g13
S'\x01\x00\x00\x00'
p3486
tp3487
Rp3488
tp3489
a(g2343
VJuventus
p3490
VUdinese
p3491
(lp3492
V0
p3493
aV1
p3494
ag9
(g13
S'\x01\x00\x00\x00'
p3495
tp3496
Rp3497
tp3498
a(g2343
g3490
VChievo
p3499
(lp3500
V1
p3501
aV1
p3502
ag9
(g13
S'\x01\x00\x00\x00'
p3503
tp3504
Rp3505
tp3506
a(g2343
g3490
VFrosinone
p3507
(lp3508
V1
p3509
aV1
p3510
ag9
(g13
S'\x01\x00\x00\x00'
p3511
tp3512
Rp3513
tp3514
a(g2343
g3490
VBologna
p3515
(lp3516
V3
p3517
aV1
p3518
ag9
(g13
S'\x01\x00\x00\x00'
p3519
tp3520
Rp3521
tp3522
a(g2343
g3490
VAtalanta
p3523
(lp3524
V2
p3525
aV0
p3526
ag9
(g13
S'\x01\x00\x00\x00'
p3527
tp3528
Rp3529
tp3530
a(g2343
g3490
VTorino
p3531
(lp3532
V2
p3533
aV1
p3534
ag9
(g13
S'\x01\x00\x00\x00'
p3535
tp3536
Rp3537
tp3538
a(g2343
g3490
VAC Milan
p3539
(lp3540
V1
p3541
aV0
p3542
ag9
(g13
S'\x01\x00\x00\x00'
p3543
tp3544
Rp3545
tp3546
a(g2343
g3490
VFiorentina
p3547
(lp3548
V3
p3549
aV1
p3550
ag9
(g13
S'\x01\x00\x00\x00'
p3551
tp3552
Rp3553
tp3554
a(g2343
g3490
VVerona
p3555
(lp3556
V3
p3557
aV0
p3558
ag9
(g13
S'\x01\x00\x00\x00'
p3559
tp3560
Rp3561
tp3562
a(g2343
g3490
VRoma
p3563
(lp3564
V1
p3565
aV0
p3566
ag9
(g13
S'\x01\x00\x00\x00'
p3567
tp3568
Rp3569
tp3570
a(g2343
g3490
VGenoa
p3571
(lp3572
V1
p3573
aV0
p3574
ag9
(g13
S'\x01\x00\x00\x00'
p3575
tp3576
Rp3577
tp3578
a(g2343
g3490
VNapoli
p3579
(lp3580
V1
p3581
aV0
p3582
ag9
(g13
S'\x01\x00\x00\x00'
p3583
tp3584
Rp3585
tp3586
a(g2343
g3490
VInter
p3587
(lp3588
V2
p3589
aV0
p3590
ag9
(g13
S'\x01\x00\x00\x00'
p3591
tp3592
Rp3593
tp3594
a(g2343
g3490
VSassuolo
p3595
(lp3596
V1
p3597
aV0
p3598
ag9
(g13
S'\x01\x00\x00\x00'
p3599
tp3600
Rp3601
tp3602
a(g2343
VInter
p3603
VAtalanta
p3604
(lp3605
V1
p3606
aV0
p3607
ag9
(g13
S'\x01\x00\x00\x00'
p3608
tp3609
Rp3610
tp3611
a(g2343
g3603
VAC Milan
p3612
(lp3613
V1
p3614
aV0
p3615
ag9
(g13
S'\x01\x00\x00\x00'
p3616
tp3617
Rp3618
tp3619
a(g2343
g3603
VVerona
p3620
(lp3621
V1
p3622
aV0
p3623
ag9
(g13
S'\x01\x00\x00\x00'
p3624
tp3625
Rp3626
tp3627
a(g2343
g3603
VFiorentina
p3628
(lp3629
V1
p3630
aV4
p3631
ag9
(g13
S'\x01\x00\x00\x00'
p3632
tp3633
Rp3634
tp3635
a(g2343
g3603
VJuventus
p3636
(lp3637
V0
p3638
aV0
p3639
ag9
(g13
S'\x01\x00\x00\x00'
p3640
tp3641
Rp3642
tp3643
a(g2343
g3603
VRoma
p3644
(lp3645
V1
p3646
aV0
p3647
ag9
(g13
S'\xff\xff\xff\xff'
p3648
tp3649
Rp3650
tp3651
a(g2343
g3603
VFrosinone
p3652
(lp3653
V4
p3654
aV0
p3655
ag9
(g13
S'\x01\x00\x00\x00'
p3656
tp3657
Rp3658
tp3659
a(g2343
g3603
VGenoa
p3660
(lp3661
V1
p3662
aV0
p3663
ag9
(g13
S'\x01\x00\x00\x00'
p3664
tp3665
Rp3666
tp3667
a(g2343
g3603
VLazio
p3668
(lp3669
V1
p3670
aV2
p3671
ag9
(g13
S'\x01\x00\x00\x00'
p3672
tp3673
Rp3674
tp3675
a(g2343
g3603
VSassuolo
p3676
(lp3677
V0
p3678
aV1
p3679
ag9
(g13
S'\x01\x00\x00\x00'
p3680
tp3681
Rp3682
tp3683
a(g2343
g3603
VCarpi
p3684
(lp3685
V1
p3686
aV1
p3687
ag9
(g13
S'\x01\x00\x00\x00'
p3688
tp3689
Rp3690
tp3691
a(g2343
g3603
VChievo
p3692
(lp3693
V1
p3694
aV0
p3695
ag9
(g13
S'\x01\x00\x00\x00'
p3696
tp3697
Rp3698
tp3699
a(g2343
g3603
VSampdoria
p3700
(lp3701
V3
p3702
aV1
p3703
ag9
(g13
S'\x01\x00\x00\x00'
p3704
tp3705
Rp3706
tp3707
a(g2343
g3603
VPalermo
p3708
(lp3709
V3
p3710
aV1
p3711
ag9
(g13
S'\x01\x00\x00\x00'
p3712
tp3713
Rp3714
tp3715
a(g2343
g3603
VBologna
p3716
(lp3717
V2
p3718
aV1
p3719
ag9
(g13
S'\x01\x00\x00\x00'
p3720
tp3721
Rp3722
tp3723
a(g2343
VPalermo
p3724
VGenoa
p3725
(lp3726
V1
p3727
aV0
p3728
ag9
(g13
S'\x01\x00\x00\x00'
p3729
tp3730
Rp3731
tp3732
a(g2343
g3724
VCarpi
p3733
(lp3734
V2
p3735
aV2
p3736
ag9
(g13
S'\x01\x00\x00\x00'
p3737
tp3738
Rp3739
tp3740
a(g2343
g3724
VSassuolo
p3741
(lp3742
V0
p3743
aV1
p3744
ag9
(g13
S'\x01\x00\x00\x00'
p3745
tp3746
Rp3747
tp3748
a(g2343
g3724
VRoma
p3749
(lp3750
V2
p3751
aV4
p3752
ag9
(g13
S'\xff\xff\xff\xff'
p3753
tp3754
Rp3755
tp3756
a(g2343
g3724
VInter
p3757
(lp3758
V1
p3759
aV1
p3760
ag9
(g13
S'\xff\xff\xff\xff'
p3761
tp3762
Rp3763
tp3764
a(g2343
g3724
VEmpoli
p3765
(lp3766
V0
p3767
aV1
p3768
ag9
(g13
S'\x01\x00\x00\x00'
p3769
tp3770
Rp3771
tp3772
a(g2343
g3724
VChievo
p3773
(lp3774
V1
p3775
aV0
p3776
ag9
(g13
S'\x01\x00\x00\x00'
p3777
tp3778
Rp3779
tp3780
a(g2343
g3724
VJuventus
p3781
(lp3782
V0
p3783
aV3
p3784
ag9
(g13
S'\xff\xff\xff\xff'
p3785
tp3786
Rp3787
tp3788
a(g2343
g3724
VFrosinone
p3789
(lp3790
V4
p3791
aV1
p3792
ag9
(g13
S'\x01\x00\x00\x00'
p3793
tp3794
Rp3795
tp3796
a(g2343
g3724
VFiorentina
p3797
(lp3798
V1
p3799
aV3
p3800
ag9
(g13
S'\xff\xff\xff\xff'
p3801
tp3802
Rp3803
tp3804
a(g2343
g3724
VUdinese
p3805
(lp3806
V4
p3807
aV1
p3808
ag9
(g13
S'\x01\x00\x00\x00'
p3809
tp3810
Rp3811
tp3812
a(g2343
g3724
VAC Milan
p3813
(lp3814
V0
p3815
aV2
p3816
ag9
(g13
S'\x01\x00\x00\x00'
p3817
tp3818
Rp3819
tp3820
a(g2343
g3724
VTorino
p3821
(lp3822
V1
p3823
aV3
p3824
ag9
(g13
S'\x01\x00\x00\x00'
p3825
tp3826
Rp3827
tp3828
a(g2343
g3724
VBologna
p3829
(lp3830
V0
p3831
aV0
p3832
ag9
(g13
S'\x01\x00\x00\x00'
p3833
tp3834
Rp3835
tp3836
a(g2343
g3724
VNapoli
p3837
(lp3838
V0
p3839
aV1
p3840
ag9
(g13
S'\xff\xff\xff\xff'
p3841
tp3842
Rp3843
tp3844
a(g2343
VGenoa
p3845
VVerona
p3846
(lp3847
V2
p3848
aV0
p3849
ag9
(g13
S'\x01\x00\x00\x00'
p3850
tp3851
Rp3852
tp3853
a(g2343
g3845
VJuventus
p3854
(lp3855
V0
p3856
aV2
p3857
ag9
(g13
S'\xff\xff\xff\xff'
p3858
tp3859
Rp3860
tp3861
a(g2343
g3845
VAC Milan
p3862
(lp3863
V1
p3864
aV0
p3865
ag9
(g13
S'\x01\x00\x00\x00'
p3866
tp3867
Rp3868
tp3869
a(g2343
g3845
VChievo
p3870
(lp3871
V3
p3872
aV2
p3873
ag9
(g13
S'\x01\x00\x00\x00'
p3874
tp3875
Rp3876
tp3877
a(g2343
g3845
VNapoli
p3878
(lp3879
V0
p3880
aV0
p3881
ag9
(g13
S'\xff\xff\xff\xff'
p3882
tp3883
Rp3884
tp3885
a(g2343
g3845
VSassuolo
p3886
(lp3887
V2
p3888
aV1
p3889
ag9
(g13
S'\x01\x00\x00\x00'
p3890
tp3891
Rp3892
tp3893
a(g2343
g3845
VCarpi
p3894
(lp3895
V1
p3896
aV2
p3897
ag9
(g13
S'\x01\x00\x00\x00'
p3898
tp3899
Rp3900
tp3901
a(g2343
g3845
VBologna
p3902
(lp3903
V0
p3904
aV1
p3905
ag9
(g13
S'\x01\x00\x00\x00'
p3906
tp3907
Rp3908
tp3909
a(g2343
g3845
VSampdoria
p3910
(lp3911
V2
p3912
aV3
p3913
ag9
(g13
S'\x01\x00\x00\x00'
p3914
tp3915
Rp3916
tp3917
a(g2343
g3845
VPalermo
p3918
(lp3919
V4
p3920
aV0
p3921
ag9
(g13
S'\x01\x00\x00\x00'
p3922
tp3923
Rp3924
tp3925
a(g2343
g3845
VFiorentina
p3926
(lp3927
V0
p3928
aV0
p3929
ag9
(g13
S'\xff\xff\xff\xff'
p3930
tp3931
Rp3932
tp3933
a(g2343
g3845
VLazio
p3934
(lp3935
V0
p3936
aV0
p3937
ag9
(g13
S'\x01\x00\x00\x00'
p3938
tp3939
Rp3940
tp3941
a(g2343
g3845
VUdinese
p3942
(lp3943
V2
p3944
aV1
p3945
ag9
(g13
S'\x01\x00\x00\x00'
p3946
tp3947
Rp3948
tp3949
a(g2343
g3845
VEmpoli
p3950
(lp3951
V1
p3952
aV0
p3953
ag9
(g13
S'\x01\x00\x00\x00'
p3954
tp3955
Rp3956
tp3957
a(g2343
g3845
VTorino
p3958
(lp3959
V3
p3960
aV2
p3961
ag9
(g13
S'\x01\x00\x00\x00'
p3962
tp3963
Rp3964
tp3965
a(g2343
VNapoli
p3966
VSampdoria
p3967
(lp3968
V2
p3969
aV2
p3970
ag9
(g13
S'\x01\x00\x00\x00'
p3971
tp3972
Rp3973
tp3974
a(g2343
g3966
VLazio
p3975
(lp3976
V5
p3977
aV0
p3978
ag9
(g13
S'\x01\x00\x00\x00'
p3979
tp3980
Rp3981
tp3982
a(g2343
g3966
VJuventus
p3983
(lp3984
V2
p3985
aV1
p3986
ag9
(g13
S'\x01\x00\x00\x00'
p3987
tp3988
Rp3989
tp3990
a(g2343
g3966
VFiorentina
p3991
(lp3992
V2
p3993
aV1
p3994
ag9
(g13
S'\x01\x00\x00\x00'
p3995
tp3996
Rp3997
tp3998
a(g2343
g3966
VPalermo
p3999
(lp4000
V2
p4001
aV0
p4002
ag9
(g13
S'\x01\x00\x00\x00'
p4003
tp4004
Rp4005
tp4006
a(g2343
g3966
VUdinese
p4007
(lp4008
V1
p4009
aV0
p4010
ag9
(g13
S'\x01\x00\x00\x00'
p4011
tp4012
Rp4013
tp4014
a(g2343
g3966
VInter
p4015
(lp4016
V2
p4017
aV1
p4018
ag9
(g13
S'\x01\x00\x00\x00'
p4019
tp4020
Rp4021
tp4022
a(g2343
g3966
VRoma
p4023
(lp4024
V0
p4025
aV0
p4026
ag9
(g13
S'\x01\x00\x00\x00'
p4027
tp4028
Rp4029
tp4030
a(g2343
g3966
VTorino
p4031
(lp4032
V2
p4033
aV1
p4034
ag9
(g13
S'\x01\x00\x00\x00'
p4035
tp4036
Rp4037
tp4038
a(g2343
g3966
VSassuolo
p4039
(lp4040
V3
p4041
aV1
p4042
ag9
(g13
S'\x01\x00\x00\x00'
p4043
tp4044
Rp4045
tp4046
a(g2343
g3966
VEmpoli
p4047
(lp4048
V5
p4049
aV1
p4050
ag9
(g13
S'\x01\x00\x00\x00'
p4051
tp4052
Rp4053
tp4054
a(g2343
g3966
VCarpi
p4055
(lp4056
V1
p4057
aV0
p4058
ag9
(g13
S'\x01\x00\x00\x00'
p4059
tp4060
Rp4061
tp4062
a(g2343
g3966
VAC Milan
p4063
(lp4064
V1
p4065
aV1
p4066
ag9
(g13
S'\x01\x00\x00\x00'
p4067
tp4068
Rp4069
tp4070
a(g2343
g3966
VChievo
p4071
(lp4072
V3
p4073
aV1
p4074
ag9
(g13
S'\x01\x00\x00\x00'
p4075
tp4076
Rp4077
tp4078
a(g2343
VFiorentina
p4079
VAC Milan
p4080
(lp4081
V2
p4082
aV0
p4083
ag9
(g13
S'\x01\x00\x00\x00'
p4084
tp4085
Rp4086
tp4087
a(g2343
g4079
VGenoa
p4088
(lp4089
V1
p4090
aV0
p4091
ag9
(g13
S'\x01\x00\x00\x00'
p4092
tp4093
Rp4094
tp4095
a(g2343
g4079
VBologna
p4096
(lp4097
V2
p4098
aV0
p4099
ag9
(g13
S'\x01\x00\x00\x00'
p4100
tp4101
Rp4102
tp4103
a(g2343
g4079
VAtalanta
p4104
(lp4105
V3
p4106
aV0
p4107
ag9
(g13
S'\x01\x00\x00\x00'
p4108
tp4109
Rp4110
tp4111
a(g2343
g4079
VRoma
p4112
(lp4113
V1
p4114
aV2
p4115
ag9
(g13
S'\x01\x00\x00\x00'
p4116
tp4117
Rp4118
tp4119
a(g2343
g4079
VFrosinone
p4120
(lp4121
V4
p4122
aV1
p4123
ag9
(g13
S'\x01\x00\x00\x00'
p4124
tp4125
Rp4126
tp4127
a(g2343
g4079
VEmpoli
p4128
(lp4129
V2
p4130
aV2
p4131
ag9
(g13
S'\x01\x00\x00\x00'
p4132
tp4133
Rp4134
tp4135
a(g2343
g4079
VUdinese
p4136
(lp4137
V3
p4138
aV0
p4139
ag9
(g13
S'\x01\x00\x00\x00'
p4140
tp4141
Rp4142
tp4143
a(g2343
g4079
VChievo
p4144
(lp4145
V2
p4146
aV0
p4147
ag9
(g13
S'\x01\x00\x00\x00'
p4148
tp4149
Rp4150
tp4151
a(g2343
g4079
VLazio
p4152
(lp4153
V1
p4154
aV3
p4155
ag9
(g13
S'\x01\x00\x00\x00'
p4156
tp4157
Rp4158
tp4159
a(g2343
g4079
VTorino
p4160
(lp4161
V2
p4162
aV0
p4163
ag9
(g13
S'\x01\x00\x00\x00'
p4164
tp4165
Rp4166
tp4167
a(g2343
g4079
VCarpi
p4168
(lp4169
V2
p4170
aV1
p4171
ag9
(g13
S'\x01\x00\x00\x00'
p4172
tp4173
Rp4174
tp4175
a(g2343
g4079
VInter
p4176
(lp4177
V2
p4178
aV1
p4179
ag9
(g13
S'\x01\x00\x00\x00'
p4180
tp4181
Rp4182
tp4183
a(g2343
g4079
VNapoli
p4184
(lp4185
V1
p4186
aV1
p4187
ag9
(g13
S'\x01\x00\x00\x00'
p4188
tp4189
Rp4190
tp4191
a(g2343
g4079
VVerona
p4192
(lp4193
V1
p4194
aV1
p4195
ag9
(g13
S'\x01\x00\x00\x00'
p4196
tp4197
Rp4198
tp4199
a(g2343
VCarpi
p4200
VInter
p4201
(lp4202
V1
p4203
aV2
p4204
ag9
(g13
S'\xff\xff\xff\xff'
p4205
tp4206
Rp4207
tp4208
a(g2343
g4200
VFiorentina
p4209
(lp4210
V0
p4211
aV1
p4212
ag9
(g13
S'\xff\xff\xff\xff'
p4213
tp4214
Rp4215
tp4216
a(g2343
g4200
VNapoli
p4217
(lp4218
V0
p4219
aV0
p4220
ag9
(g13
S'\xff\xff\xff\xff'
p4221
tp4222
Rp4223
tp4224
a(g2343
g4200
VTorino
p4225
(lp4226
V2
p4227
aV1
p4228
ag9
(g13
S'\xff\xff\xff\xff'
p4229
tp4230
Rp4231
tp4232
a(g2343
g4200
VBologna
p4233
(lp4234
V1
p4235
aV2
p4236
ag9
(g13
S'\xff\xff\xff\xff'
p4237
tp4238
Rp4239
tp4240
a(g2343
g4200
VVerona
p4241
(lp4242
V0
p4243
aV0
p4244
ag9
(g13
S'\x01\x00\x00\x00'
p4245
tp4246
Rp4247
tp4248
a(g2343
g4200
VChievo
p4249
(lp4250
V1
p4251
aV2
p4252
ag9
(g13
S'\xff\xff\xff\xff'
p4253
tp4254
Rp4255
tp4256
a(g2343
g4200
VAC Milan
p4257
(lp4258
V0
p4259
aV0
p4260
ag9
(g13
S'\xff\xff\xff\xff'
p4261
tp4262
Rp4263
tp4264
a(g2343
g4200
VJuventus
p4265
(lp4266
V2
p4267
aV3
p4268
ag9
(g13
S'\xff\xff\xff\xff'
p4269
tp4270
Rp4271
tp4272
a(g2343
g4200
VUdinese
p4273
(lp4274
V2
p4275
aV1
p4276
ag9
(g13
S'\xff\xff\xff\xff'
p4277
tp4278
Rp4279
tp4280
a(g2343
g4200
VSampdoria
p4281
(lp4282
V2
p4283
aV1
p4284
ag9
(g13
S'\x01\x00\x00\x00'
p4285
tp4286
Rp4287
tp4288
a(g2343
g4200
VPalermo
p4289
(lp4290
V1
p4291
aV1
p4292
ag9
(g13
S'\x01\x00\x00\x00'
p4293
tp4294
Rp4295
tp4296
a(g2343
g4200
VRoma
p4297
(lp4298
V1
p4299
aV3
p4300
ag9
(g13
S'\xff\xff\xff\xff'
p4301
tp4302
Rp4303
tp4304
a(g2343
g4200
VAtalanta
p4305
(lp4306
V1
p4307
aV1
p4308
ag9
(g13
S'\xff\xff\xff\xff'
p4309
tp4310
Rp4311
tp4312
a(g2343
g4200
VFrosinone
p4313
(lp4314
V2
p4315
aV1
p4316
ag9
(g13
S'\x01\x00\x00\x00'
p4317
tp4318
Rp4319
tp4320
a(g2343
VChievo
p4321
VLazio
p4322
(lp4323
V4
p4324
aV0
p4325
ag9
(g13
S'\xff\xff\xff\xff'
p4326
tp4327
Rp4328
tp4329
a(g2343
g4321
VInter
p4330
(lp4331
V0
p4332
aV1
p4333
ag9
(g13
S'\xff\xff\xff\xff'
p4334
tp4335
Rp4336
tp4337
a(g2343
g4321
VTorino
p4338
(lp4339
V1
p4340
aV0
p4341
ag9
(g13
S'\x01\x00\x00\x00'
p4342
tp4343
Rp4344
tp4345
a(g2343
g4321
VVerona
p4346
(lp4347
V1
p4348
aV1
p4349
ag9
(g13
S'\x01\x00\x00\x00'
p4350
tp4351
Rp4352
tp4353
a(g2343
g4321
VNapoli
p4354
(lp4355
V0
p4356
aV1
p4357
ag9
(g13
S'\xff\xff\xff\xff'
p4358
tp4359
Rp4360
tp4361
a(g2343
g4321
VSampdoria
p4362
(lp4363
V1
p4364
aV1
p4365
ag9
(g13
S'\x01\x00\x00\x00'
p4366
tp4367
Rp4368
tp4369
a(g2343
g4321
VUdinese
p4370
(lp4371
V2
p4372
aV3
p4373
ag9
(g13
S'\x01\x00\x00\x00'
p4374
tp4375
Rp4376
tp4377
a(g2343
g4321
VAtalanta
p4378
(lp4379
V1
p4380
aV0
p4381
ag9
(g13
S'\x01\x00\x00\x00'
p4382
tp4383
Rp4384
tp4385
a(g2343
g4321
VRoma
p4386
(lp4387
V3
p4388
aV3
p4389
ag9
(g13
S'\xff\xff\xff\xff'
p4390
tp4391
Rp4392
tp4393
a(g2343
g4321
VEmpoli
p4394
(lp4395
V1
p4396
aV1
p4397
ag9
(g13
S'\x01\x00\x00\x00'
p4398
tp4399
Rp4400
tp4401
a(g2343
g4321
VJuventus
p4402
(lp4403
V0
p4404
aV4
p4405
ag9
(g13
S'\xff\xff\xff\xff'
p4406
tp4407
Rp4408
tp4409
a(g2343
g4321
VSassuolo
p4410
(lp4411
V1
p4412
aV1
p4413
ag9
(g13
S'\x01\x00\x00\x00'
p4414
tp4415
Rp4416
tp4417
a(g2343
g4321
VGenoa
p4418
(lp4419
V1
p4420
aV0
p4421
ag9
(g13
S'\x01\x00\x00\x00'
p4422
tp4423
Rp4424
tp4425
a(g2343
g4321
VAC Milan
p4426
(lp4427
V0
p4428
aV0
p4429
ag9
(g13
S'\x01\x00\x00\x00'
p4430
tp4431
Rp4432
tp4433
a(g2343
VEmpoli
p4434
VChievo
p4435
(lp4436
V1
p4437
aV3
p4438
ag9
(g13
S'\x01\x00\x00\x00'
p4439
tp4440
Rp4441
tp4442
a(g2343
g4434
VNapoli
p4443
(lp4444
V2
p4445
aV2
p4446
ag9
(g13
S'\xff\xff\xff\xff'
p4447
tp4448
Rp4449
tp4450
a(g2343
g4434
VAtalanta
p4451
(lp4452
V0
p4453
aV1
p4454
ag9
(g13
S'\x01\x00\x00\x00'
p4455
tp4456
Rp4457
tp4458
a(g2343
g4434
VSassuolo
p4459
(lp4460
V1
p4461
aV0
p4462
ag9
(g13
S'\x01\x00\x00\x00'
p4463
tp4464
Rp4465
tp4466
a(g2343
g4434
VGenoa
p4467
(lp4468
V2
p4469
aV0
p4470
ag9
(g13
S'\x01\x00\x00\x00'
p4471
tp4472
Rp4473
tp4474
a(g2343
g4434
VJuventus
p4475
(lp4476
V1
p4477
aV3
p4478
ag9
(g13
S'\xff\xff\xff\xff'
p4479
tp4480
Rp4481
tp4482
a(g2343
g4434
VLazio
p4483
(lp4484
V1
p4485
aV0
p4486
ag9
(g13
S'\xff\xff\xff\xff'
p4487
tp4488
Rp4489
tp4490
a(g2343
g4434
VCarpi
p4491
(lp4492
V3
p4493
aV0
p4494
ag9
(g13
S'\x01\x00\x00\x00'
p4495
tp4496
Rp4497
tp4498
a(g2343
g4434
VInter
p4499
(lp4500
V0
p4501
aV1
p4502
ag9
(g13
S'\xff\xff\xff\xff'
p4503
tp4504
Rp4505
tp4506
a(g2343
g4434
VAC Milan
p4507
(lp4508
V2
p4509
aV2
p4510
ag9
(g13
S'\x01\x00\x00\x00'
p4511
tp4512
Rp4513
tp4514
a(g2343
g4434
VUdinese
p4515
(lp4516
V1
p4517
aV1
p4518
ag9
(g13
S'\x01\x00\x00\x00'
p4519
tp4520
Rp4521
tp4522
a(g2343
g4434
VFrosinone
p4523
(lp4524
V1
p4525
aV2
p4526
ag9
(g13
S'\x01\x00\x00\x00'
p4527
tp4528
Rp4529
tp4530
a(g2343
g4434
VRoma
p4531
(lp4532
V1
p4533
aV3
p4534
ag9
(g13
S'\xff\xff\xff\xff'
p4535
tp4536
Rp4537
tp4538
a(g2343
g4434
VSampdoria
p4539
(lp4540
V1
p4541
aV1
p4542
ag9
(g13
S'\x01\x00\x00\x00'
p4543
tp4544
Rp4545
tp4546
a(g2343
VAtalanta
p4547
VFrosinone
p4548
(lp4549
V2
p4550
aV0
p4551
ag9
(g13
S'\x01\x00\x00\x00'
p4552
tp4553
Rp4554
tp4555
a(g2343
g4547
VVerona
p4556
(lp4557
V1
p4558
aV1
p4559
ag9
(g13
S'\x01\x00\x00\x00'
p4560
tp4561
Rp4562
tp4563
a(g2343
g4547
VSampdoria
p4564
(lp4565
V2
p4566
aV1
p4567
ag9
(g13
S'\x01\x00\x00\x00'
p4568
tp4569
Rp4570
tp4571
a(g2343
g4547
VCarpi
p4572
(lp4573
V3
p4574
aV0
p4575
ag9
(g13
S'\x01\x00\x00\x00'
p4576
tp4577
Rp4578
tp4579
a(g2343
g4547
VLazio
p4580
(lp4581
V2
p4582
aV1
p4583
ag9
(g13
S'\xff\xff\xff\xff'
p4584
tp4585
Rp4586
tp4587
a(g2343
g4547
VTorino
p4588
(lp4589
V0
p4590
aV1
p4591
ag9
(g13
S'\x01\x00\x00\x00'
p4592
tp4593
Rp4594
tp4595
a(g2343
g4547
VPalermo
p4596
(lp4597
V3
p4598
aV0
p4599
ag9
(g13
S'\x01\x00\x00\x00'
p4600
tp4601
Rp4602
tp4603
a(g2343
g4547
VNapoli
p4604
(lp4605
V1
p4606
aV3
p4607
ag9
(g13
S'\x01\x00\x00\x00'
p4608
tp4609
Rp4610
tp4611
a(g2343
g4547
VGenoa
p4612
(lp4613
V0
p4614
aV2
p4615
ag9
(g13
S'\x01\x00\x00\x00'
p4616
tp4617
Rp4618
tp4619
a(g2343
g4547
VInter
p4620
(lp4621
V1
p4622
aV1
p4623
ag9
(g13
S'\xff\xff\xff\xff'
p4624
tp4625
Rp4626
tp4627
a(g2343
g4547
VSassuolo
p4628
(lp4629
V1
p4630
aV1
p4631
ag9
(g13
S'\x01\x00\x00\x00'
p4632
tp4633
Rp4634
tp4635
a(g2343
g4547
VEmpoli
p4636
(lp4637
V0
p4638
aV0
p4639
ag9
(g13
S'\x01\x00\x00\x00'
p4640
tp4641
Rp4642
tp4643
a(g2343
g4547
VFiorentina
p4644
(lp4645
V2
p4646
aV3
p4647
ag9
(g13
S'\xff\xff\xff\xff'
p4648
tp4649
Rp4650
tp4651
a(g2343
g4547
VJuventus
p4652
(lp4653
V0
p4654
aV2
p4655
ag9
(g13
S'\xff\xff\xff\xff'
p4656
tp4657
Rp4658
tp4659
a(S'Ligue1'
p4660
VSaint-Etienne
p4661
VBordeaux
p4662
(lp4663
V1
p4664
aV1
p4665
ag9
(g13
S'\x01\x00\x00\x00'
p4666
tp4667
Rp4668
tp4669
a(g4660
g4661
VSC Bastia
p4670
(lp4671
V2
p4672
aV1
p4673
ag9
(g13
S'\x01\x00\x00\x00'
p4674
tp4675
Rp4676
tp4677
a(g4660
g4661
VNantes
p4678
(lp4679
V2
p4680
aV0
p4681
ag9
(g13
S'\x01\x00\x00\x00'
p4682
tp4683
Rp4684
tp4685
a(g4660
g4661
VNice
p4686
(lp4687
V1
p4688
aV4
p4689
ag9
(g13
S'\xff\xff\xff\xff'
p4690
tp4691
Rp4692
tp4693
a(g4660
g4661
VGFC Ajaccio
p4694
(lp4695
V2
p4696
aV0
p4697
ag9
(g13
S'\x01\x00\x00\x00'
p4698
tp4699
Rp4700
tp4701
a(g4660
g4661
VReims
p4702
(lp4703
V3
p4704
aV0
p4705
ag9
(g13
S'\x01\x00\x00\x00'
p4706
tp4707
Rp4708
tp4709
a(g4660
g4661
VMarseille
p4710
(lp4711
V0
p4712
aV2
p4713
ag9
(g13
S'\x01\x00\x00\x00'
p4714
tp4715
Rp4716
tp4717
a(g4660
g4661
VGuingamp
p4718
(lp4719
V3
p4720
aV0
p4721
ag9
(g13
S'\x01\x00\x00\x00'
p4722
tp4723
Rp4724
tp4725
a(g4660
g4661
VRennes
p4726
(lp4727
V1
p4728
aV1
p4729
ag9
(g13
S'\x01\x00\x00\x00'
p4730
tp4731
Rp4732
tp4733
a(g4660
g4661
VAngers
p4734
(lp4735
V1
p4736
aV0
p4737
ag9
(g13
S'\x01\x00\x00\x00'
p4738
tp4739
Rp4740
tp4741
a(g4660
g4661
VLyon
p4742
(lp4743
V1
p4744
aV0
p4745
ag9
(g13
S'\x01\x00\x00\x00'
p4746
tp4747
Rp4748
tp4749
a(g4660
g4661
VParis Saint Germain
p4750
(lp4751
V0
p4752
aV2
p4753
ag9
(g13
S'\xff\xff\xff\xff'
p4754
tp4755
Rp4756
tp4757
a(g4660
g4661
VMonaco
p4758
(lp4759
V1
p4760
aV1
p4761
ag9
(g13
S'\x01\x00\x00\x00'
p4762
tp4763
Rp4764
tp4765
a(g4660
g4661
VCaen
p4766
(lp4767
V1
p4768
aV2
p4769
ag9
(g13
S'\x01\x00\x00\x00'
p4770
tp4771
Rp4772
tp4773
a(g4660
VToulouse
p4774
VSaint-Etienne
p4775
(lp4776
V2
p4777
aV1
p4778
ag9
(g13
S'\x01\x00\x00\x00'
p4779
tp4780
Rp4781
tp4782
a(g4660
g4774
VMonaco
p4783
(lp4784
V1
p4785
aV1
p4786
ag9
(g13
S'\xff\xff\xff\xff'
p4787
tp4788
Rp4789
tp4790
a(g4660
g4774
VReims
p4791
(lp4792
V2
p4793
aV2
p4794
ag9
(g13
S'\x01\x00\x00\x00'
p4795
tp4796
Rp4797
tp4798
a(g4660
g4774
VMarseille
p4799
(lp4800
V1
p4801
aV1
p4802
ag9
(g13
S'\x01\x00\x00\x00'
p4803
tp4804
Rp4805
tp4806
a(g4660
g4774
VAngers
p4807
(lp4808
V1
p4809
aV2
p4810
ag9
(g13
S'\x01\x00\x00\x00'
p4811
tp4812
Rp4813
tp4814
a(g4660
g4774
VMontpellier
p4815
(lp4816
V1
p4817
aV1
p4818
ag9
(g13
S'\x01\x00\x00\x00'
p4819
tp4820
Rp4821
tp4822
a(g4660
g4774
VNice
p4823
(lp4824
V2
p4825
aV0
p4826
ag9
(g13
S'\xff\xff\xff\xff'
p4827
tp4828
Rp4829
tp4830
a(g4660
g4774
VLorient
p4831
(lp4832
V2
p4833
aV3
p4834
ag9
(g13
S'\x01\x00\x00\x00'
p4835
tp4836
Rp4837
tp4838
a(g4660
g4774
VLille
p4839
(lp4840
V1
p4841
aV1
p4842
ag9
(g13
S'\x01\x00\x00\x00'
p4843
tp4844
Rp4845
tp4846
a(g4660
g4774
VParis Saint Germain
p4847
(lp4848
V0
p4849
aV1
p4850
ag9
(g13
S'\xff\xff\xff\xff'
p4851
tp4852
Rp4853
tp4854
a(g4660
g4774
VGuingamp
p4855
(lp4856
V1
p4857
aV2
p4858
ag9
(g13
S'\x01\x00\x00\x00'
p4859
tp4860
Rp4861
tp4862
a(g4660
g4774
VNantes
p4863
(lp4864
V0
p4865
aV0
p4866
ag9
(g13
S'\x01\x00\x00\x00'
p4867
tp4868
Rp4869
tp4870
a(g4660
g4774
VGFC Ajaccio
p4871
(lp4872
V1
p4873
aV1
p4874
ag9
(g13
S'\x01\x00\x00\x00'
p4875
tp4876
Rp4877
tp4878
a(g4660
g4774
VRennes
p4879
(lp4880
V1
p4881
aV2
p4882
ag9
(g13
S'\xff\xff\xff\xff'
p4883
tp4884
Rp4885
tp4886
a(g4660
VRennes
p4887
VMontpellier
p4888
(lp4889
V1
p4890
aV0
p4891
ag9
(g13
S'\x01\x00\x00\x00'
p4892
tp4893
Rp4894
tp4895
a(g4660
g4887
VToulouse
p4896
(lp4897
V3
p4898
aV1
p4899
ag9
(g13
S'\x01\x00\x00\x00'
p4900
tp4901
Rp4902
tp4903
a(g4660
g4887
VLille
p4904
(lp4905
V1
p4906
aV1
p4907
ag9
(g13
S'\x01\x00\x00\x00'
p4908
tp4909
Rp4910
tp4911
a(g4660
g4887
VTroyes
p4912
(lp4913
V1
p4914
aV1
p4915
ag9
(g13
S'\x01\x00\x00\x00'
p4916
tp4917
Rp4918
tp4919
a(g4660
g4887
VNice
p4920
(lp4921
V1
p4922
aV4
p4923
ag9
(g13
S'\xff\xff\xff\xff'
p4924
tp4925
Rp4926
tp4927
a(g4660
g4887
VParis Saint Germain
p4928
(lp4929
V0
p4930
aV1
p4931
ag9
(g13
S'\xff\xff\xff\xff'
p4932
tp4933
Rp4934
tp4935
a(g4660
g4887
VBordeaux
p4936
(lp4937
V2
p4938
aV2
p4939
ag9
(g13
S'\x01\x00\x00\x00'
p4940
tp4941
Rp4942
tp4943
a(g4660
g4887
VMarseille
p4944
(lp4945
V0
p4946
aV1
p4947
ag9
(g13
S'\xff\xff\xff\xff'
p4948
tp4949
Rp4950
tp4951
a(g4660
g4887
VCaen
p4952
(lp4953
V1
p4954
aV1
p4955
ag9
(g13
S'\x01\x00\x00\x00'
p4956
tp4957
Rp4958
tp4959
a(g4660
g4887
VLorient
p4960
(lp4961
V2
p4962
aV2
p4963
ag9
(g13
S'\x01\x00\x00\x00'
p4964
tp4965
Rp4966
tp4967
a(g4660
g4887
VGFC Ajaccio
p4968
(lp4969
V1
p4970
aV0
p4971
ag9
(g13
S'\x01\x00\x00\x00'
p4972
tp4973
Rp4974
tp4975
a(g4660
g4887
VSaint-Etienne
p4976
(lp4977
V0
p4978
aV1
p4979
ag9
(g13
S'\x01\x00\x00\x00'
p4980
tp4981
Rp4982
tp4983
a(g4660
g4887
VAngers
p4984
(lp4985
V1
p4986
aV0
p4987
ag9
(g13
S'\x01\x00\x00\x00'
p4988
tp4989
Rp4990
tp4991
a(g4660
g4887
VNantes
p4992
(lp4993
V4
p4994
aV1
p4995
ag9
(g13
S'\x01\x00\x00\x00'
p4996
tp4997
Rp4998
tp4999
a(g4660
VNice
p5000
VMonaco
p5001
(lp5002
V1
p5003
aV2
p5004
ag9
(g13
S'\x01\x00\x00\x00'
p5005
tp5006
Rp5007
tp5008
a(g4660
g5000
VCaen
p5009
(lp5010
V2
p5011
aV1
p5012
ag9
(g13
S'\x01\x00\x00\x00'
p5013
tp5014
Rp5015
tp5016
a(g4660
g5000
VGuingamp
p5017
(lp5018
V0
p5019
aV1
p5020
ag9
(g13
S'\x01\x00\x00\x00'
p5021
tp5022
Rp5023
tp5024
a(g4660
g5000
VBordeaux
p5025
(lp5026
V6
p5027
aV1
p5028
ag9
(g13
S'\x01\x00\x00\x00'
p5029
tp5030
Rp5031
tp5032
a(g4660
g5000
VLille
p5033
(lp5034
V0
p5035
aV0
p5036
ag9
(g13
S'\x01\x00\x00\x00'
p5037
tp5038
Rp5039
tp5040
a(g4660
g5000
VNantes
p5041
(lp5042
V1
p5043
aV2
p5044
ag9
(g13
S'\x01\x00\x00\x00'
p5045
tp5046
Rp5047
tp5048
a(g4660
g5000
VLyon
p5049
(lp5050
V3
p5051
aV0
p5052
ag9
(g13
S'\x01\x00\x00\x00'
p5053
tp5054
Rp5055
tp5056
a(g4660
g5000
VParis Saint Germain
p5057
(lp5058
V0
p5059
aV3
p5060
ag9
(g13
S'\xff\xff\xff\xff'
p5061
tp5062
Rp5063
tp5064
a(g4660
g5000
VMontpellier
p5065
(lp5066
V1
p5067
aV0
p5068
ag9
(g13
S'\x01\x00\x00\x00'
p5069
tp5070
Rp5071
tp5072
a(g4660
g5000
VAngers
p5073
(lp5074
V2
p5075
aV1
p5076
ag9
(g13
S'\x01\x00\x00\x00'
p5077
tp5078
Rp5079
tp5080
a(g4660
g5000
VLorient
p5081
(lp5082
V2
p5083
aV1
p5084
ag9
(g13
S'\x01\x00\x00\x00'
p5085
tp5086
Rp5087
tp5088
a(g4660
g5000
VToulouse
p5089
(lp5090
V1
p5091
aV0
p5092
ag9
(g13
S'\x01\x00\x00\x00'
p5093
tp5094
Rp5095
tp5096
a(g4660
g5000
VMarseille
p5097
(lp5098
V1
p5099
aV1
p5100
ag9
(g13
S'\x01\x00\x00\x00'
p5101
tp5102
Rp5103
tp5104
a(g4660
g5000
VSC Bastia
p5105
(lp5106
V0
p5107
aV2
p5108
ag9
(g13
S'\x01\x00\x00\x00'
p5109
tp5110
Rp5111
tp5112
a(g4660
g5000
VTroyes
p5113
(lp5114
V2
p5115
aV1
p5116
ag9
(g13
S'\x01\x00\x00\x00'
p5117
tp5118
Rp5119
tp5120
a(g4660
VMontpellier
p5121
VParis Saint Germain
p5122
(lp5123
V0
p5124
aV1
p5125
ag9
(g13
S'\xff\xff\xff\xff'
p5126
tp5127
Rp5128
tp5129
a(g4660
g5121
VSaint-Etienne
p5130
(lp5131
V1
p5132
aV2
p5133
ag9
(g13
S'\x01\x00\x00\x00'
p5134
tp5135
Rp5136
tp5137
a(g4660
g5121
VMonaco
p5138
(lp5139
V2
p5140
aV3
p5141
ag9
(g13
S'\x01\x00\x00\x00'
p5142
tp5143
Rp5144
tp5145
a(g4660
g5121
VLorient
p5146
(lp5147
V2
p5148
aV1
p5149
ag9
(g13
S'\x01\x00\x00\x00'
p5150
tp5151
Rp5152
tp5153
a(g4660
g5121
VSC Bastia
p5154
(lp5155
V2
p5156
aV0
p5157
ag9
(g13
S'\x01\x00\x00\x00'
p5158
tp5159
Rp5160
tp5161
a(g4660
g5121
VNantes
p5162
(lp5163
V2
p5164
aV1
p5165
ag9
(g13
S'\x01\x00\x00\x00'
p5166
tp5167
Rp5168
tp5169
a(g4660
g5121
VReims
p5170
(lp5171
V3
p5172
aV1
p5173
ag9
(g13
S'\x01\x00\x00\x00'
p5174
tp5175
Rp5176
tp5177
a(g4660
g5121
VGFC Ajaccio
p5178
(lp5179
V0
p5180
aV2
p5181
ag9
(g13
S'\x01\x00\x00\x00'
p5182
tp5183
Rp5184
tp5185
a(g4660
g5121
VGuingamp
p5186
(lp5187
V2
p5188
aV1
p5189
ag9
(g13
S'\x01\x00\x00\x00'
p5190
tp5191
Rp5192
tp5193
a(g4660
g5121
VBordeaux
p5194
(lp5195
V0
p5196
aV1
p5197
ag9
(g13
S'\x01\x00\x00\x00'
p5198
tp5199
Rp5200
tp5201
a(g4660
g5121
VCaen
p5202
(lp5203
V1
p5204
aV2
p5205
ag9
(g13
S'\x01\x00\x00\x00'
p5206
tp5207
Rp5208
tp5209
a(g4660
g5121
VMarseille
p5210
(lp5211
V0
p5212
aV1
p5213
ag9
(g13
S'\x01\x00\x00\x00'
p5214
tp5215
Rp5216
tp5217
a(g4660
g5121
VToulouse
p5218
(lp5219
V2
p5220
aV0
p5221
ag9
(g13
S'\x01\x00\x00\x00'
p5222
tp5223
Rp5224
tp5225
a(g4660
g5121
VLille
p5226
(lp5227
V3
p5228
aV0
p5229
ag9
(g13
S'\x01\x00\x00\x00'
p5230
tp5231
Rp5232
tp5233
a(g4660
VMarseille
p5234
VCaen
p5235
(lp5236
V0
p5237
aV1
p5238
ag9
(g13
S'\x01\x00\x00\x00'
p5239
tp5240
Rp5241
tp5242
a(g4660
g5234
VTroyes
p5243
(lp5244
V6
p5245
aV0
p5246
ag9
(g13
S'\x01\x00\x00\x00'
p5247
tp5248
Rp5249
tp5250
a(g4660
g5234
VSC Bastia
p5251
(lp5252
V4
p5253
aV1
p5254
ag9
(g13
S'\x01\x00\x00\x00'
p5255
tp5256
Rp5257
tp5258
a(g4660
g5234
VLyon
p5259
(lp5260
V1
p5261
aV1
p5262
ag9
(g13
S'\xff\xff\xff\xff'
p5263
tp5264
Rp5265
tp5266
a(g4660
g5234
VAngers
p5267
(lp5268
V1
p5269
aV2
p5270
ag9
(g13
S'\x01\x00\x00\x00'
p5271
tp5272
Rp5273
tp5274
a(g4660
g5234
VLorient
p5275
(lp5276
V1
p5277
aV1
p5278
ag9
(g13
S'\x01\x00\x00\x00'
p5279
tp5280
Rp5281
tp5282
a(g4660
g5234
VNice
p5283
(lp5284
V0
p5285
aV1
p5286
ag9
(g13
S'\x01\x00\x00\x00'
p5287
tp5288
Rp5289
tp5290
a(g4660
g5234
VMonaco
p5291
(lp5292
V3
p5293
aV3
p5294
ag9
(g13
S'\x01\x00\x00\x00'
p5295
tp5296
Rp5297
tp5298
a(g4660
g5234
VMontpellier
p5299
(lp5300
V2
p5301
aV2
p5302
ag9
(g13
S'\x01\x00\x00\x00'
p5303
tp5304
Rp5305
tp5306
a(g4660
g5234
VGFC Ajaccio
p5307
(lp5308
V1
p5309
aV1
p5310
ag9
(g13
S'\x01\x00\x00\x00'
p5311
tp5312
Rp5313
tp5314
a(g4660
g5234
VGuingamp
p5315
(lp5316
V0
p5317
aV0
p5318
ag9
(g13
S'\x01\x00\x00\x00'
p5319
tp5320
Rp5321
tp5322
a(g4660
g5234
VLille
p5323
(lp5324
V1
p5325
aV1
p5326
ag9
(g13
S'\x01\x00\x00\x00'
p5327
tp5328
Rp5329
tp5330
a(g4660
g5234
VParis Saint Germain
p5331
(lp5332
V1
p5333
aV2
p5334
ag9
(g13
S'\xff\xff\xff\xff'
p5335
tp5336
Rp5337
tp5338
a(g4660
g5234
VSaint-Etienne
p5339
(lp5340
V1
p5341
aV1
p5342
ag9
(g13
S'\x01\x00\x00\x00'
p5343
tp5344
Rp5345
tp5346
a(g4660
g5234
VToulouse
p5347
(lp5348
V1
p5349
aV1
p5350
ag9
(g13
S'\x01\x00\x00\x00'
p5351
tp5352
Rp5353
tp5354
a(g4660
VLyon
p5355
VLorient
p5356
(lp5357
V0
p5358
aV0
p5359
ag9
(g13
S'\x01\x00\x00\x00'
p5360
tp5361
Rp5362
tp5363
a(g4660
g5355
VRennes
p5364
(lp5365
V1
p5366
aV2
p5367
ag9
(g13
S'\x01\x00\x00\x00'
p5368
tp5369
Rp5370
tp5371
a(g4660
g5355
VLille
p5372
(lp5373
V0
p5374
aV0
p5375
ag9
(g13
S'\x01\x00\x00\x00'
p5376
tp5377
Rp5378
tp5379
a(g4660
g5355
VSC Bastia
p5380
(lp5381
V2
p5382
aV0
p5383
ag9
(g13
S'\x01\x00\x00\x00'
p5384
tp5385
Rp5386
tp5387
a(g4660
g5355
VReims
p5388
(lp5389
V1
p5390
aV0
p5391
ag9
(g13
S'\x01\x00\x00\x00'
p5392
tp5393
Rp5394
tp5395
a(g4660
g5355
VToulouse
p5396
(lp5397
V3
p5398
aV0
p5399
ag9
(g13
S'\x01\x00\x00\x00'
p5400
tp5401
Rp5402
tp5403
a(g4660
g5355
VSaint-Etienne
p5404
(lp5405
V3
p5406
aV0
p5407
ag9
(g13
S'\x01\x00\x00\x00'
p5408
tp5409
Rp5410
tp5411
a(g4660
g5355
VMontpellier
p5412
(lp5413
V2
p5414
aV4
p5415
ag9
(g13
S'\x01\x00\x00\x00'
p5416
tp5417
Rp5418
tp5419
a(g4660
g5355
VAngers
p5420
(lp5421
V0
p5422
aV2
p5423
ag9
(g13
S'\x01\x00\x00\x00'
p5424
tp5425
Rp5426
tp5427
a(g4660
g5355
VTroyes
p5428
(lp5429
V4
p5430
aV1
p5431
ag9
(g13
S'\x01\x00\x00\x00'
p5432
tp5433
Rp5434
tp5435
a(g4660
g5355
VMarseille
p5436
(lp5437
V1
p5438
aV1
p5439
ag9
(g13
S'\x01\x00\x00\x00'
p5440
tp5441
Rp5442
tp5443
a(g4660
g5355
VBordeaux
p5444
(lp5445
V3
p5446
aV0
p5447
ag9
(g13
S'\x01\x00\x00\x00'
p5448
tp5449
Rp5450
tp5451
a(g4660
g5355
VCaen
p5452
(lp5453
V4
p5454
aV1
p5455
ag9
(g13
S'\x01\x00\x00\x00'
p5456
tp5457
Rp5458
tp5459
a(g4660
g5355
VParis Saint Germain
p5460
(lp5461
V2
p5462
aV1
p5463
ag9
(g13
S'\x01\x00\x00\x00'
p5464
tp5465
Rp5466
tp5467
a(g4660
g5355
VGuingamp
p5468
(lp5469
V5
p5470
aV1
p5471
ag9
(g13
S'\x01\x00\x00\x00'
p5472
tp5473
Rp5474
tp5475
a(g4660
VGFC Ajaccio
p5476
VAngers
p5477
(lp5478
V0
p5479
aV2
p5480
ag9
(g13
S'\xff\xff\xff\xff'
p5481
tp5482
Rp5483
tp5484
a(g4660
g5476
VMonaco
p5485
(lp5486
V0
p5487
aV1
p5488
ag9
(g13
S'\x01\x00\x00\x00'
p5489
tp5490
Rp5491
tp5492
a(g4660
g5476
VRennes
p5493
(lp5494
V1
p5495
aV1
p5496
ag9
(g13
S'\xff\xff\xff\xff'
p5497
tp5498
Rp5499
tp5500
a(g4660
g5476
VToulouse
p5501
(lp5502
V2
p5503
aV2
p5504
ag9
(g13
S'\x01\x00\x00\x00'
p5505
tp5506
Rp5507
tp5508
a(g4660
g5476
VNice
p5509
(lp5510
V3
p5511
aV1
p5512
ag9
(g13
S'\xff\xff\xff\xff'
p5513
tp5514
Rp5515
tp5516
a(g4660
g5476
VBordeaux
p5517
(lp5518
V2
p5519
aV0
p5520
ag9
(g13
S'\xff\xff\xff\xff'
p5521
tp5522
Rp5523
tp5524
a(g4660
g5476
VLorient
p5525
(lp5526
V1
p5527
aV1
p5528
ag9
(g13
S'\x01\x00\x00\x00'
p5529
tp5530
Rp5531
tp5532
a(g4660
g5476
VNantes
p5533
(lp5534
V1
p5535
aV1
p5536
ag9
(g13
S'\x01\x00\x00\x00'
p5537
tp5538
Rp5539
tp5540
a(g4660
g5476
VLyon
p5541
(lp5542
V2
p5543
aV1
p5544
ag9
(g13
S'\x01\x00\x00\x00'
p5545
tp5546
Rp5547
tp5548
a(g4660
g5476
VReims
p5549
(lp5550
V2
p5551
aV2
p5552
ag9
(g13
S'\x01\x00\x00\x00'
p5553
tp5554
Rp5555
tp5556
a(g4660
g5476
VMontpellier
p5557
(lp5558
V0
p5559
aV4
p5560
ag9
(g13
S'\x01\x00\x00\x00'
p5561
tp5562
Rp5563
tp5564
a(g4660
g5476
VGuingamp
p5565
(lp5566
V0
p5567
aV0
p5568
ag9
(g13
S'\x01\x00\x00\x00'
p5569
tp5570
Rp5571
tp5572
a(g4660
g5476
VTroyes
p5573
(lp5574
V2
p5575
aV3
p5576
ag9
(g13
S'\x01\x00\x00\x00'
p5577
tp5578
Rp5579
tp5580
a(g4660
g5476
VMarseille
p5581
(lp5582
V1
p5583
aV1
p5584
ag9
(g13
S'\x01\x00\x00\x00'
p5585
tp5586
Rp5587
tp5588
a(g4660
VGuingamp
p5589
VLyon
p5590
(lp5591
V0
p5592
aV1
p5593
ag9
(g13
S'\xff\xff\xff\xff'
p5594
tp5595
Rp5596
tp5597
a(g4660
g5589
VMarseille
p5598
(lp5599
V2
p5600
aV0
p5601
ag9
(g13
S'\x01\x00\x00\x00'
p5602
tp5603
Rp5604
tp5605
a(g4660
g5589
VGFC Ajaccio
p5606
(lp5607
V2
p5608
aV1
p5609
ag9
(g13
S'\x01\x00\x00\x00'
p5610
tp5611
Rp5612
tp5613
a(g4660
g5589
VMonaco
p5614
(lp5615
V3
p5616
aV3
p5617
ag9
(g13
S'\xff\xff\xff\xff'
p5618
tp5619
Rp5620
tp5621
a(g4660
g5589
VLille
p5622
(lp5623
V1
p5624
aV1
p5625
ag9
(g13
S'\x01\x00\x00\x00'
p5626
tp5627
Rp5628
tp5629
a(g4660
g5589
VLorient
p5630
(lp5631
V2
p5632
aV2
p5633
ag9
(g13
S'\x01\x00\x00\x00'
p5634
tp5635
Rp5636
tp5637
a(g4660
g5589
VToulouse
p5638
(lp5639
V2
p5640
aV0
p5641
ag9
(g13
S'\xff\xff\xff\xff'
p5642
tp5643
Rp5644
tp5645
a(g4660
g5589
VReims
p5646
(lp5647
V1
p5648
aV2
p5649
ag9
(g13
S'\xff\xff\xff\xff'
p5650
tp5651
Rp5652
tp5653
a(g4660
g5589
VRennes
p5654
(lp5655
V0
p5656
aV2
p5657
ag9
(g13
S'\x01\x00\x00\x00'
p5658
tp5659
Rp5660
tp5661
a(g4660
g5589
VNantes
p5662
(lp5663
V2
p5664
aV2
p5665
ag9
(g13
S'\xff\xff\xff\xff'
p5666
tp5667
Rp5668
tp5669
a(g4660
g5589
VSC Bastia
p5670
(lp5671
V1
p5672
aV0
p5673
ag9
(g13
S'\x01\x00\x00\x00'
p5674
tp5675
Rp5676
tp5677
a(g4660
g5589
VTroyes
p5678
(lp5679
V4
p5680
aV0
p5681
ag9
(g13
S'\x01\x00\x00\x00'
p5682
tp5683
Rp5684
tp5685
a(g4660
g5589
VBordeaux
p5686
(lp5687
V2
p5688
aV4
p5689
ag9
(g13
S'\xff\xff\xff\xff'
p5690
tp5691
Rp5692
tp5693
a(g4660
g5589
VAngers
p5694
(lp5695
V2
p5696
aV2
p5697
ag9
(g13
S'\x01\x00\x00\x00'
p5698
tp5699
Rp5700
tp5701
a(g4660
VLorient
p5702
VSC Bastia
p5703
(lp5704
V1
p5705
aV1
p5706
ag9
(g13
S'\x01\x00\x00\x00'
p5707
tp5708
Rp5709
tp5710
a(g4660
g5702
VSaint-Etienne
p5711
(lp5712
V0
p5713
aV1
p5714
ag9
(g13
S'\x01\x00\x00\x00'
p5715
tp5716
Rp5717
tp5718
a(g4660
g5702
VAngers
p5719
(lp5720
V3
p5721
aV1
p5722
ag9
(g13
S'\x01\x00\x00\x00'
p5723
tp5724
Rp5725
tp5726
a(g4660
g5702
VCaen
p5727
(lp5728
V2
p5729
aV0
p5730
ag9
(g13
S'\x01\x00\x00\x00'
p5731
tp5732
Rp5733
tp5734
a(g4660
g5702
VBordeaux
p5735
(lp5736
V3
p5737
aV2
p5738
ag9
(g13
S'\x01\x00\x00\x00'
p5739
tp5740
Rp5741
tp5742
a(g4660
g5702
VRennes
p5743
(lp5744
V1
p5745
aV1
p5746
ag9
(g13
S'\x01\x00\x00\x00'
p5747
tp5748
Rp5749
tp5750
a(g4660
g5702
VTroyes
p5751
(lp5752
V4
p5753
aV1
p5754
ag9
(g13
S'\x01\x00\x00\x00'
p5755
tp5756
Rp5757
tp5758
a(g4660
g5702
VParis Saint Germain
p5759
(lp5760
V1
p5761
aV2
p5762
ag9
(g13
S'\xff\xff\xff\xff'
p5763
tp5764
Rp5765
tp5766
a(g4660
g5702
VNice
p5767
(lp5768
V0
p5769
aV0
p5770
ag9
(g13
S'\xff\xff\xff\xff'
p5771
tp5772
Rp5773
tp5774
a(g4660
g5702
VNantes
p5775
(lp5776
V0
p5777
aV0
p5778
ag9
(g13
S'\x01\x00\x00\x00'
p5779
tp5780
Rp5781
tp5782
a(g4660
g5702
VMonaco
p5783
(lp5784
V0
p5785
aV2
p5786
ag9
(g13
S'\x01\x00\x00\x00'
p5787
tp5788
Rp5789
tp5790
a(g4660
g5702
VReims
p5791
(lp5792
V2
p5793
aV0
p5794
ag9
(g13
S'\x01\x00\x00\x00'
p5795
tp5796
Rp5797
tp5798
a(g4660
g5702
VMontpellier
p5799
(lp5800
V1
p5801
aV1
p5802
ag9
(g13
S'\x01\x00\x00\x00'
p5803
tp5804
Rp5805
tp5806
a(g4660
g5702
VGuingamp
p5807
(lp5808
V4
p5809
aV3
p5810
ag9
(g13
S'\x01\x00\x00\x00'
p5811
tp5812
Rp5813
tp5814
a(g4660
g5702
VMarseille
p5815
(lp5816
V1
p5817
aV1
p5818
ag9
(g13
S'\x01\x00\x00\x00'
p5819
tp5820
Rp5821
tp5822
a(g4660
VLille
p5823
VParis Saint Germain
p5824
(lp5825
V0
p5826
aV1
p5827
ag9
(g13
S'\xff\xff\xff\xff'
p5828
tp5829
Rp5830
tp5831
a(g4660
g5823
VBordeaux
p5832
(lp5833
V0
p5834
aV0
p5835
ag9
(g13
S'\x01\x00\x00\x00'
p5836
tp5837
Rp5838
tp5839
a(g4660
g5823
VGFC Ajaccio
p5840
(lp5841
V1
p5842
aV0
p5843
ag9
(g13
S'\x01\x00\x00\x00'
p5844
tp5845
Rp5846
tp5847
a(g4660
g5823
VNantes
p5848
(lp5849
V0
p5850
aV1
p5851
ag9
(g13
S'\x01\x00\x00\x00'
p5852
tp5853
Rp5854
tp5855
a(g4660
g5823
VMontpellier
p5856
(lp5857
V2
p5858
aV0
p5859
ag9
(g13
S'\x01\x00\x00\x00'
p5860
tp5861
Rp5862
tp5863
a(g4660
g5823
VMarseille
p5864
(lp5865
V1
p5866
aV2
p5867
ag9
(g13
S'\xff\xff\xff\xff'
p5868
tp5869
Rp5870
tp5871
a(g4660
g5823
VSC Bastia
p5872
(lp5873
V1
p5874
aV1
p5875
ag9
(g13
S'\x01\x00\x00\x00'
p5876
tp5877
Rp5878
tp5879
a(g4660
g5823
VSaint-Etienne
p5880
(lp5881
V1
p5882
aV0
p5883
ag9
(g13
S'\x01\x00\x00\x00'
p5884
tp5885
Rp5886
tp5887
a(g4660
g5823
VLorient
p5888
(lp5889
V3
p5890
aV0
p5891
ag9
(g13
S'\x01\x00\x00\x00'
p5892
tp5893
Rp5894
tp5895
a(g4660
g5823
VNice
p5896
(lp5897
V1
p5898
aV1
p5899
ag9
(g13
S'\x01\x00\x00\x00'
p5900
tp5901
Rp5902
tp5903
a(g4660
g5823
VTroyes
p5904
(lp5905
V1
p5906
aV3
p5907
ag9
(g13
S'\x01\x00\x00\x00'
p5908
tp5909
Rp5910
tp5911
a(g4660
g5823
VCaen
p5912
(lp5913
V1
p5914
aV0
p5915
ag9
(g13
S'\x01\x00\x00\x00'
p5916
tp5917
Rp5918
tp5919
a(g4660
g5823
VRennes
p5920
(lp5921
V1
p5922
aV1
p5923
ag9
(g13
S'\x01\x00\x00\x00'
p5924
tp5925
Rp5926
tp5927
a(g4660
g5823
VLyon
p5928
(lp5929
V1
p5930
aV0
p5931
ag9
(g13
S'\xff\xff\xff\xff'
p5932
tp5933
Rp5934
tp5935
a(g4660
g5823
VReims
p5936
(lp5937
V2
p5938
aV0
p5939
ag9
(g13
S'\x01\x00\x00\x00'
p5940
tp5941
Rp5942
tp5943
a(g4660
VReims
p5944
VMarseille
p5945
(lp5946
V1
p5947
aV0
p5948
ag9
(g13
S'\xff\xff\xff\xff'
p5949
tp5950
Rp5951
tp5952
a(g4660
g5944
VLorient
p5953
(lp5954
V4
p5955
aV1
p5956
ag9
(g13
S'\x01\x00\x00\x00'
p5957
tp5958
Rp5959
tp5960
a(g4660
g5944
VParis Saint Germain
p5961
(lp5962
V1
p5963
aV1
p5964
ag9
(g13
S'\xff\xff\xff\xff'
p5965
tp5966
Rp5967
tp5968
a(g4660
g5944
VLille
p5969
(lp5970
V1
p5971
aV0
p5972
ag9
(g13
S'\x01\x00\x00\x00'
p5973
tp5974
Rp5975
tp5976
a(g4660
g5944
VCaen
p5977
(lp5978
V0
p5979
aV1
p5980
ag9
(g13
S'\x01\x00\x00\x00'
p5981
tp5982
Rp5983
tp5984
a(g4660
g5944
VMonaco
p5985
(lp5986
V0
p5987
aV1
p5988
ag9
(g13
S'\x01\x00\x00\x00'
p5989
tp5990
Rp5991
tp5992
a(g4660
g5944
VGFC Ajaccio
p5993
(lp5994
V1
p5995
aV2
p5996
ag9
(g13
S'\x01\x00\x00\x00'
p5997
tp5998
Rp5999
tp6000
a(g4660
g5944
VRennes
p6001
(lp6002
V2
p6003
aV2
p6004
ag9
(g13
S'\x01\x00\x00\x00'
p6005
tp6006
Rp6007
tp6008
a(g4660
g5944
VTroyes
p6009
(lp6010
V1
p6011
aV1
p6012
ag9
(g13
S'\x01\x00\x00\x00'
p6013
tp6014
Rp6015
tp6016
a(g4660
g5944
VNice
p6017
(lp6018
V1
p6019
aV1
p6020
ag9
(g13
S'\xff\xff\xff\xff'
p6021
tp6022
Rp6023
tp6024
a(g4660
g5944
VToulouse
p6025
(lp6026
V1
p6027
aV3
p6028
ag9
(g13
S'\x01\x00\x00\x00'
p6029
tp6030
Rp6031
tp6032
a(g4660
g5944
VSaint-Etienne
p6033
(lp6034
V1
p6035
aV1
p6036
ag9
(g13
S'\xff\xff\xff\xff'
p6037
tp6038
Rp6039
tp6040
a(g4660
g5944
VAngers
p6041
(lp6042
V2
p6043
aV1
p6044
ag9
(g13
S'\x01\x00\x00\x00'
p6045
tp6046
Rp6047
tp6048
a(g4660
g5944
VSC Bastia
p6049
(lp6050
V0
p6051
aV1
p6052
ag9
(g13
S'\x01\x00\x00\x00'
p6053
tp6054
Rp6055
tp6056
a(g4660
g5944
VBordeaux
p6057
(lp6058
V4
p6059
aV1
p6060
ag9
(g13
S'\x01\x00\x00\x00'
p6061
tp6062
Rp6063
tp6064
a(g4660
VMonaco
p6065
VLille
p6066
(lp6067
V0
p6068
aV0
p6069
ag9
(g13
S'\x01\x00\x00\x00'
p6070
tp6071
Rp6072
tp6073
a(g4660
g6065
VParis Saint Germain
p6074
(lp6075
V0
p6076
aV3
p6077
ag9
(g13
S'\xff\xff\xff\xff'
p6078
tp6079
Rp6080
tp6081
a(g4660
g6065
VLorient
p6082
(lp6083
V2
p6084
aV3
p6085
ag9
(g13
S'\x01\x00\x00\x00'
p6086
tp6087
Rp6088
tp6089
a(g4660
g6065
VRennes
p6090
(lp6091
V1
p6092
aV1
p6093
ag9
(g13
S'\x01\x00\x00\x00'
p6094
tp6095
Rp6096
tp6097
a(g4660
g6065
VLyon
p6098
(lp6099
V1
p6100
aV1
p6101
ag9
(g13
S'\xff\xff\xff\xff'
p6102
tp6103
Rp6104
tp6105
a(g4660
g6065
VAngers
p6106
(lp6107
V1
p6108
aV0
p6109
ag9
(g13
S'\x01\x00\x00\x00'
p6110
tp6111
Rp6112
tp6113
a(g4660
g6065
VNantes
p6114
(lp6115
V1
p6116
aV0
p6117
ag9
(g13
S'\x01\x00\x00\x00'
p6118
tp6119
Rp6120
tp6121
a(g4660
g6065
VCaen
p6122
(lp6123
V1
p6124
aV1
p6125
ag9
(g13
S'\x01\x00\x00\x00'
p6126
tp6127
Rp6128
tp6129
a(g4660
g6065
VSaint-Etienne
p6130
(lp6131
V1
p6132
aV0
p6133
ag9
(g13
S'\x01\x00\x00\x00'
p6134
tp6135
Rp6136
tp6137
a(g4660
g6065
VGFC Ajaccio
p6138
(lp6139
V2
p6140
aV2
p6141
ag9
(g13
S'\x01\x00\x00\x00'
p6142
tp6143
Rp6144
tp6145
a(g4660
g6065
VToulouse
p6146
(lp6147
V4
p6148
aV0
p6149
ag9
(g13
S'\x01\x00\x00\x00'
p6150
tp6151
Rp6152
tp6153
a(g4660
g6065
VSC Bastia
p6154
(lp6155
V2
p6156
aV0
p6157
ag9
(g13
S'\x01\x00\x00\x00'
p6158
tp6159
Rp6160
tp6161
a(g4660
g6065
VNice
p6162
(lp6163
V1
p6164
aV0
p6165
ag9
(g13
S'\x01\x00\x00\x00'
p6166
tp6167
Rp6168
tp6169
a(g4660
g6065
VTroyes
p6170
(lp6171
V3
p6172
aV1
p6173
ag9
(g13
S'\x01\x00\x00\x00'
p6174
tp6175
Rp6176
tp6177
a(g4660
g6065
VReims
p6178
(lp6179
V2
p6180
aV2
p6181
ag9
(g13
S'\x01\x00\x00\x00'
p6182
tp6183
Rp6184
tp6185
a(g4660
VTroyes
p6186
VNice
p6187
(lp6188
V3
p6189
aV3
p6190
ag9
(g13
S'\x01\x00\x00\x00'
p6191
tp6192
Rp6193
tp6194
a(g4660
g6186
VMontpellier
p6195
(lp6196
V0
p6197
aV0
p6198
ag9
(g13
S'\xff\xff\xff\xff'
p6199
tp6200
Rp6201
tp6202
a(g4660
g6186
VCaen
p6203
(lp6204
V1
p6205
aV3
p6206
ag9
(g13
S'\x01\x00\x00\x00'
p6207
tp6208
Rp6209
tp6210
a(g4660
g6186
VSaint-Etienne
p6211
(lp6212
V0
p6213
aV1
p6214
ag9
(g13
S'\x01\x00\x00\x00'
p6215
tp6216
Rp6217
tp6218
a(g4660
g6186
VGuingamp
p6219
(lp6220
V0
p6221
aV1
p6222
ag9
(g13
S'\x01\x00\x00\x00'
p6223
tp6224
Rp6225
tp6226
a(g4660
g6186
VLyon
p6227
(lp6228
V0
p6229
aV1
p6230
ag9
(g13
S'\xff\xff\xff\xff'
p6231
tp6232
Rp6233
tp6234
a(g4660
g6186
VLille
p6235
(lp6236
V1
p6237
aV1
p6238
ag9
(g13
S'\xff\xff\xff\xff'
p6239
tp6240
Rp6241
tp6242
a(g4660
g6186
VToulouse
p6243
(lp6244
V0
p6245
aV3
p6246
ag9
(g13
S'\x01\x00\x00\x00'
p6247
tp6248
Rp6249
tp6250
a(g4660
g6186
VSC Bastia
p6251
(lp6252
V1
p6253
aV1
p6254
ag9
(g13
S'\x01\x00\x00\x00'
p6255
tp6256
Rp6257
tp6258
a(g4660
g6186
VMonaco
p6259
(lp6260
V0
p6261
aV0
p6262
ag9
(g13
S'\x01\x00\x00\x00'
p6263
tp6264
Rp6265
tp6266
a(g4660
g6186
VRennes
p6267
(lp6268
V2
p6269
aV4
p6270
ag9
(g13
S'\xff\xff\xff\xff'
p6271
tp6272
Rp6273
tp6274
a(g4660
g6186
VNantes
p6275
(lp6276
V0
p6277
aV1
p6278
ag9
(g13
S'\x01\x00\x00\x00'
p6279
tp6280
Rp6281
tp6282
a(g4660
g6186
VLorient
p6283
(lp6284
V0
p6285
aV1
p6286
ag9
(g13
S'\x01\x00\x00\x00'
p6287
tp6288
Rp6289
tp6290
a(g4660
VParis Saint Germain
p6291
VGFC Ajaccio
p6292
(lp6293
V2
p6294
aV0
p6295
ag9
(g13
S'\x01\x00\x00\x00'
p6296
tp6297
Rp6298
tp6299
a(g4660
g6291
VBordeaux
p6300
(lp6301
V2
p6302
aV2
p6303
ag9
(g13
S'\x01\x00\x00\x00'
p6304
tp6305
Rp6306
tp6307
a(g4660
g6291
VGuingamp
p6308
(lp6309
V3
p6310
aV0
p6311
ag9
(g13
S'\x01\x00\x00\x00'
p6312
tp6313
Rp6314
tp6315
a(g4660
g6291
VMarseille
p6316
(lp6317
V2
p6318
aV1
p6319
ag9
(g13
S'\x01\x00\x00\x00'
p6320
tp6321
Rp6322
tp6323
a(g4660
g6291
VSaint-Etienne
p6324
(lp6325
V4
p6326
aV1
p6327
ag9
(g13
S'\x01\x00\x00\x00'
p6328
tp6329
Rp6330
tp6331
a(g4660
g6291
VToulouse
p6332
(lp6333
V5
p6334
aV0
p6335
ag9
(g13
S'\x01\x00\x00\x00'
p6336
tp6337
Rp6338
tp6339
a(g4660
g6291
VTroyes
p6340
(lp6341
V4
p6342
aV1
p6343
ag9
(g13
S'\x01\x00\x00\x00'
p6344
tp6345
Rp6346
tp6347
a(g4660
g6291
VLyon
p6348
(lp6349
V5
p6350
aV1
p6351
ag9
(g13
S'\x01\x00\x00\x00'
p6352
tp6353
Rp6354
tp6355
a(g4660
g6291
VSC Bastia
p6356
(lp6357
V2
p6358
aV0
p6359
ag9
(g13
S'\x01\x00\x00\x00'
p6360
tp6361
Rp6362
tp6363
a(g4660
g6291
VAngers
p6364
(lp6365
V5
p6366
aV1
p6367
ag9
(g13
S'\x01\x00\x00\x00'
p6368
tp6369
Rp6370
tp6371
a(g4660
g6291
VLorient
p6372
(lp6373
V3
p6374
aV1
p6375
ag9
(g13
S'\x01\x00\x00\x00'
p6376
tp6377
Rp6378
tp6379
a(g4660
g6291
VLille
p6380
(lp6381
V0
p6382
aV0
p6383
ag9
(g13
S'\x01\x00\x00\x00'
p6384
tp6385
Rp6386
tp6387
a(g4660
g6291
VReims
p6388
(lp6389
V4
p6390
aV1
p6391
ag9
(g13
S'\x01\x00\x00\x00'
p6392
tp6393
Rp6394
tp6395
a(g4660
g6291
VMontpellier
p6396
(lp6397
V0
p6398
aV0
p6399
ag9
(g13
S'\x01\x00\x00\x00'
p6400
tp6401
Rp6402
tp6403
a(g4660
VAngers
p6404
VNantes
p6405
(lp6406
V0
p6407
aV0
p6408
ag9
(g13
S'\xff\xff\xff\xff'
p6409
tp6410
Rp6411
tp6412
a(g4660
g6404
VNice
p6413
(lp6414
V1
p6415
aV1
p6416
ag9
(g13
S'\xff\xff\xff\xff'
p6417
tp6418
Rp6419
tp6420
a(g4660
g6404
VTroyes
p6421
(lp6422
V1
p6423
aV0
p6424
ag9
(g13
S'\x01\x00\x00\x00'
p6425
tp6426
Rp6427
tp6428
a(g4660
g6404
VReims
p6429
(lp6430
V0
p6431
aV0
p6432
ag9
(g13
S'\x01\x00\x00\x00'
p6433
tp6434
Rp6435
tp6436
a(g4660
g6404
VSC Bastia
p6437
(lp6438
V1
p6439
aV0
p6440
ag9
(g13
S'\x01\x00\x00\x00'
p6441
tp6442
Rp6443
tp6444
a(g4660
g6404
VGuingamp
p6445
(lp6446
V0
p6447
aV0
p6448
ag9
(g13
S'\x01\x00\x00\x00'
p6449
tp6450
Rp6451
tp6452
a(g4660
g6404
VRennes
p6453
(lp6454
V0
p6455
aV2
p6456
ag9
(g13
S'\xff\xff\xff\xff'
p6457
tp6458
Rp6459
tp6460
a(g4660
g6404
VLille
p6461
(lp6462
V2
p6463
aV0
p6464
ag9
(g13
S'\x01\x00\x00\x00'
p6465
tp6466
Rp6467
tp6468
a(g4660
g6404
VParis Saint Germain
p6469
(lp6470
V0
p6471
aV0
p6472
ag9
(g13
S'\xff\xff\xff\xff'
p6473
tp6474
Rp6475
tp6476
a(g4660
g6404
VBordeaux
p6477
(lp6478
V1
p6479
aV1
p6480
ag9
(g13
S'\x01\x00\x00\x00'
p6481
tp6482
Rp6483
tp6484
a(g4660
g6404
VCaen
p6485
(lp6486
V2
p6487
aV0
p6488
ag9
(g13
S'\x01\x00\x00\x00'
p6489
tp6490
Rp6491
tp6492
a(g4660
g6404
VMonaco
p6493
(lp6494
V3
p6495
aV0
p6496
ag9
(g13
S'\x01\x00\x00\x00'
p6497
tp6498
Rp6499
tp6500
a(g4660
g6404
VLyon
p6501
(lp6502
V0
p6503
aV3
p6504
ag9
(g13
S'\x01\x00\x00\x00'
p6505
tp6506
Rp6507
tp6508
a(g4660
g6404
VMontpellier
p6509
(lp6510
V2
p6511
aV3
p6512
ag9
(g13
S'\x01\x00\x00\x00'
p6513
tp6514
Rp6515
tp6516
a(g4660
g6404
VSaint-Etienne
p6517
(lp6518
V0
p6519
aV0
p6520
ag9
(g13
S'\x01\x00\x00\x00'
p6521
tp6522
Rp6523
tp6524
a(g4660
VNantes
p6525
VGuingamp
p6526
(lp6527
V1
p6528
aV0
p6529
ag9
(g13
S'\x01\x00\x00\x00'
p6530
tp6531
Rp6532
tp6533
a(g4660
g6525
VReims
p6534
(lp6535
V1
p6536
aV0
p6537
ag9
(g13
S'\x01\x00\x00\x00'
p6538
tp6539
Rp6540
tp6541
a(g4660
g6525
VRennes
p6542
(lp6543
V0
p6544
aV2
p6545
ag9
(g13
S'\x01\x00\x00\x00'
p6546
tp6547
Rp6548
tp6549
a(g4660
g6525
VParis Saint Germain
p6550
(lp6551
V1
p6552
aV4
p6553
ag9
(g13
S'\xff\xff\xff\xff'
p6554
tp6555
Rp6556
tp6557
a(g4660
g6525
VTroyes
p6558
(lp6559
V3
p6560
aV0
p6561
ag9
(g13
S'\x01\x00\x00\x00'
p6562
tp6563
Rp6564
tp6565
a(g4660
g6525
VMarseille
p6566
(lp6567
V0
p6568
aV1
p6569
ag9
(g13
S'\xff\xff\xff\xff'
p6570
tp6571
Rp6572
tp6573
a(g4660
g6525
VSC Bastia
p6574
(lp6575
V0
p6576
aV0
p6577
ag9
(g13
S'\x01\x00\x00\x00'
p6578
tp6579
Rp6580
tp6581
a(g4660
g6525
VLyon
p6582
(lp6583
V0
p6584
aV0
p6585
ag9
(g13
S'\x01\x00\x00\x00'
p6586
tp6587
Rp6588
tp6589
a(g4660
g6525
VToulouse
p6590
(lp6591
V1
p6592
aV1
p6593
ag9
(g13
S'\x01\x00\x00\x00'
p6594
tp6595
Rp6596
tp6597
a(g4660
g6525
VSaint-Etienne
p6598
(lp6599
V2
p6600
aV1
p6601
ag9
(g13
S'\x01\x00\x00\x00'
p6602
tp6603
Rp6604
tp6605
a(g4660
g6525
VBordeaux
p6606
(lp6607
V2
p6608
aV2
p6609
ag9
(g13
S'\x01\x00\x00\x00'
p6610
tp6611
Rp6612
tp6613
a(g4660
g6525
VGFC Ajaccio
p6614
(lp6615
V3
p6616
aV1
p6617
ag9
(g13
S'\x01\x00\x00\x00'
p6618
tp6619
Rp6620
tp6621
a(g4660
g6525
VLorient
p6622
(lp6623
V2
p6624
aV1
p6625
ag9
(g13
S'\x01\x00\x00\x00'
p6626
tp6627
Rp6628
tp6629
a(g4660
g6525
VMonaco
p6630
(lp6631
V0
p6632
aV0
p6633
ag9
(g13
S'\x01\x00\x00\x00'
p6634
tp6635
Rp6636
tp6637
a(g4660
VSC Bastia
p6638
VRennes
p6639
(lp6640
V2
p6641
aV1
p6642
ag9
(g13
S'\x01\x00\x00\x00'
p6643
tp6644
Rp6645
tp6646
a(g4660
g6638
VGuingamp
p6647
(lp6648
V3
p6649
aV0
p6650
ag9
(g13
S'\x01\x00\x00\x00'
p6651
tp6652
Rp6653
tp6654
a(g4660
g6638
VNice
p6655
(lp6656
V1
p6657
aV3
p6658
ag9
(g13
S'\x01\x00\x00\x00'
p6659
tp6660
Rp6661
tp6662
a(g4660
g6638
VToulouse
p6663
(lp6664
V3
p6665
aV0
p6666
ag9
(g13
S'\x01\x00\x00\x00'
p6667
tp6668
Rp6669
tp6670
a(g4660
g6638
VParis Saint Germain
p6671
(lp6672
V0
p6673
aV2
p6674
ag9
(g13
S'\xff\xff\xff\xff'
p6675
tp6676
Rp6677
tp6678
a(g4660
g6638
VCaen
p6679
(lp6680
V1
p6681
aV0
p6682
ag9
(g13
S'\x01\x00\x00\x00'
p6683
tp6684
Rp6685
tp6686
a(g4660
g6638
VGFC Ajaccio
p6687
(lp6688
V1
p6689
aV2
p6690
ag9
(g13
S'\x01\x00\x00\x00'
p6691
tp6692
Rp6693
tp6694
a(g4660
g6638
VBordeaux
p6695
(lp6696
V1
p6697
aV0
p6698
ag9
(g13
S'\x01\x00\x00\x00'
p6699
tp6700
Rp6701
tp6702
a(g4660
g6638
VMonaco
p6703
(lp6704
V1
p6705
aV2
p6706
ag9
(g13
S'\xff\xff\xff\xff'
p6707
tp6708
Rp6709
tp6710
a(g4660
g6638
VReims
p6711
(lp6712
V2
p6713
aV0
p6714
ag9
(g13
S'\x01\x00\x00\x00'
p6715
tp6716
Rp6717
tp6718
a(g4660
g6638
VMontpellier
p6719
(lp6720
V1
p6721
aV0
p6722
ag9
(g13
S'\xff\xff\xff\xff'
p6723
tp6724
Rp6725
tp6726
a(g4660
g6638
VLyon
p6727
(lp6728
V1
p6729
aV0
p6730
ag9
(g13
S'\x01\x00\x00\x00'
p6731
tp6732
Rp6733
tp6734
a(g4660
g6638
VTroyes
p6735
(lp6736
V2
p6737
aV0
p6738
ag9
(g13
S'\xff\xff\xff\xff'
p6739
tp6740
Rp6741
tp6742
a(g4660
g6638
VLorient
p6743
(lp6744
V0
p6745
aV0
p6746
ag9
(g13
S'\x01\x00\x00\x00'
p6747
tp6748
Rp6749
tp6750
a(g4660
g6638
VNantes
p6751
(lp6752
V0
p6753
aV0
p6754
ag9
(g13
S'\xff\xff\xff\xff'
p6755
tp6756
Rp6757
tp6758
a(g4660
VCaen
p6759
VToulouse
p6760
(lp6761
V1
p6762
aV0
p6763
ag9
(g13
S'\x01\x00\x00\x00'
p6764
tp6765
Rp6766
tp6767
a(g4660
g6759
VLyon
p6768
(lp6769
V0
p6770
aV4
p6771
ag9
(g13
S'\xff\xff\xff\xff'
p6772
tp6773
Rp6774
tp6775
a(g4660
g6759
VMontpellier
p6776
(lp6777
V2
p6778
aV1
p6779
ag9
(g13
S'\xff\xff\xff\xff'
p6780
tp6781
Rp6782
tp6783
a(g4660
g6759
VGFC Ajaccio
p6784
(lp6785
V2
p6786
aV0
p6787
ag9
(g13
S'\x01\x00\x00\x00'
p6788
tp6789
Rp6790
tp6791
a(g4660
g6759
VSaint-Etienne
p6792
(lp6793
V1
p6794
aV0
p6795
ag9
(g13
S'\xff\xff\xff\xff'
p6796
tp6797
Rp6798
tp6799
a(g4660
g6759
VNantes
p6800
(lp6801
V0
p6802
aV2
p6803
ag9
(g13
S'\xff\xff\xff\xff'
p6804
tp6805
Rp6806
tp6807
a(g4660
g6759
VGuingamp
p6808
(lp6809
V2
p6810
aV1
p6811
ag9
(g13
S'\x01\x00\x00\x00'
p6812
tp6813
Rp6814
tp6815
a(g4660
g6759
VAngers
p6816
(lp6817
V0
p6818
aV0
p6819
ag9
(g13
S'\x01\x00\x00\x00'
p6820
tp6821
Rp6822
tp6823
a(g4660
g6759
VLille
p6824
(lp6825
V1
p6826
aV2
p6827
ag9
(g13
S'\x01\x00\x00\x00'
p6828
tp6829
Rp6830
tp6831
a(g4660
g6759
VParis Saint Germain
p6832
(lp6833
V0
p6834
aV3
p6835
ag9
(g13
S'\xff\xff\xff\xff'
p6836
tp6837
Rp6838
tp6839
a(g4660
g6759
VMarseille
p6840
(lp6841
V1
p6842
aV3
p6843
ag9
(g13
S'\xff\xff\xff\xff'
p6844
tp6845
Rp6846
tp6847
a(g4660
g6759
VNice
p6848
(lp6849
V2
p6850
aV0
p6851
ag9
(g13
S'\x01\x00\x00\x00'
p6852
tp6853
Rp6854
tp6855
a(g4660
g6759
VReims
p6856
(lp6857
V0
p6858
aV2
p6859
ag9
(g13
S'\x01\x00\x00\x00'
p6860
tp6861
Rp6862
tp6863
a(g4660
g6759
VRennes
p6864
(lp6865
V1
p6866
aV0
p6867
ag9
(g13
S'\x01\x00\x00\x00'
p6868
tp6869
Rp6870
tp6871
a(g4660
g6759
VMonaco
p6872
(lp6873
V2
p6874
aV2
p6875
ag9
(g13
S'\xff\xff\xff\xff'
p6876
tp6877
Rp6878
tp6879
a(g4660
VBordeaux
p6880
VReims
p6881
(lp6882
V1
p6883
aV2
p6884
ag9
(g13
S'\x01\x00\x00\x00'
p6885
tp6886
Rp6887
tp6888
a(g4660
g6880
VNantes
p6889
(lp6890
V2
p6891
aV0
p6892
ag9
(g13
S'\x01\x00\x00\x00'
p6893
tp6894
Rp6895
tp6896
a(g4660
g6880
VToulouse
p6897
(lp6898
V1
p6899
aV1
p6900
ag9
(g13
S'\x01\x00\x00\x00'
p6901
tp6902
Rp6903
tp6904
a(g4660
g6880
VLyon
p6905
(lp6906
V3
p6907
aV1
p6908
ag9
(g13
S'\xff\xff\xff\xff'
p6909
tp6910
Rp6911
tp6912
a(g4660
g6880
VMontpellier
p6913
(lp6914
V0
p6915
aV0
p6916
ag9
(g13
S'\x01\x00\x00\x00'
p6917
tp6918
Rp6919
tp6920
a(g4660
g6880
VTroyes
p6921
(lp6922
V1
p6923
aV0
p6924
ag9
(g13
S'\x01\x00\x00\x00'
p6925
tp6926
Rp6927
tp6928
a(g4660
g6880
VMonaco
p6929
(lp6930
V3
p6931
aV1
p6932
ag9
(g13
S'\x01\x00\x00\x00'
p6933
tp6934
Rp6935
tp6936
a(g4660
g6880
VCaen
p6937
(lp6938
V1
p6939
aV4
p6940
ag9
(g13
S'\x01\x00\x00\x00'
p6941
tp6942
Rp6943
tp6944
a(g4660
g6880
VGuingamp
p6945
(lp6946
V1
p6947
aV0
p6948
ag9
(g13
S'\x01\x00\x00\x00'
p6949
tp6950
Rp6951
tp6952
a(g4660
g6880
VMarseille
p6953
(lp6954
V1
p6955
aV1
p6956
ag9
(g13
S'\x01\x00\x00\x00'
p6957
tp6958
Rp6959
tp6960
a(g4660
g6880
VLille
p6961
(lp6962
V1
p6963
aV0
p6964
ag9
(g13
S'\x01\x00\x00\x00'
p6965
tp6966
Rp6967
tp6968
a(g4660
g6880
VRennes
p6969
(lp6970
V4
p6971
aV0
p6972
ag9
(g13
S'\x01\x00\x00\x00'
p6973
tp6974
Rp6975
tp6976
a(g4660
g6880
VSaint-Etienne
p6977
(lp6978
V1
p6979
aV4
p6980
ag9
(g13
S'\x01\x00\x00\x00'
p6981
tp6982
Rp6983
tp6984
a(g4660
g6880
VNice
p6985
(lp6986
V0
p6987
aV0
p6988
ag9
(g13
S'\xff\xff\xff\xff'
p6989
tp6990
Rp6991
tp6992
a(g4660
g6880
VGFC Ajaccio
p6993
(lp6994
V1
p6995
aV1
p6996
ag9
(g13
S'\x01\x00\x00\x00'
p6997
tp6998
Rp6999
tp7000
a(S'La_Liga'
p7001
VVillarreal
p7002
VEspanyol
p7003
(lp7004
V3
p7005
aV1
p7006
ag9
(g13
S'\x01\x00\x00\x00'
p7007
tp7008
Rp7009
tp7010
a(g7001
g7002
VAthletic Club
p7011
(lp7012
V3
p7013
aV1
p7014
ag9
(g13
S'\x01\x00\x00\x00'
p7015
tp7016
Rp7017
tp7018
a(g7001
g7002
VAtletico Madrid
p7019
(lp7020
V1
p7021
aV0
p7022
ag9
(g13
S'\x01\x00\x00\x00'
p7023
tp7024
Rp7025
tp7026
a(g7001
g7002
VCelta Vigo
p7027
(lp7028
V1
p7029
aV2
p7030
ag9
(g13
S'\xff\xff\xff\xff'
p7031
tp7032
Rp7033
tp7034
a(g7001
g7002
VSevilla
p7035
(lp7036
V2
p7037
aV1
p7038
ag9
(g13
S'\x01\x00\x00\x00'
p7039
tp7040
Rp7041
tp7042
a(g7001
g7002
VEibar
p7043
(lp7044
V1
p7045
aV1
p7046
ag9
(g13
S'\x01\x00\x00\x00'
p7047
tp7048
Rp7049
tp7050
a(g7001
g7002
VRayo Vallecano
p7051
(lp7052
V2
p7053
aV1
p7054
ag9
(g13
S'\xff\xff\xff\xff'
p7055
tp7056
Rp7057
tp7058
a(g7001
g7002
VReal Madrid
p7059
(lp7060
V1
p7061
aV0
p7062
ag9
(g13
S'\xff\xff\xff\xff'
p7063
tp7064
Rp7065
tp7066
a(g7001
g7002
VValencia
p7067
(lp7068
V1
p7069
aV0
p7070
ag9
(g13
S'\x01\x00\x00\x00'
p7071
tp7072
Rp7073
tp7074
a(g7001
g7002
VSporting Gijon
p7075
(lp7076
V2
p7077
aV0
p7078
ag9
(g13
S'\x01\x00\x00\x00'
p7079
tp7080
Rp7081
tp7082
a(g7001
g7002
VReal Betis
p7083
(lp7084
V0
p7085
aV0
p7086
ag9
(g13
S'\x01\x00\x00\x00'
p7087
tp7088
Rp7089
tp7090
a(g7001
g7002
VGranada
p7091
(lp7092
V1
p7093
aV0
p7094
ag9
(g13
S'\x01\x00\x00\x00'
p7095
tp7096
Rp7097
tp7098
a(g7001
g7002
VMalaga
p7099
(lp7100
V1
p7101
aV0
p7102
ag9
(g13
S'\x01\x00\x00\x00'
p7103
tp7104
Rp7105
tp7106
a(g7001
g7002
VLevante
p7107
(lp7108
V3
p7109
aV0
p7110
ag9
(g13
S'\x01\x00\x00\x00'
p7111
tp7112
Rp7113
tp7114
a(g7001
g7002
VLas Palmas
p7115
(lp7116
V0
p7117
aV1
p7118
ag9
(g13
S'\xff\xff\xff\xff'
p7119
tp7120
Rp7121
tp7122
a(g7001
VValencia
p7123
VDeportivo La Coruna
p7124
(lp7125
V1
p7126
aV1
p7127
ag9
(g13
S'\x01\x00\x00\x00'
p7128
tp7129
Rp7130
tp7131
a(g7001
g7123
VReal Betis
p7132
(lp7133
V0
p7134
aV0
p7135
ag9
(g13
S'\x01\x00\x00\x00'
p7136
tp7137
Rp7138
tp7139
a(g7001
g7123
VGranada
p7140
(lp7141
V1
p7142
aV0
p7143
ag9
(g13
S'\x01\x00\x00\x00'
p7144
tp7145
Rp7146
tp7147
a(g7001
g7123
VMalaga
p7148
(lp7149
V3
p7150
aV0
p7151
ag9
(g13
S'\x01\x00\x00\x00'
p7152
tp7153
Rp7154
tp7155
a(g7001
g7123
VLevante
p7156
(lp7157
V3
p7158
aV0
p7159
ag9
(g13
S'\x01\x00\x00\x00'
p7160
tp7161
Rp7162
tp7163
a(g7001
g7123
VLas Palmas
p7164
(lp7165
V1
p7166
aV1
p7167
ag9
(g13
S'\x01\x00\x00\x00'
p7168
tp7169
Rp7170
tp7171
a(g7001
g7123
VBarcelona
p7172
(lp7173
V1
p7174
aV1
p7175
ag9
(g13
S'\xff\xff\xff\xff'
p7176
tp7177
Rp7178
tp7179
a(g7001
g7123
VGetafe
p7180
(lp7181
V2
p7182
aV2
p7183
ag9
(g13
S'\x01\x00\x00\x00'
p7184
tp7185
Rp7186
tp7187
a(g7001
g7123
VReal Madrid
p7188
(lp7189
V2
p7190
aV2
p7191
ag9
(g13
S'\xff\xff\xff\xff'
p7192
tp7193
Rp7194
tp7195
a(g7001
g7123
VRayo Vallecano
p7196
(lp7197
V2
p7198
aV2
p7199
ag9
(g13
S'\x01\x00\x00\x00'
p7200
tp7201
Rp7202
tp7203
a(g7001
g7123
VSporting Gijon
p7204
(lp7205
V0
p7206
aV1
p7207
ag9
(g13
S'\x01\x00\x00\x00'
p7208
tp7209
Rp7210
tp7211
a(g7001
g7123
VEspanyol
p7212
(lp7213
V2
p7214
aV1
p7215
ag9
(g13
S'\x01\x00\x00\x00'
p7216
tp7217
Rp7218
tp7219
a(g7001
g7123
VAthletic Club
p7220
(lp7221
V0
p7222
aV3
p7223
ag9
(g13
S'\x01\x00\x00\x00'
p7224
tp7225
Rp7226
tp7227
a(g7001
g7123
VAtletico Madrid
p7228
(lp7229
V1
p7230
aV3
p7231
ag9
(g13
S'\x01\x00\x00\x00'
p7232
tp7233
Rp7234
tp7235
a(g7001
VSporting Gijon
p7236
VValencia
p7237
(lp7238
V0
p7239
aV1
p7240
ag9
(g13
S'\xff\xff\xff\xff'
p7241
tp7242
Rp7243
tp7244
a(g7001
g7236
VReal Betis
p7245
(lp7246
V1
p7247
aV2
p7248
ag9
(g13
S'\x01\x00\x00\x00'
p7249
tp7250
Rp7251
tp7252
a(g7001
g7236
VGranada
p7253
(lp7254
V3
p7255
aV3
p7256
ag9
(g13
S'\x01\x00\x00\x00'
p7257
tp7258
Rp7259
tp7260
a(g7001
g7236
VMalaga
p7261
(lp7262
V1
p7263
aV0
p7264
ag9
(g13
S'\x01\x00\x00\x00'
p7265
tp7266
Rp7267
tp7268
a(g7001
g7236
VLevante
p7269
(lp7270
V0
p7271
aV3
p7272
ag9
(g13
S'\x01\x00\x00\x00'
p7273
tp7274
Rp7275
tp7276
a(g7001
g7236
VLas Palmas
p7277
(lp7278
V3
p7279
aV1
p7280
ag9
(g13
S'\x01\x00\x00\x00'
p7281
tp7282
Rp7283
tp7284
a(g7001
g7236
VGetafe
p7285
(lp7286
V1
p7287
aV2
p7288
ag9
(g13
S'\x01\x00\x00\x00'
p7289
tp7290
Rp7291
tp7292
a(g7001
g7236
VReal Sociedad
p7293
(lp7294
V5
p7295
aV1
p7296
ag9
(g13
S'\xff\xff\xff\xff'
p7297
tp7298
Rp7299
tp7300
a(g7001
g7236
VDeportivo La Coruna
p7301
(lp7302
V1
p7303
aV1
p7304
ag9
(g13
S'\x01\x00\x00\x00'
p7305
tp7306
Rp7307
tp7308
a(g7001
g7236
VRayo Vallecano
p7309
(lp7310
V2
p7311
aV2
p7312
ag9
(g13
S'\xff\xff\xff\xff'
p7313
tp7314
Rp7315
tp7316
a(g7001
g7236
VBarcelona
p7317
(lp7318
V1
p7319
aV3
p7320
ag9
(g13
S'\xff\xff\xff\xff'
p7321
tp7322
Rp7323
tp7324
a(g7001
g7236
VEspanyol
p7325
(lp7326
V2
p7327
aV4
p7328
ag9
(g13
S'\x01\x00\x00\x00'
p7329
tp7330
Rp7331
tp7332
a(g7001
g7236
VAthletic Club
p7333
(lp7334
V0
p7335
aV2
p7336
ag9
(g13
S'\xff\xff\xff\xff'
p7337
tp7338
Rp7339
tp7340
a(g7001
VReal Madrid
p7341
VReal Betis
p7342
(lp7343
V5
p7344
aV0
p7345
ag9
(g13
S'\x01\x00\x00\x00'
p7346
tp7347
Rp7348
tp7349
a(g7001
g7341
VGranada
p7350
(lp7351
V1
p7352
aV0
p7353
ag9
(g13
S'\x01\x00\x00\x00'
p7354
tp7355
Rp7356
tp7357
a(g7001
g7341
VMalaga
p7358
(lp7359
V0
p7360
aV0
p7361
ag9
(g13
S'\x01\x00\x00\x00'
p7362
tp7363
Rp7364
tp7365
a(g7001
g7341
VLevante
p7366
(lp7367
V3
p7368
aV0
p7369
ag9
(g13
S'\x01\x00\x00\x00'
p7370
tp7371
Rp7372
tp7373
a(g7001
g7341
VLas Palmas
p7374
(lp7375
V3
p7376
aV1
p7377
ag9
(g13
S'\x01\x00\x00\x00'
p7378
tp7379
Rp7380
tp7381
a(g7001
g7341
VBarcelona
p7382
(lp7383
V0
p7384
aV4
p7385
ag9
(g13
S'\xff\xff\xff\xff'
p7386
tp7387
Rp7388
tp7389
a(g7001
g7341
VGetafe
p7390
(lp7391
V4
p7392
aV1
p7393
ag9
(g13
S'\x01\x00\x00\x00'
p7394
tp7395
Rp7396
tp7397
a(g7001
g7341
VRayo Vallecano
p7398
(lp7399
V10
p7400
aV2
p7401
ag9
(g13
S'\x01\x00\x00\x00'
p7402
tp7403
Rp7404
tp7405
a(g7001
g7341
VReal Sociedad
p7406
(lp7407
V3
p7408
aV1
p7409
ag9
(g13
S'\x01\x00\x00\x00'
p7410
tp7411
Rp7412
tp7413
a(g7001
g7341
VDeportivo La Coruna
p7414
(lp7415
V5
p7416
aV0
p7417
ag9
(g13
S'\x01\x00\x00\x00'
p7418
tp7419
Rp7420
tp7421
a(g7001
g7341
VSporting Gijon
p7422
(lp7423
V5
p7424
aV1
p7425
ag9
(g13
S'\x01\x00\x00\x00'
p7426
tp7427
Rp7428
tp7429
a(g7001
g7341
VEspanyol
p7430
(lp7431
V6
p7432
aV0
p7433
ag9
(g13
S'\x01\x00\x00\x00'
p7434
tp7435
Rp7436
tp7437
a(g7001
g7341
VAthletic Club
p7438
(lp7439
V4
p7440
aV2
p7441
ag9
(g13
S'\x01\x00\x00\x00'
p7442
tp7443
Rp7444
tp7445
a(g7001
g7341
VAtletico Madrid
p7446
(lp7447
V0
p7448
aV1
p7449
ag9
(g13
S'\x01\x00\x00\x00'
p7450
tp7451
Rp7452
tp7453
a(g7001
g7341
VCelta Vigo
p7454
(lp7455
V7
p7456
aV1
p7457
ag9
(g13
S'\x01\x00\x00\x00'
p7458
tp7459
Rp7460
tp7461
a(g7001
VLevante
p7462
VCelta Vigo
p7463
(lp7464
V1
p7465
aV2
p7466
ag9
(g13
S'\xff\xff\xff\xff'
p7467
tp7468
Rp7469
tp7470
a(g7001
g7462
VSevilla
p7471
(lp7472
V1
p7473
aV1
p7474
ag9
(g13
S'\xff\xff\xff\xff'
p7475
tp7476
Rp7477
tp7478
a(g7001
g7462
VEibar
p7479
(lp7480
V2
p7481
aV2
p7482
ag9
(g13
S'\x01\x00\x00\x00'
p7483
tp7484
Rp7485
tp7486
a(g7001
g7462
VVillarreal
p7487
(lp7488
V1
p7489
aV0
p7490
ag9
(g13
S'\xff\xff\xff\xff'
p7491
tp7492
Rp7493
tp7494
a(g7001
g7462
VReal Sociedad
p7495
(lp7496
V0
p7497
aV4
p7498
ag9
(g13
S'\x01\x00\x00\x00'
p7499
tp7500
Rp7501
tp7502
a(g7001
g7462
VDeportivo La Coruna
p7503
(lp7504
V1
p7505
aV1
p7506
ag9
(g13
S'\x01\x00\x00\x00'
p7507
tp7508
Rp7509
tp7510
a(g7001
g7462
VReal Betis
p7511
(lp7512
V0
p7513
aV1
p7514
ag9
(g13
S'\x01\x00\x00\x00'
p7515
tp7516
Rp7517
tp7518
a(g7001
g7462
VGranada
p7519
(lp7520
V1
p7521
aV2
p7522
ag9
(g13
S'\x01\x00\x00\x00'
p7523
tp7524
Rp7525
tp7526
a(g7001
g7462
VMalaga
p7527
(lp7528
V0
p7529
aV1
p7530
ag9
(g13
S'\x01\x00\x00\x00'
p7531
tp7532
Rp7533
tp7534
a(g7001
g7462
VRayo Vallecano
p7535
(lp7536
V2
p7537
aV1
p7538
ag9
(g13
S'\xff\xff\xff\xff'
p7539
tp7540
Rp7541
tp7542
a(g7001
g7462
VLas Palmas
p7543
(lp7544
V3
p7545
aV2
p7546
ag9
(g13
S'\x01\x00\x00\x00'
p7547
tp7548
Rp7549
tp7550
a(g7001
g7462
VBarcelona
p7551
(lp7552
V0
p7553
aV2
p7554
ag9
(g13
S'\xff\xff\xff\xff'
p7555
tp7556
Rp7557
tp7558
a(g7001
g7462
VGetafe
p7559
(lp7560
V3
p7561
aV0
p7562
ag9
(g13
S'\x01\x00\x00\x00'
p7563
tp7564
Rp7565
tp7566
a(g7001
g7462
VReal Madrid
p7567
(lp7568
V1
p7569
aV3
p7570
ag9
(g13
S'\xff\xff\xff\xff'
p7571
tp7572
Rp7573
tp7574
a(g7001
VReal Sociedad
p7575
VSporting Gijon
p7576
(lp7577
V0
p7578
aV0
p7579
ag9
(g13
S'\x01\x00\x00\x00'
p7580
tp7581
Rp7582
tp7583
a(g7001
g7575
VEspanyol
p7584
(lp7585
V2
p7586
aV3
p7587
ag9
(g13
S'\x01\x00\x00\x00'
p7588
tp7589
Rp7590
tp7591
a(g7001
g7575
VAthletic Club
p7592
(lp7593
V0
p7594
aV0
p7595
ag9
(g13
S'\x01\x00\x00\x00'
p7596
tp7597
Rp7598
tp7599
a(g7001
g7575
VAtletico Madrid
p7600
(lp7601
V0
p7602
aV2
p7603
ag9
(g13
S'\x01\x00\x00\x00'
p7604
tp7605
Rp7606
tp7607
a(g7001
g7575
VSevilla
p7608
(lp7609
V2
p7610
aV0
p7611
ag9
(g13
S'\x01\x00\x00\x00'
p7612
tp7613
Rp7614
tp7615
a(g7001
g7575
VEibar
p7616
(lp7617
V2
p7618
aV1
p7619
ag9
(g13
S'\x01\x00\x00\x00'
p7620
tp7621
Rp7622
tp7623
a(g7001
g7575
VVillarreal
p7624
(lp7625
V0
p7626
aV2
p7627
ag9
(g13
S'\x01\x00\x00\x00'
p7628
tp7629
Rp7630
tp7631
a(g7001
g7575
VValencia
p7632
(lp7633
V2
p7634
aV0
p7635
ag9
(g13
S'\x01\x00\x00\x00'
p7636
tp7637
Rp7638
tp7639
a(g7001
g7575
VDeportivo La Coruna
p7640
(lp7641
V1
p7642
aV1
p7643
ag9
(g13
S'\x01\x00\x00\x00'
p7644
tp7645
Rp7646
tp7647
a(g7001
g7575
VReal Betis
p7648
(lp7649
V2
p7650
aV1
p7651
ag9
(g13
S'\x01\x00\x00\x00'
p7652
tp7653
Rp7654
tp7655
a(g7001
g7575
VGranada
p7656
(lp7657
V3
p7658
aV0
p7659
ag9
(g13
S'\x01\x00\x00\x00'
p7660
tp7661
Rp7662
tp7663
a(g7001
g7575
VMalaga
p7664
(lp7665
V1
p7666
aV1
p7667
ag9
(g13
S'\x01\x00\x00\x00'
p7668
tp7669
Rp7670
tp7671
a(g7001
g7575
VLevante
p7672
(lp7673
V1
p7674
aV1
p7675
ag9
(g13
S'\x01\x00\x00\x00'
p7676
tp7677
Rp7678
tp7679
a(g7001
VRayo Vallecano
p7680
VValencia
p7681
(lp7682
V0
p7683
aV0
p7684
ag9
(g13
S'\x01\x00\x00\x00'
p7685
tp7686
Rp7687
tp7688
a(g7001
g7680
VDeportivo La Coruna
p7689
(lp7690
V1
p7691
aV3
p7692
ag9
(g13
S'\x01\x00\x00\x00'
p7693
tp7694
Rp7695
tp7696
a(g7001
g7680
VSporting Gijon
p7697
(lp7698
V2
p7699
aV1
p7700
ag9
(g13
S'\x01\x00\x00\x00'
p7701
tp7702
Rp7703
tp7704
a(g7001
g7680
VReal Betis
p7705
(lp7706
V0
p7707
aV2
p7708
ag9
(g13
S'\x01\x00\x00\x00'
p7709
tp7710
Rp7711
tp7712
a(g7001
g7680
VEspanyol
p7713
(lp7714
V3
p7715
aV0
p7716
ag9
(g13
S'\x01\x00\x00\x00'
p7717
tp7718
Rp7719
tp7720
a(g7001
g7680
VGranada
p7721
(lp7722
V2
p7723
aV1
p7724
ag9
(g13
S'\x01\x00\x00\x00'
p7725
tp7726
Rp7727
tp7728
a(g7001
g7680
VAthletic Club
p7729
(lp7730
V0
p7731
aV3
p7732
ag9
(g13
S'\x01\x00\x00\x00'
p7733
tp7734
Rp7735
tp7736
a(g7001
g7680
VMalaga
p7737
(lp7738
V1
p7739
aV2
p7740
ag9
(g13
S'\x01\x00\x00\x00'
p7741
tp7742
Rp7743
tp7744
a(g7001
g7680
VAtletico Madrid
p7745
(lp7746
V0
p7747
aV2
p7748
ag9
(g13
S'\x01\x00\x00\x00'
p7749
tp7750
Rp7751
tp7752
a(g7001
g7680
VReal Sociedad
p7753
(lp7754
V2
p7755
aV2
p7756
ag9
(g13
S'\x01\x00\x00\x00'
p7757
tp7758
Rp7759
tp7760
a(g7001
g7680
VCelta Vigo
p7761
(lp7762
V3
p7763
aV0
p7764
ag9
(g13
S'\xff\xff\xff\xff'
p7765
tp7766
Rp7767
tp7768
a(g7001
g7680
VLas Palmas
p7769
(lp7770
V2
p7771
aV0
p7772
ag9
(g13
S'\x01\x00\x00\x00'
p7773
tp7774
Rp7775
tp7776
a(g7001
g7680
VSevilla
p7777
(lp7778
V2
p7779
aV2
p7780
ag9
(g13
S'\x01\x00\x00\x00'
p7781
tp7782
Rp7783
tp7784
a(g7001
g7680
VBarcelona
p7785
(lp7786
V1
p7787
aV5
p7788
ag9
(g13
S'\xff\xff\xff\xff'
p7789
tp7790
Rp7791
tp7792
a(g7001
g7680
VEibar
p7793
(lp7794
V1
p7795
aV1
p7796
ag9
(g13
S'\x01\x00\x00\x00'
p7797
tp7798
Rp7799
tp7800
a(g7001
VGetafe
p7801
VGranada
p7802
(lp7803
V1
p7804
aV2
p7805
ag9
(g13
S'\x01\x00\x00\x00'
p7806
tp7807
Rp7808
tp7809
a(g7001
g7801
VMalaga
p7810
(lp7811
V1
p7812
aV0
p7813
ag9
(g13
S'\x01\x00\x00\x00'
p7814
tp7815
Rp7816
tp7817
a(g7001
g7801
VLevante
p7818
(lp7819
V3
p7820
aV0
p7821
ag9
(g13
S'\x01\x00\x00\x00'
p7822
tp7823
Rp7824
tp7825
a(g7001
g7801
VLas Palmas
p7826
(lp7827
V4
p7828
aV0
p7829
ag9
(g13
S'\x01\x00\x00\x00'
p7830
tp7831
Rp7832
tp7833
a(g7001
g7801
VBarcelona
p7834
(lp7835
V0
p7836
aV2
p7837
ag9
(g13
S'\xff\xff\xff\xff'
p7838
tp7839
Rp7840
tp7841
a(g7001
g7801
VRayo Vallecano
p7842
(lp7843
V1
p7844
aV1
p7845
ag9
(g13
S'\xff\xff\xff\xff'
p7846
tp7847
Rp7848
tp7849
a(g7001
g7801
VVillarreal
p7850
(lp7851
V2
p7852
aV0
p7853
ag9
(g13
S'\x01\x00\x00\x00'
p7854
tp7855
Rp7856
tp7857
a(g7001
g7801
VReal Sociedad
p7858
(lp7859
V1
p7860
aV1
p7861
ag9
(g13
S'\xff\xff\xff\xff'
p7862
tp7863
Rp7864
tp7865
a(g7001
g7801
VDeportivo La Coruna
p7866
(lp7867
V0
p7868
aV0
p7869
ag9
(g13
S'\x01\x00\x00\x00'
p7870
tp7871
Rp7872
tp7873
a(g7001
g7801
VReal Betis
p7874
(lp7875
V1
p7876
aV0
p7877
ag9
(g13
S'\x01\x00\x00\x00'
p7878
tp7879
Rp7880
tp7881
a(g7001
g7801
VEspanyol
p7882
(lp7883
V3
p7884
aV1
p7885
ag9
(g13
S'\x01\x00\x00\x00'
p7886
tp7887
Rp7888
tp7889
a(g7001
g7801
VAthletic Club
p7890
(lp7891
V0
p7892
aV1
p7893
ag9
(g13
S'\x01\x00\x00\x00'
p7894
tp7895
Rp7896
tp7897
a(g7001
g7801
VAtletico Madrid
p7898
(lp7899
V0
p7900
aV1
p7901
ag9
(g13
S'\xff\xff\xff\xff'
p7902
tp7903
Rp7904
tp7905
a(g7001
g7801
VCelta Vigo
p7906
(lp7907
V0
p7908
aV1
p7909
ag9
(g13
S'\x01\x00\x00\x00'
p7910
tp7911
Rp7912
tp7913
a(g7001
g7801
VSevilla
p7914
(lp7915
V1
p7916
aV1
p7917
ag9
(g13
S'\x01\x00\x00\x00'
p7918
tp7919
Rp7920
tp7921
a(g7001
VMalaga
p7922
VSevilla
p7923
(lp7924
V0
p7925
aV0
p7926
ag9
(g13
S'\x01\x00\x00\x00'
p7927
tp7928
Rp7929
tp7930
a(g7001
g7922
VEibar
p7931
(lp7932
V0
p7933
aV0
p7934
ag9
(g13
S'\x01\x00\x00\x00'
p7935
tp7936
Rp7937
tp7938
a(g7001
g7922
VVillarreal
p7939
(lp7940
V0
p7941
aV1
p7942
ag9
(g13
S'\x01\x00\x00\x00'
p7943
tp7944
Rp7945
tp7946
a(g7001
g7922
VReal Sociedad
p7947
(lp7948
V3
p7949
aV1
p7950
ag9
(g13
S'\x01\x00\x00\x00'
p7951
tp7952
Rp7953
tp7954
a(g7001
g7922
VDeportivo La Coruna
p7955
(lp7956
V2
p7957
aV0
p7958
ag9
(g13
S'\x01\x00\x00\x00'
p7959
tp7960
Rp7961
tp7962
a(g7001
g7922
VReal Betis
p7963
(lp7964
V0
p7965
aV1
p7966
ag9
(g13
S'\x01\x00\x00\x00'
p7967
tp7968
Rp7969
tp7970
a(g7001
g7922
VGranada
p7971
(lp7972
V2
p7973
aV2
p7974
ag9
(g13
S'\x01\x00\x00\x00'
p7975
tp7976
Rp7977
tp7978
a(g7001
g7922
VAtletico Madrid
p7979
(lp7980
V1
p7981
aV0
p7982
ag9
(g13
S'\x01\x00\x00\x00'
p7983
tp7984
Rp7985
tp7986
a(g7001
g7922
VCelta Vigo
p7987
(lp7988
V2
p7989
aV0
p7990
ag9
(g13
S'\xff\xff\xff\xff'
p7991
tp7992
Rp7993
tp7994
a(g7001
g7922
VBarcelona
p7995
(lp7996
V1
p7997
aV2
p7998
ag9
(g13
S'\xff\xff\xff\xff'
p7999
tp8000
Rp8001
tp8002
a(g7001
g7922
VGetafe
p8003
(lp8004
V3
p8005
aV0
p8006
ag9
(g13
S'\x01\x00\x00\x00'
p8007
tp8008
Rp8009
tp8010
a(g7001
g7922
VReal Madrid
p8011
(lp8012
V1
p8013
aV1
p8014
ag9
(g13
S'\xff\xff\xff\xff'
p8015
tp8016
Rp8017
tp8018
a(g7001
g7922
VValencia
p8019
(lp8020
V1
p8021
aV2
p8022
ag9
(g13
S'\x01\x00\x00\x00'
p8023
tp8024
Rp8025
tp8026
a(g7001
g7922
VSporting Gijon
p8027
(lp8028
V1
p8029
aV0
p8030
ag9
(g13
S'\x01\x00\x00\x00'
p8031
tp8032
Rp8033
tp8034
a(g7001
VLas Palmas
p8035
VLevante
p8036
(lp8037
V0
p8038
aV0
p8039
ag9
(g13
S'\x01\x00\x00\x00'
p8040
tp8041
Rp8042
tp8043
a(g7001
g8035
VRayo Vallecano
p8044
(lp8045
V0
p8046
aV1
p8047
ag9
(g13
S'\x01\x00\x00\x00'
p8048
tp8049
Rp8050
tp8051
a(g7001
g8035
VSevilla
p8052
(lp8053
V2
p8054
aV0
p8055
ag9
(g13
S'\x01\x00\x00\x00'
p8056
tp8057
Rp8058
tp8059
a(g7001
g8035
VEibar
p8060
(lp8061
V0
p8062
aV2
p8063
ag9
(g13
S'\x01\x00\x00\x00'
p8064
tp8065
Rp8066
tp8067
a(g7001
g8035
VVillarreal
p8068
(lp8069
V0
p8070
aV0
p8071
ag9
(g13
S'\x01\x00\x00\x00'
p8072
tp8073
Rp8074
tp8075
a(g7001
g8035
VReal Sociedad
p8076
(lp8077
V2
p8078
aV0
p8079
ag9
(g13
S'\x01\x00\x00\x00'
p8080
tp8081
Rp8082
tp8083
a(g7001
g8035
VDeportivo La Coruna
p8084
(lp8085
V0
p8086
aV2
p8087
ag9
(g13
S'\x01\x00\x00\x00'
p8088
tp8089
Rp8090
tp8091
a(g7001
g8035
VReal Betis
p8092
(lp8093
V1
p8094
aV0
p8095
ag9
(g13
S'\x01\x00\x00\x00'
p8096
tp8097
Rp8098
tp8099
a(g7001
g8035
VGranada
p8100
(lp8101
V4
p8102
aV1
p8103
ag9
(g13
S'\x01\x00\x00\x00'
p8104
tp8105
Rp8106
tp8107
a(g7001
g8035
VMalaga
p8108
(lp8109
V1
p8110
aV1
p8111
ag9
(g13
S'\x01\x00\x00\x00'
p8112
tp8113
Rp8114
tp8115
a(g7001
g8035
VAtletico Madrid
p8116
(lp8117
V0
p8118
aV3
p8119
ag9
(g13
S'\x01\x00\x00\x00'
p8120
tp8121
Rp8122
tp8123
a(g7001
g8035
VCelta Vigo
p8124
(lp8125
V2
p8126
aV1
p8127
ag9
(g13
S'\xff\xff\xff\xff'
p8128
tp8129
Rp8130
tp8131
a(g7001
g8035
VBarcelona
p8132
(lp8133
V1
p8134
aV2
p8135
ag9
(g13
S'\xff\xff\xff\xff'
p8136
tp8137
Rp8138
tp8139
a(g7001
g8035
VGetafe
p8140
(lp8141
V4
p8142
aV0
p8143
ag9
(g13
S'\x01\x00\x00\x00'
p8144
tp8145
Rp8146
tp8147
a(g7001
VBarcelona
p8148
VMalaga
p8149
(lp8150
V1
p8151
aV0
p8152
ag9
(g13
S'\x01\x00\x00\x00'
p8153
tp8154
Rp8155
tp8156
a(g7001
g8148
VLevante
p8157
(lp8158
V4
p8159
aV1
p8160
ag9
(g13
S'\x01\x00\x00\x00'
p8161
tp8162
Rp8163
tp8164
a(g7001
g8148
VLas Palmas
p8165
(lp8166
V2
p8167
aV1
p8168
ag9
(g13
S'\x01\x00\x00\x00'
p8169
tp8170
Rp8171
tp8172
a(g7001
g8148
VRayo Vallecano
p8173
(lp8174
V5
p8175
aV2
p8176
ag9
(g13
S'\x01\x00\x00\x00'
p8177
tp8178
Rp8179
tp8180
a(g7001
g8148
VEibar
p8181
(lp8182
V3
p8183
aV1
p8184
ag9
(g13
S'\x01\x00\x00\x00'
p8185
tp8186
Rp8187
tp8188
a(g7001
g8148
VVillarreal
p8189
(lp8190
V3
p8191
aV0
p8192
ag9
(g13
S'\x01\x00\x00\x00'
p8193
tp8194
Rp8195
tp8196
a(g7001
g8148
VReal Sociedad
p8197
(lp8198
V4
p8199
aV0
p8200
ag9
(g13
S'\x01\x00\x00\x00'
p8201
tp8202
Rp8203
tp8204
a(g7001
g8148
VDeportivo La Coruna
p8205
(lp8206
V2
p8207
aV2
p8208
ag9
(g13
S'\x01\x00\x00\x00'
p8209
tp8210
Rp8211
tp8212
a(g7001
g8148
VReal Betis
p8213
(lp8214
V4
p8215
aV0
p8216
ag9
(g13
S'\x01\x00\x00\x00'
p8217
tp8218
Rp8219
tp8220
a(g7001
g8148
VGranada
p8221
(lp8222
V4
p8223
aV0
p8224
ag9
(g13
S'\x01\x00\x00\x00'
p8225
tp8226
Rp8227
tp8228
a(g7001
g8148
VAthletic Club
p8229
(lp8230
V6
p8231
aV0
p8232
ag9
(g13
S'\x01\x00\x00\x00'
p8233
tp8234
Rp8235
tp8236
a(g7001
g8148
VAtletico Madrid
p8237
(lp8238
V2
p8239
aV1
p8240
ag9
(g13
S'\x01\x00\x00\x00'
p8241
tp8242
Rp8243
tp8244
a(g7001
g8148
VCelta Vigo
p8245
(lp8246
V6
p8247
aV1
p8248
ag9
(g13
S'\x01\x00\x00\x00'
p8249
tp8250
Rp8251
tp8252
a(g7001
g8148
VSevilla
p8253
(lp8254
V2
p8255
aV1
p8256
ag9
(g13
S'\x01\x00\x00\x00'
p8257
tp8258
Rp8259
tp8260
a(g7001
g8148
VGetafe
p8261
(lp8262
V6
p8263
aV0
p8264
ag9
(g13
S'\x01\x00\x00\x00'
p8265
tp8266
Rp8267
tp8268
a(g7001
VGranada
p8269
VEibar
p8270
(lp8271
V1
p8272
aV3
p8273
ag9
(g13
S'\x01\x00\x00\x00'
p8274
tp8275
Rp8276
tp8277
a(g7001
g8269
VVillarreal
p8278
(lp8279
V1
p8280
aV3
p8281
ag9
(g13
S'\x01\x00\x00\x00'
p8282
tp8283
Rp8284
tp8285
a(g7001
g8269
VReal Sociedad
p8286
(lp8287
V0
p8288
aV3
p8289
ag9
(g13
S'\xff\xff\xff\xff'
p8290
tp8291
Rp8292
tp8293
a(g7001
g8269
VDeportivo La Coruna
p8294
(lp8295
V1
p8296
aV1
p8297
ag9
(g13
S'\x01\x00\x00\x00'
p8298
tp8299
Rp8300
tp8301
a(g7001
g8269
VReal Betis
p8302
(lp8303
V1
p8304
aV1
p8305
ag9
(g13
S'\x01\x00\x00\x00'
p8306
tp8307
Rp8308
tp8309
a(g7001
g8269
VAthletic Club
p8310
(lp8311
V2
p8312
aV0
p8313
ag9
(g13
S'\x01\x00\x00\x00'
p8314
tp8315
Rp8316
tp8317
a(g7001
g8269
VAtletico Madrid
p8318
(lp8319
V0
p8320
aV2
p8321
ag9
(g13
S'\xff\xff\xff\xff'
p8322
tp8323
Rp8324
tp8325
a(g7001
g8269
VCelta Vigo
p8326
(lp8327
V0
p8328
aV2
p8329
ag9
(g13
S'\xff\xff\xff\xff'
p8330
tp8331
Rp8332
tp8333
a(g7001
g8269
VSevilla
p8334
(lp8335
V2
p8336
aV1
p8337
ag9
(g13
S'\xff\xff\xff\xff'
p8338
tp8339
Rp8340
tp8341
a(g7001
g8269
VGetafe
p8342
(lp8343
V3
p8344
aV2
p8345
ag9
(g13
S'\x01\x00\x00\x00'
p8346
tp8347
Rp8348
tp8349
a(g7001
g8269
VReal Madrid
p8350
(lp8351
V1
p8352
aV2
p8353
ag9
(g13
S'\xff\xff\xff\xff'
p8354
tp8355
Rp8356
tp8357
a(g7001
g8269
VValencia
p8358
(lp8359
V1
p8360
aV2
p8361
ag9
(g13
S'\xff\xff\xff\xff'
p8362
tp8363
Rp8364
tp8365
a(g7001
g8269
VSporting Gijon
p8366
(lp8367
V2
p8368
aV0
p8369
ag9
(g13
S'\x01\x00\x00\x00'
p8370
tp8371
Rp8372
tp8373
a(g7001
VDeportivo La Coruna
p8374
VReal Sociedad
p8375
(lp8376
V0
p8377
aV0
p8378
ag9
(g13
S'\xff\xff\xff\xff'
p8379
tp8380
Rp8381
tp8382
a(g7001
g8374
VSporting Gijon
p8383
(lp8384
V2
p8385
aV3
p8386
ag9
(g13
S'\x01\x00\x00\x00'
p8387
tp8388
Rp8389
tp8390
a(g7001
g8374
VEspanyol
p8391
(lp8392
V3
p8393
aV0
p8394
ag9
(g13
S'\x01\x00\x00\x00'
p8395
tp8396
Rp8397
tp8398
a(g7001
g8374
VAthletic Club
p8399
(lp8400
V2
p8401
aV2
p8402
ag9
(g13
S'\x01\x00\x00\x00'
p8403
tp8404
Rp8405
tp8406
a(g7001
g8374
VAtletico Madrid
p8407
(lp8408
V1
p8409
aV1
p8410
ag9
(g13
S'\x01\x00\x00\x00'
p8411
tp8412
Rp8413
tp8414
a(g7001
g8374
VCelta Vigo
p8415
(lp8416
V2
p8417
aV0
p8418
ag9
(g13
S'\xff\xff\xff\xff'
p8419
tp8420
Rp8421
tp8422
a(g7001
g8374
VSevilla
p8423
(lp8424
V1
p8425
aV1
p8426
ag9
(g13
S'\x01\x00\x00\x00'
p8427
tp8428
Rp8429
tp8430
a(g7001
g8374
VEibar
p8431
(lp8432
V2
p8433
aV0
p8434
ag9
(g13
S'\x01\x00\x00\x00'
p8435
tp8436
Rp8437
tp8438
a(g7001
g8374
VVillarreal
p8439
(lp8440
V1
p8441
aV2
p8442
ag9
(g13
S'\x01\x00\x00\x00'
p8443
tp8444
Rp8445
tp8446
a(g7001
g8374
VValencia
p8447
(lp8448
V1
p8449
aV1
p8450
ag9
(g13
S'\x01\x00\x00\x00'
p8451
tp8452
Rp8453
tp8454
a(g7001
g8374
VRayo Vallecano
p8455
(lp8456
V2
p8457
aV2
p8458
ag9
(g13
S'\x01\x00\x00\x00'
p8459
tp8460
Rp8461
tp8462
a(g7001
g8374
VReal Betis
p8463
(lp8464
V2
p8465
aV2
p8466
ag9
(g13
S'\x01\x00\x00\x00'
p8467
tp8468
Rp8469
tp8470
a(g7001
g8374
VGranada
p8471
(lp8472
V0
p8473
aV1
p8474
ag9
(g13
S'\x01\x00\x00\x00'
p8475
tp8476
Rp8477
tp8478
a(g7001
g8374
VMalaga
p8479
(lp8480
V3
p8481
aV3
p8482
ag9
(g13
S'\x01\x00\x00\x00'
p8483
tp8484
Rp8485
tp8486
a(g7001
VEibar
p8487
VAthletic Club
p8488
(lp8489
V2
p8490
aV0
p8491
ag9
(g13
S'\x01\x00\x00\x00'
p8492
tp8493
Rp8494
tp8495
a(g7001
g8487
VAtletico Madrid
p8496
(lp8497
V0
p8498
aV2
p8499
ag9
(g13
S'\x01\x00\x00\x00'
p8500
tp8501
Rp8502
tp8503
a(g7001
g8487
VCelta Vigo
p8504
(lp8505
V1
p8506
aV1
p8507
ag9
(g13
S'\xff\xff\xff\xff'
p8508
tp8509
Rp8510
tp8511
a(g7001
g8487
VSevilla
p8512
(lp8513
V1
p8514
aV1
p8515
ag9
(g13
S'\x01\x00\x00\x00'
p8516
tp8517
Rp8518
tp8519
a(g7001
g8487
VRayo Vallecano
p8520
(lp8521
V1
p8522
aV0
p8523
ag9
(g13
S'\xff\xff\xff\xff'
p8524
tp8525
Rp8526
tp8527
a(g7001
g8487
VReal Madrid
p8528
(lp8529
V0
p8530
aV2
p8531
ag9
(g13
S'\xff\xff\xff\xff'
p8532
tp8533
Rp8534
tp8535
a(g7001
g8487
VValencia
p8536
(lp8537
V1
p8538
aV1
p8539
ag9
(g13
S'\xff\xff\xff\xff'
p8540
tp8541
Rp8542
tp8543
a(g7001
g8487
VSporting Gijon
p8544
(lp8545
V2
p8546
aV0
p8547
ag9
(g13
S'\x01\x00\x00\x00'
p8548
tp8549
Rp8550
tp8551
a(g7001
g8487
VEspanyol
p8552
(lp8553
V2
p8554
aV1
p8555
ag9
(g13
S'\x01\x00\x00\x00'
p8556
tp8557
Rp8558
tp8559
a(g7001
g8487
VGranada
p8560
(lp8561
V5
p8562
aV1
p8563
ag9
(g13
S'\x01\x00\x00\x00'
p8564
tp8565
Rp8566
tp8567
a(g7001
g8487
VMalaga
p8568
(lp8569
V1
p8570
aV2
p8571
ag9
(g13
S'\x01\x00\x00\x00'
p8572
tp8573
Rp8574
tp8575
a(g7001
g8487
VLevante
p8576
(lp8577
V2
p8578
aV0
p8579
ag9
(g13
S'\x01\x00\x00\x00'
p8580
tp8581
Rp8582
tp8583
a(g7001
g8487
VLas Palmas
p8584
(lp8585
V0
p8586
aV1
p8587
ag9
(g13
S'\x01\x00\x00\x00'
p8588
tp8589
Rp8590
tp8591
a(g7001
g8487
VBarcelona
p8592
(lp8593
V0
p8594
aV4
p8595
ag9
(g13
S'\xff\xff\xff\xff'
p8596
tp8597
Rp8598
tp8599
a(g7001
VCelta Vigo
p8600
VRayo Vallecano
p8601
(lp8602
V3
p8603
aV0
p8604
ag9
(g13
S'\x01\x00\x00\x00'
p8605
tp8606
Rp8607
tp8608
a(g7001
g8600
VLas Palmas
p8609
(lp8610
V3
p8611
aV3
p8612
ag9
(g13
S'\x01\x00\x00\x00'
p8613
tp8614
Rp8615
tp8616
a(g7001
g8600
VBarcelona
p8617
(lp8618
V4
p8619
aV1
p8620
ag9
(g13
S'\xff\xff\xff\xff'
p8621
tp8622
Rp8623
tp8624
a(g7001
g8600
VGetafe
p8625
(lp8626
V0
p8627
aV0
p8628
ag9
(g13
S'\x01\x00\x00\x00'
p8629
tp8630
Rp8631
tp8632
a(g7001
g8600
VReal Madrid
p8633
(lp8634
V1
p8635
aV3
p8636
ag9
(g13
S'\xff\xff\xff\xff'
p8637
tp8638
Rp8639
tp8640
a(g7001
g8600
VValencia
p8641
(lp8642
V1
p8643
aV5
p8644
ag9
(g13
S'\x01\x00\x00\x00'
p8645
tp8646
Rp8647
tp8648
a(g7001
g8600
VSporting Gijon
p8649
(lp8650
V2
p8651
aV1
p8652
ag9
(g13
S'\x01\x00\x00\x00'
p8653
tp8654
Rp8655
tp8656
a(g7001
g8600
VEspanyol
p8657
(lp8658
V1
p8659
aV0
p8660
ag9
(g13
S'\x01\x00\x00\x00'
p8661
tp8662
Rp8663
tp8664
a(g7001
g8600
VAthletic Club
p8665
(lp8666
V0
p8667
aV1
p8668
ag9
(g13
S'\x01\x00\x00\x00'
p8669
tp8670
Rp8671
tp8672
a(g7001
g8600
VAtletico Madrid
p8673
(lp8674
V0
p8675
aV2
p8676
ag9
(g13
S'\x01\x00\x00\x00'
p8677
tp8678
Rp8679
tp8680
a(g7001
g8600
VLevante
p8681
(lp8682
V4
p8683
aV3
p8684
ag9
(g13
S'\x01\x00\x00\x00'
p8685
tp8686
Rp8687
tp8688
a(g7001
g8600
VSevilla
p8689
(lp8690
V1
p8691
aV1
p8692
ag9
(g13
S'\x01\x00\x00\x00'
p8693
tp8694
Rp8695
tp8696
a(g7001
g8600
VEibar
p8697
(lp8698
V3
p8699
aV2
p8700
ag9
(g13
S'\x01\x00\x00\x00'
p8701
tp8702
Rp8703
tp8704
a(g7001
g8600
VVillarreal
p8705
(lp8706
V0
p8707
aV0
p8708
ag9
(g13
S'\x01\x00\x00\x00'
p8709
tp8710
Rp8711
tp8712
a(g7001
g8600
VReal Sociedad
p8713
(lp8714
V1
p8715
aV0
p8716
ag9
(g13
S'\x01\x00\x00\x00'
p8717
tp8718
Rp8719
tp8720
a(g7001
VSevilla
p8721
VAtletico Madrid
p8722
(lp8723
V0
p8724
aV3
p8725
ag9
(g13
S'\x01\x00\x00\x00'
p8726
tp8727
Rp8728
tp8729
a(g7001
g8721
VRayo Vallecano
p8730
(lp8731
V3
p8732
aV2
p8733
ag9
(g13
S'\x01\x00\x00\x00'
p8734
tp8735
Rp8736
tp8737
a(g7001
g8721
VBarcelona
p8738
(lp8739
V2
p8740
aV1
p8741
ag9
(g13
S'\xff\xff\xff\xff'
p8742
tp8743
Rp8744
tp8745
a(g7001
g8721
VGetafe
p8746
(lp8747
V5
p8748
aV0
p8749
ag9
(g13
S'\x01\x00\x00\x00'
p8750
tp8751
Rp8752
tp8753
a(g7001
g8721
VReal Madrid
p8754
(lp8755
V3
p8756
aV2
p8757
ag9
(g13
S'\xff\xff\xff\xff'
p8758
tp8759
Rp8760
tp8761
a(g7001
g8721
VValencia
p8762
(lp8763
V1
p8764
aV0
p8765
ag9
(g13
S'\x01\x00\x00\x00'
p8766
tp8767
Rp8768
tp8769
a(g7001
g8721
VSporting Gijon
p8770
(lp8771
V2
p8772
aV0
p8773
ag9
(g13
S'\x01\x00\x00\x00'
p8774
tp8775
Rp8776
tp8777
a(g7001
g8721
VEspanyol
p8778
(lp8779
V2
p8780
aV0
p8781
ag9
(g13
S'\x01\x00\x00\x00'
p8782
tp8783
Rp8784
tp8785
a(g7001
g8721
VAthletic Club
p8786
(lp8787
V2
p8788
aV0
p8789
ag9
(g13
S'\x01\x00\x00\x00'
p8790
tp8791
Rp8792
tp8793
a(g7001
g8721
VMalaga
p8794
(lp8795
V2
p8796
aV1
p8797
ag9
(g13
S'\x01\x00\x00\x00'
p8798
tp8799
Rp8800
tp8801
a(g7001
g8721
VLevante
p8802
(lp8803
V3
p8804
aV1
p8805
ag9
(g13
S'\x01\x00\x00\x00'
p8806
tp8807
Rp8808
tp8809
a(g7001
g8721
VLas Palmas
p8810
(lp8811
V2
p8812
aV0
p8813
ag9
(g13
S'\x01\x00\x00\x00'
p8814
tp8815
Rp8816
tp8817
a(g7001
g8721
VEibar
p8818
(lp8819
V1
p8820
aV0
p8821
ag9
(g13
S'\x01\x00\x00\x00'
p8822
tp8823
Rp8824
tp8825
a(g7001
VAtletico Madrid
p8826
VBarcelona
p8827
(lp8828
V1
p8829
aV2
p8830
ag9
(g13
S'\x01\x00\x00\x00'
p8831
tp8832
Rp8833
tp8834
a(g7001
g8826
VGetafe
p8835
(lp8836
V2
p8837
aV0
p8838
ag9
(g13
S'\x01\x00\x00\x00'
p8839
tp8840
Rp8841
tp8842
a(g7001
g8826
VReal Madrid
p8843
(lp8844
V1
p8845
aV1
p8846
ag9
(g13
S'\xff\xff\xff\xff'
p8847
tp8848
Rp8849
tp8850
a(g7001
g8826
VValencia
p8851
(lp8852
V2
p8853
aV1
p8854
ag9
(g13
S'\x01\x00\x00\x00'
p8855
tp8856
Rp8857
tp8858
a(g7001
g8826
VSporting Gijon
p8859
(lp8860
V1
p8861
aV0
p8862
ag9
(g13
S'\x01\x00\x00\x00'
p8863
tp8864
Rp8865
tp8866
a(g7001
g8826
VEspanyol
p8867
(lp8868
V1
p8869
aV0
p8870
ag9
(g13
S'\x01\x00\x00\x00'
p8871
tp8872
Rp8873
tp8874
a(g7001
g8826
VAthletic Club
p8875
(lp8876
V2
p8877
aV1
p8878
ag9
(g13
S'\x01\x00\x00\x00'
p8879
tp8880
Rp8881
tp8882
a(g7001
g8826
VLevante
p8883
(lp8884
V1
p8885
aV0
p8886
ag9
(g13
S'\x01\x00\x00\x00'
p8887
tp8888
Rp8889
tp8890
a(g7001
g8826
VSevilla
p8891
(lp8892
V0
p8893
aV0
p8894
ag9
(g13
S'\x01\x00\x00\x00'
p8895
tp8896
Rp8897
tp8898
a(g7001
g8826
VEibar
p8899
(lp8900
V3
p8901
aV1
p8902
ag9
(g13
S'\x01\x00\x00\x00'
p8903
tp8904
Rp8905
tp8906
a(g7001
g8826
VVillarreal
p8907
(lp8908
V0
p8909
aV0
p8910
ag9
(g13
S'\x01\x00\x00\x00'
p8911
tp8912
Rp8913
tp8914
a(g7001
g8826
VReal Sociedad
p8915
(lp8916
V3
p8917
aV0
p8918
ag9
(g13
S'\x01\x00\x00\x00'
p8919
tp8920
Rp8921
tp8922
a(g7001
g8826
VDeportivo La Coruna
p8923
(lp8924
V3
p8925
aV0
p8926
ag9
(g13
S'\x01\x00\x00\x00'
p8927
tp8928
Rp8929
tp8930
a(g7001
VReal Betis
p8931
VReal Sociedad
p8932
(lp8933
V1
p8934
aV0
p8935
ag9
(g13
S'\xff\xff\xff\xff'
p8936
tp8937
Rp8938
tp8939
a(g7001
g8931
VDeportivo La Coruna
p8940
(lp8941
V1
p8942
aV2
p8943
ag9
(g13
S'\x01\x00\x00\x00'
p8944
tp8945
Rp8946
tp8947
a(g7001
g8931
VEspanyol
p8948
(lp8949
V1
p8950
aV3
p8951
ag9
(g13
S'\x01\x00\x00\x00'
p8952
tp8953
Rp8954
tp8955
a(g7001
g8931
VAtletico Madrid
p8956
(lp8957
V0
p8958
aV1
p8959
ag9
(g13
S'\xff\xff\xff\xff'
p8960
tp8961
Rp8962
tp8963
a(g7001
g8931
VCelta Vigo
p8964
(lp8965
V1
p8966
aV1
p8967
ag9
(g13
S'\x01\x00\x00\x00'
p8968
tp8969
Rp8970
tp8971
a(g7001
g8931
VSevilla
p8972
(lp8973
V0
p8974
aV0
p8975
ag9
(g13
S'\x01\x00\x00\x00'
p8976
tp8977
Rp8978
tp8979
a(g7001
g8931
VEibar
p8980
(lp8981
V0
p8982
aV4
p8983
ag9
(g13
S'\x01\x00\x00\x00'
p8984
tp8985
Rp8986
tp8987
a(g7001
g8931
VReal Madrid
p8988
(lp8989
V1
p8990
aV1
p8991
ag9
(g13
S'\xff\xff\xff\xff'
p8992
tp8993
Rp8994
tp8995
a(g7001
g8931
VValencia
p8996
(lp8997
V1
p8998
aV0
p8999
ag9
(g13
S'\x01\x00\x00\x00'
p9000
tp9001
Rp9002
tp9003
a(g7001
g8931
VSporting Gijon
p9004
(lp9005
V1
p9006
aV1
p9007
ag9
(g13
S'\x01\x00\x00\x00'
p9008
tp9009
Rp9010
tp9011
a(g7001
g8931
VRayo Vallecano
p9012
(lp9013
V2
p9014
aV2
p9015
ag9
(g13
S'\x01\x00\x00\x00'
p9016
tp9017
Rp9018
tp9019
a(g7001
g8931
VGranada
p9020
(lp9021
V2
p9022
aV0
p9023
ag9
(g13
S'\x01\x00\x00\x00'
p9024
tp9025
Rp9026
tp9027
a(g7001
VAthletic Club
p9028
VBarcelona
p9029
(lp9030
V0
p9031
aV1
p9032
ag9
(g13
S'\xff\xff\xff\xff'
p9033
tp9034
Rp9035
tp9036
a(g7001
g9028
VGetafe
p9037
(lp9038
V3
p9039
aV1
p9040
ag9
(g13
S'\x01\x00\x00\x00'
p9041
tp9042
Rp9043
tp9044
a(g7001
g9028
VReal Madrid
p9045
(lp9046
V1
p9047
aV2
p9048
ag9
(g13
S'\xff\xff\xff\xff'
p9049
tp9050
Rp9051
tp9052
a(g7001
g9028
VValencia
p9053
(lp9054
V3
p9055
aV1
p9056
ag9
(g13
S'\x01\x00\x00\x00'
p9057
tp9058
Rp9059
tp9060
a(g7001
g9028
VSporting Gijon
p9061
(lp9062
V3
p9063
aV0
p9064
ag9
(g13
S'\x01\x00\x00\x00'
p9065
tp9066
Rp9067
tp9068
a(g7001
g9028
VEspanyol
p9069
(lp9070
V2
p9071
aV1
p9072
ag9
(g13
S'\x01\x00\x00\x00'
p9073
tp9074
Rp9075
tp9076
a(g7001
g9028
VMalaga
p9077
(lp9078
V0
p9079
aV0
p9080
ag9
(g13
S'\x01\x00\x00\x00'
p9081
tp9082
Rp9083
tp9084
a(g7001
g9028
VLevante
p9085
(lp9086
V2
p9087
aV0
p9088
ag9
(g13
S'\x01\x00\x00\x00'
p9089
tp9090
Rp9091
tp9092
a(g7001
g9028
VLas Palmas
p9093
(lp9094
V2
p9095
aV2
p9096
ag9
(g13
S'\x01\x00\x00\x00'
p9097
tp9098
Rp9099
tp9100
a(g7001
g9028
VEibar
p9101
(lp9102
V5
p9103
aV2
p9104
ag9
(g13
S'\x01\x00\x00\x00'
p9105
tp9106
Rp9107
tp9108
a(g7001
g9028
VVillarreal
p9109
(lp9110
V0
p9111
aV0
p9112
ag9
(g13
S'\x01\x00\x00\x00'
p9113
tp9114
Rp9115
tp9116
a(g7001
g9028
VReal Sociedad
p9117
(lp9118
V0
p9119
aV1
p9120
ag9
(g13
S'\x01\x00\x00\x00'
p9121
tp9122
Rp9123
tp9124
a(g7001
g9028
VDeportivo La Coruna
p9125
(lp9126
V4
p9127
aV1
p9128
ag9
(g13
S'\x01\x00\x00\x00'
p9129
tp9130
Rp9131
tp9132
a(g7001
VEspanyol
p9133
VGetafe
p9134
(lp9135
V1
p9136
aV0
p9137
ag9
(g13
S'\x01\x00\x00\x00'
p9138
tp9139
Rp9140
tp9141
a(g7001
g9133
VReal Madrid
p9142
(lp9143
V0
p9144
aV6
p9145
ag9
(g13
S'\xff\xff\xff\xff'
p9146
tp9147
Rp9148
tp9149
a(g7001
g9133
VValencia
p9150
(lp9151
V1
p9152
aV0
p9153
ag9
(g13
S'\xff\xff\xff\xff'
p9154
tp9155
Rp9156
tp9157
a(g7001
g9133
VSporting Gijon
p9158
(lp9159
V1
p9160
aV2
p9161
ag9
(g13
S'\x01\x00\x00\x00'
p9162
tp9163
Rp9164
tp9165
a(g7001
g9133
VGranada
p9166
(lp9167
V1
p9168
aV1
p9169
ag9
(g13
S'\x01\x00\x00\x00'
p9170
tp9171
Rp9172
tp9173
a(g7001
g9133
VMalaga
p9174
(lp9175
V2
p9176
aV0
p9177
ag9
(g13
S'\x01\x00\x00\x00'
p9178
tp9179
Rp9180
tp9181
a(g7001
g9133
VLevante
p9182
(lp9183
V1
p9184
aV1
p9185
ag9
(g13
S'\x01\x00\x00\x00'
p9186
tp9187
Rp9188
tp9189
a(g7001
g9133
VLas Palmas
p9190
(lp9191
V1
p9192
aV0
p9193
ag9
(g13
S'\x01\x00\x00\x00'
p9194
tp9195
Rp9196
tp9197
a(g7001
g9133
VBarcelona
p9198
(lp9199
V0
p9200
aV0
p9201
ag9
(g13
S'\xff\xff\xff\xff'
p9202
tp9203
Rp9204
tp9205
a(g7001
g9133
VVillarreal
p9206
(lp9207
V2
p9208
aV2
p9209
ag9
(g13
S'\x01\x00\x00\x00'
p9210
tp9211
Rp9212
tp9213
a(g7001
g9133
VReal Sociedad
p9214
(lp9215
V0
p9216
aV5
p9217
ag9
(g13
S'\xff\xff\xff\xff'
p9218
tp9219
Rp9220
tp9221
a(g7001
g9133
VDeportivo La Coruna
p9222
(lp9223
V1
p9224
aV0
p9225
ag9
(g13
S'\x01\x00\x00\x00'
p9226
tp9227
Rp9228
tp9229
a(g7001
g9133
VReal Betis
p9230
(lp9231
V0
p9232
aV3
p9233
ag9
(g13
S'\x01\x00\x00\x00'
p9234
tp9235
Rp9236
tp9237
a(g7001
g9133
VRayo Vallecano
p9238
(lp9239
V2
p9240
aV1
p9241
ag9
(g13
S'\x01\x00\x00\x00'
p9242
tp9243
Rp9244
tp9245
a(S'Bundesliga'
p9246
VWerder Bremen
p9247
VSchalke 04
p9248
(lp9249
V0
p9250
aV3
p9251
ag9
(g13
S'\xff\xff\xff\xff'
p9252
tp9253
Rp9254
tp9255
a(g9246
g9247
VBorussia M.Gladbach
p9256
(lp9257
V2
p9258
aV1
p9259
ag9
(g13
S'\xff\xff\xff\xff'
p9260
tp9261
Rp9262
tp9263
a(g9246
g9247
VIngolstadt
p9264
(lp9265
V0
p9266
aV1
p9267
ag9
(g13
S'\x01\x00\x00\x00'
p9268
tp9269
Rp9270
tp9271
a(g9246
g9247
VBayer Leverkusen
p9272
(lp9273
V0
p9274
aV3
p9275
ag9
(g13
S'\x01\x00\x00\x00'
p9276
tp9277
Rp9278
tp9279
a(g9246
g9247
VBayern Munich
p9280
(lp9281
V0
p9282
aV1
p9283
ag9
(g13
S'\xff\xff\xff\xff'
p9284
tp9285
Rp9286
tp9287
a(g9246
g9247
VBorussia Dortmund
p9288
(lp9289
V1
p9290
aV3
p9291
ag9
(g13
S'\xff\xff\xff\xff'
p9292
tp9293
Rp9294
tp9295
a(g9246
g9247
VHamburger SV
p9296
(lp9297
V1
p9298
aV3
p9299
ag9
(g13
S'\xff\xff\xff\xff'
p9300
tp9301
Rp9302
tp9303
a(g9246
g9247
VFC Cologne
p9304
(lp9305
V1
p9306
aV1
p9307
ag9
(g13
S'\x01\x00\x00\x00'
p9308
tp9309
Rp9310
tp9311
a(g9246
g9247
VHertha Berlin
p9312
(lp9313
V3
p9314
aV3
p9315
ag9
(g13
S'\x01\x00\x00\x00'
p9316
tp9317
Rp9318
tp9319
a(g9246
g9247
VHoffenheim
p9320
(lp9321
V1
p9322
aV1
p9323
ag9
(g13
S'\x01\x00\x00\x00'
p9324
tp9325
Rp9326
tp9327
a(g9246
g9247
VDarmstadt
p9328
(lp9329
V2
p9330
aV2
p9331
ag9
(g13
S'\x01\x00\x00\x00'
p9332
tp9333
Rp9334
tp9335
a(g9246
g9247
VHannover 96
p9336
(lp9337
V4
p9338
aV1
p9339
ag9
(g13
S'\x01\x00\x00\x00'
p9340
tp9341
Rp9342
tp9343
a(g9246
VMainz 05
p9344
VHannover 96
p9345
(lp9346
V3
p9347
aV0
p9348
ag9
(g13
S'\x01\x00\x00\x00'
p9349
tp9350
Rp9351
tp9352
a(g9246
g9344
VHoffenheim
p9353
(lp9354
V3
p9355
aV1
p9356
ag9
(g13
S'\x01\x00\x00\x00'
p9357
tp9358
Rp9359
tp9360
a(g9246
g9344
VBayern Munich
p9361
(lp9362
V0
p9363
aV3
p9364
ag9
(g13
S'\xff\xff\xff\xff'
p9365
tp9366
Rp9367
tp9368
a(g9246
g9344
VBorussia Dortmund
p9369
(lp9370
V0
p9371
aV2
p9372
ag9
(g13
S'\xff\xff\xff\xff'
p9373
tp9374
Rp9375
tp9376
a(g9246
g9344
VWerder Bremen
p9377
(lp9378
V1
p9379
aV3
p9380
ag9
(g13
S'\x01\x00\x00\x00'
p9381
tp9382
Rp9383
tp9384
a(g9246
g9344
VWolfsburg
p9385
(lp9386
V2
p9387
aV0
p9388
ag9
(g13
S'\xff\xff\xff\xff'
p9389
tp9390
Rp9391
tp9392
a(g9246
g9344
VEintracht Frankfurt
p9393
(lp9394
V2
p9395
aV1
p9396
ag9
(g13
S'\x01\x00\x00\x00'
p9397
tp9398
Rp9399
tp9400
a(g9246
g9344
VVfB Stuttgart
p9401
(lp9402
V0
p9403
aV0
p9404
ag9
(g13
S'\x01\x00\x00\x00'
p9405
tp9406
Rp9407
tp9408
a(g9246
g9344
VBorussia M.Gladbach
p9409
(lp9410
V1
p9411
aV0
p9412
ag9
(g13
S'\xff\xff\xff\xff'
p9413
tp9414
Rp9415
tp9416
a(g9246
g9344
VSchalke 04
p9417
(lp9418
V2
p9419
aV1
p9420
ag9
(g13
S'\x01\x00\x00\x00'
p9421
tp9422
Rp9423
tp9424
a(g9246
g9344
VBayer Leverkusen
p9425
(lp9426
V3
p9427
aV1
p9428
ag9
(g13
S'\x01\x00\x00\x00'
p9429
tp9430
Rp9431
tp9432
a(g9246
g9344
VDarmstadt
p9433
(lp9434
V0
p9435
aV0
p9436
ag9
(g13
S'\x01\x00\x00\x00'
p9437
tp9438
Rp9439
tp9440
a(g9246
VIngolstadt
p9441
VBorussia Dortmund
p9442
(lp9443
V0
p9444
aV4
p9445
ag9
(g13
S'\x01\x00\x00\x00'
p9446
tp9447
Rp9448
tp9449
a(g9246
g9441
VWolfsburg
p9450
(lp9451
V0
p9452
aV0
p9453
ag9
(g13
S'\xff\xff\xff\xff'
p9454
tp9455
Rp9456
tp9457
a(g9246
g9441
VHamburger SV
p9458
(lp9459
V0
p9460
aV1
p9461
ag9
(g13
S'\x01\x00\x00\x00'
p9462
tp9463
Rp9464
tp9465
a(g9246
g9441
VEintracht Frankfurt
p9466
(lp9467
V2
p9468
aV0
p9469
ag9
(g13
S'\x01\x00\x00\x00'
p9470
tp9471
Rp9472
tp9473
a(g9246
g9441
VHertha Berlin
p9474
(lp9475
V0
p9476
aV1
p9477
ag9
(g13
S'\x01\x00\x00\x00'
p9478
tp9479
Rp9480
tp9481
a(g9246
g9441
VDarmstadt
p9482
(lp9483
V3
p9484
aV1
p9485
ag9
(g13
S'\x01\x00\x00\x00'
p9486
tp9487
Rp9488
tp9489
a(g9246
g9441
VHoffenheim
p9490
(lp9491
V1
p9492
aV1
p9493
ag9
(g13
S'\x01\x00\x00\x00'
p9494
tp9495
Rp9496
tp9497
a(g9246
g9441
VBayer Leverkusen
p9498
(lp9499
V0
p9500
aV1
p9501
ag9
(g13
S'\x01\x00\x00\x00'
p9502
tp9503
Rp9504
tp9505
a(g9246
g9441
VMainz 05
p9506
(lp9507
V1
p9508
aV0
p9509
ag9
(g13
S'\x01\x00\x00\x00'
p9510
tp9511
Rp9512
tp9513
a(g9246
g9441
VAugsburg
p9514
(lp9515
V2
p9516
aV1
p9517
ag9
(g13
S'\x01\x00\x00\x00'
p9518
tp9519
Rp9520
tp9521
a(g9246
g9441
VWerder Bremen
p9522
(lp9523
V2
p9524
aV0
p9525
ag9
(g13
S'\x01\x00\x00\x00'
p9526
tp9527
Rp9528
tp9529
a(g9246
g9441
VFC Cologne
p9530
(lp9531
V1
p9532
aV1
p9533
ag9
(g13
S'\x01\x00\x00\x00'
p9534
tp9535
Rp9536
tp9537
a(g9246
VHertha Berlin
p9538
VWerder Bremen
p9539
(lp9540
V1
p9541
aV1
p9542
ag9
(g13
S'\x01\x00\x00\x00'
p9543
tp9544
Rp9545
tp9546
a(g9246
g9538
VVfB Stuttgart
p9547
(lp9548
V2
p9549
aV1
p9550
ag9
(g13
S'\x01\x00\x00\x00'
p9551
tp9552
Rp9553
tp9554
a(g9246
g9538
VFC Cologne
p9555
(lp9556
V2
p9557
aV0
p9558
ag9
(g13
S'\x01\x00\x00\x00'
p9559
tp9560
Rp9561
tp9562
a(g9246
g9538
VHamburger SV
p9563
(lp9564
V3
p9565
aV0
p9566
ag9
(g13
S'\x01\x00\x00\x00'
p9567
tp9568
Rp9569
tp9570
a(g9246
g9538
VBorussia M.Gladbach
p9571
(lp9572
V1
p9573
aV4
p9574
ag9
(g13
S'\xff\xff\xff\xff'
p9575
tp9576
Rp9577
tp9578
a(g9246
g9538
VHoffenheim
p9579
(lp9580
V1
p9581
aV0
p9582
ag9
(g13
S'\x01\x00\x00\x00'
p9583
tp9584
Rp9585
tp9586
a(g9246
g9538
VBayer Leverkusen
p9587
(lp9588
V2
p9589
aV1
p9590
ag9
(g13
S'\x01\x00\x00\x00'
p9591
tp9592
Rp9593
tp9594
a(g9246
g9538
VMainz 05
p9595
(lp9596
V2
p9597
aV0
p9598
ag9
(g13
S'\x01\x00\x00\x00'
p9599
tp9600
Rp9601
tp9602
a(g9246
g9538
VAugsburg
p9603
(lp9604
V0
p9605
aV0
p9606
ag9
(g13
S'\x01\x00\x00\x00'
p9607
tp9608
Rp9609
tp9610
a(g9246
g9538
VBorussia Dortmund
p9611
(lp9612
V0
p9613
aV0
p9614
ag9
(g13
S'\xff\xff\xff\xff'
p9615
tp9616
Rp9617
tp9618
a(g9246
g9538
VWolfsburg
p9619
(lp9620
V1
p9621
aV1
p9622
ag9
(g13
S'\xff\xff\xff\xff'
p9623
tp9624
Rp9625
tp9626
a(g9246
g9538
VEintracht Frankfurt
p9627
(lp9628
V2
p9629
aV0
p9630
ag9
(g13
S'\x01\x00\x00\x00'
p9631
tp9632
Rp9633
tp9634
a(g9246
VVfB Stuttgart
p9635
VFC Cologne
p9636
(lp9637
V1
p9638
aV3
p9639
ag9
(g13
S'\x01\x00\x00\x00'
p9640
tp9641
Rp9642
tp9643
a(g9246
g9635
VEintracht Frankfurt
p9644
(lp9645
V1
p9646
aV4
p9647
ag9
(g13
S'\x01\x00\x00\x00'
p9648
tp9649
Rp9650
tp9651
a(g9246
g9635
VSchalke 04
p9652
(lp9653
V0
p9654
aV1
p9655
ag9
(g13
S'\x01\x00\x00\x00'
p9656
tp9657
Rp9658
tp9659
a(g9246
g9635
VBorussia M.Gladbach
p9660
(lp9661
V1
p9662
aV3
p9663
ag9
(g13
S'\x01\x00\x00\x00'
p9664
tp9665
Rp9666
tp9667
a(g9246
g9635
VIngolstadt
p9668
(lp9669
V1
p9670
aV0
p9671
ag9
(g13
S'\x01\x00\x00\x00'
p9672
tp9673
Rp9674
tp9675
a(g9246
g9635
VDarmstadt
p9676
(lp9677
V2
p9678
aV0
p9679
ag9
(g13
S'\x01\x00\x00\x00'
p9680
tp9681
Rp9682
tp9683
a(g9246
g9635
VAugsburg
p9684
(lp9685
V0
p9686
aV4
p9687
ag9
(g13
S'\x01\x00\x00\x00'
p9688
tp9689
Rp9690
tp9691
a(g9246
g9635
VWerder Bremen
p9692
(lp9693
V1
p9694
aV1
p9695
ag9
(g13
S'\x01\x00\x00\x00'
p9696
tp9697
Rp9698
tp9699
a(g9246
g9635
VWolfsburg
p9700
(lp9701
V3
p9702
aV1
p9703
ag9
(g13
S'\xff\xff\xff\xff'
p9704
tp9705
Rp9706
tp9707
a(g9246
g9635
VHamburger SV
p9708
(lp9709
V2
p9710
aV1
p9711
ag9
(g13
S'\x01\x00\x00\x00'
p9712
tp9713
Rp9714
tp9715
a(g9246
g9635
VHertha Berlin
p9716
(lp9717
V2
p9718
aV0
p9719
ag9
(g13
S'\x01\x00\x00\x00'
p9720
tp9721
Rp9722
tp9723
a(g9246
g9635
VHannover 96
p9724
(lp9725
V1
p9726
aV2
p9727
ag9
(g13
S'\x01\x00\x00\x00'
p9728
tp9729
Rp9730
tp9731
a(g9246
g9635
VHoffenheim
p9732
(lp9733
V5
p9734
aV1
p9735
ag9
(g13
S'\x01\x00\x00\x00'
p9736
tp9737
Rp9738
tp9739
a(g9246
VEintracht Frankfurt
p9740
VAugsburg
p9741
(lp9742
V1
p9743
aV1
p9744
ag9
(g13
S'\x01\x00\x00\x00'
p9745
tp9746
Rp9747
tp9748
a(g9246
g9740
VFC Cologne
p9749
(lp9750
V6
p9751
aV2
p9752
ag9
(g13
S'\x01\x00\x00\x00'
p9753
tp9754
Rp9755
tp9756
a(g9246
g9740
VHertha Berlin
p9757
(lp9758
V1
p9759
aV1
p9760
ag9
(g13
S'\x01\x00\x00\x00'
p9761
tp9762
Rp9763
tp9764
a(g9246
g9740
VBorussia M.Gladbach
p9765
(lp9766
V1
p9767
aV5
p9768
ag9
(g13
S'\x01\x00\x00\x00'
p9769
tp9770
Rp9771
tp9772
a(g9246
g9740
VBayern Munich
p9773
(lp9774
V0
p9775
aV0
p9776
ag9
(g13
S'\xff\xff\xff\xff'
p9777
tp9778
Rp9779
tp9780
a(g9246
g9740
VBayer Leverkusen
p9781
(lp9782
V1
p9783
aV3
p9784
ag9
(g13
S'\x01\x00\x00\x00'
p9785
tp9786
Rp9787
tp9788
a(g9246
g9740
VDarmstadt
p9789
(lp9790
V0
p9791
aV1
p9792
ag9
(g13
S'\x01\x00\x00\x00'
p9793
tp9794
Rp9795
tp9796
a(g9246
g9740
VWerder Bremen
p9797
(lp9798
V2
p9799
aV1
p9800
ag9
(g13
S'\x01\x00\x00\x00'
p9801
tp9802
Rp9803
tp9804
a(g9246
g9740
VWolfsburg
p9805
(lp9806
V3
p9807
aV2
p9808
ag9
(g13
S'\xff\xff\xff\xff'
p9809
tp9810
Rp9811
tp9812
a(g9246
g9740
VVfB Stuttgart
p9813
(lp9814
V2
p9815
aV4
p9816
ag9
(g13
S'\x01\x00\x00\x00'
p9817
tp9818
Rp9819
tp9820
a(g9246
g9740
VHamburger SV
p9821
(lp9822
V0
p9823
aV0
p9824
ag9
(g13
S'\x01\x00\x00\x00'
p9825
tp9826
Rp9827
tp9828
a(g9246
g9740
VSchalke 04
p9829
(lp9830
V0
p9831
aV0
p9832
ag9
(g13
S'\xff\xff\xff\xff'
p9833
tp9834
Rp9835
tp9836
a(g9246
g9740
VIngolstadt
p9837
(lp9838
V1
p9839
aV1
p9840
ag9
(g13
S'\x01\x00\x00\x00'
p9841
tp9842
Rp9843
tp9844
a(g9246
VHoffenheim
p9845
VBayern Munich
p9846
(lp9847
V1
p9848
aV2
p9849
ag9
(g13
S'\xff\xff\xff\xff'
p9850
tp9851
Rp9852
tp9853
a(g9246
g9845
VWerder Bremen
p9854
(lp9855
V1
p9856
aV3
p9857
ag9
(g13
S'\x01\x00\x00\x00'
p9858
tp9859
Rp9860
tp9861
a(g9246
g9845
VBorussia Dortmund
p9862
(lp9863
V1
p9864
aV1
p9865
ag9
(g13
S'\xff\xff\xff\xff'
p9866
tp9867
Rp9868
tp9869
a(g9246
g9845
VVfB Stuttgart
p9870
(lp9871
V2
p9872
aV2
p9873
ag9
(g13
S'\xff\xff\xff\xff'
p9874
tp9875
Rp9876
tp9877
a(g9246
g9845
VHamburger SV
p9878
(lp9879
V0
p9880
aV1
p9881
ag9
(g13
S'\x01\x00\x00\x00'
p9882
tp9883
Rp9884
tp9885
a(g9246
g9845
VEintracht Frankfurt
p9886
(lp9887
V0
p9888
aV0
p9889
ag9
(g13
S'\x01\x00\x00\x00'
p9890
tp9891
Rp9892
tp9893
a(g9246
g9845
VBorussia M.Gladbach
p9894
(lp9895
V3
p9896
aV3
p9897
ag9
(g13
S'\xff\xff\xff\xff'
p9898
tp9899
Rp9900
tp9901
a(g9246
g9845
VHannover 96
p9902
(lp9903
V1
p9904
aV0
p9905
ag9
(g13
S'\x01\x00\x00\x00'
p9906
tp9907
Rp9908
tp9909
a(g9246
g9845
VBayer Leverkusen
p9910
(lp9911
V1
p9912
aV1
p9913
ag9
(g13
S'\xff\xff\xff\xff'
p9914
tp9915
Rp9916
tp9917
a(g9246
g9845
VDarmstadt
p9918
(lp9919
V0
p9920
aV2
p9921
ag9
(g13
S'\x01\x00\x00\x00'
p9922
tp9923
Rp9924
tp9925
a(g9246
g9845
VMainz 05
p9926
(lp9927
V3
p9928
aV2
p9929
ag9
(g13
S'\x01\x00\x00\x00'
p9930
tp9931
Rp9932
tp9933
a(g9246
g9845
VAugsburg
p9934
(lp9935
V2
p9936
aV1
p9937
ag9
(g13
S'\x01\x00\x00\x00'
p9938
tp9939
Rp9940
tp9941
a(g9246
VBayer Leverkusen
p9942
VHoffenheim
p9943
(lp9944
V2
p9945
aV1
p9946
ag9
(g13
S'\x01\x00\x00\x00'
p9947
tp9948
Rp9949
tp9950
a(g9246
g9942
VDarmstadt
p9951
(lp9952
V0
p9953
aV1
p9954
ag9
(g13
S'\x01\x00\x00\x00'
p9955
tp9956
Rp9957
tp9958
a(g9246
g9942
VMainz 05
p9959
(lp9960
V1
p9961
aV0
p9962
ag9
(g13
S'\x01\x00\x00\x00'
p9963
tp9964
Rp9965
tp9966
a(g9246
g9942
VAugsburg
p9967
(lp9968
V1
p9969
aV1
p9970
ag9
(g13
S'\x01\x00\x00\x00'
p9971
tp9972
Rp9973
tp9974
a(g9246
g9942
VVfB Stuttgart
p9975
(lp9976
V4
p9977
aV3
p9978
ag9
(g13
S'\x01\x00\x00\x00'
p9979
tp9980
Rp9981
tp9982
a(g9246
g9942
VFC Cologne
p9983
(lp9984
V1
p9985
aV2
p9986
ag9
(g13
S'\x01\x00\x00\x00'
p9987
tp9988
Rp9989
tp9990
a(g9246
g9942
VSchalke 04
p9991
(lp9992
V1
p9993
aV1
p9994
ag9
(g13
S'\x01\x00\x00\x00'
p9995
tp9996
Rp9997
tp9998
a(g9246
g9942
VBorussia M.Gladbach
p9999
(lp10000
V5
p10001
aV0
p10002
ag9
(g13
S'\x01\x00\x00\x00'
p10003
tp10004
Rp10005
tp10006
a(g9246
g9942
VHannover 96
p10007
(lp10008
V3
p10009
aV0
p10010
ag9
(g13
S'\x01\x00\x00\x00'
p10011
tp10012
Rp10013
tp10014
a(g9246
g9942
VBayern Munich
p10015
(lp10016
V0
p10017
aV0
p10018
ag9
(g13
S'\xff\xff\xff\xff'
p10019
tp10020
Rp10021
tp10022
a(g9246
g9942
VBorussia Dortmund
p10023
(lp10024
V0
p10025
aV1
p10026
ag9
(g13
S'\xff\xff\xff\xff'
p10027
tp10028
Rp10029
tp10030
a(g9246
g9942
VWerder Bremen
p10031
(lp10032
V1
p10033
aV4
p10034
ag9
(g13
S'\x01\x00\x00\x00'
p10035
tp10036
Rp10037
tp10038
a(g9246
VHannover 96
p10039
VBayer Leverkusen
p10040
(lp10041
V0
p10042
aV1
p10043
ag9
(g13
S'\xff\xff\xff\xff'
p10044
tp10045
Rp10046
tp10047
a(g9246
g10039
VBorussia Dortmund
p10048
(lp10049
V2
p10050
aV4
p10051
ag9
(g13
S'\xff\xff\xff\xff'
p10052
tp10053
Rp10054
tp10055
a(g9246
g10039
VVfB Stuttgart
p10056
(lp10057
V1
p10058
aV3
p10059
ag9
(g13
S'\x01\x00\x00\x00'
p10060
tp10061
Rp10062
tp10063
a(g9246
g10039
VWerder Bremen
p10064
(lp10065
V1
p10066
aV0
p10067
ag9
(g13
S'\x01\x00\x00\x00'
p10068
tp10069
Rp10070
tp10071
a(g9246
g10039
VEintracht Frankfurt
p10072
(lp10073
V1
p10074
aV2
p10075
ag9
(g13
S'\xff\xff\xff\xff'
p10076
tp10077
Rp10078
tp10079
a(g9246
g10039
VHertha Berlin
p10080
(lp10081
V1
p10082
aV3
p10083
ag9
(g13
S'\xff\xff\xff\xff'
p10084
tp10085
Rp10086
tp10087
a(g9246
g10039
VIngolstadt
p10088
(lp10089
V4
p10090
aV0
p10091
ag9
(g13
S'\x01\x00\x00\x00'
p10092
tp10093
Rp10094
tp10095
a(g9246
g10039
VBayern Munich
p10096
(lp10097
V0
p10098
aV1
p10099
ag9
(g13
S'\xff\xff\xff\xff'
p10100
tp10101
Rp10102
tp10103
a(g9246
g10039
VDarmstadt
p10104
(lp10105
V1
p10106
aV2
p10107
ag9
(g13
S'\x01\x00\x00\x00'
p10108
tp10109
Rp10110
tp10111
a(g9246
g10039
VMainz 05
p10112
(lp10113
V0
p10114
aV1
p10115
ag9
(g13
S'\x01\x00\x00\x00'
p10116
tp10117
Rp10118
tp10119
a(g9246
g10039
VAugsburg
p10120
(lp10121
V0
p10122
aV1
p10123
ag9
(g13
S'\x01\x00\x00\x00'
p10124
tp10125
Rp10126
tp10127
a(g9246
g10039
VWolfsburg
p10128
(lp10129
V0
p10130
aV4
p10131
ag9
(g13
S'\xff\xff\xff\xff'
p10132
tp10133
Rp10134
tp10135
a(g9246
VBorussia M.Gladbach
p10136
VMainz 05
p10137
(lp10138
V1
p10139
aV2
p10140
ag9
(g13
S'\x01\x00\x00\x00'
p10141
tp10142
Rp10143
tp10144
a(g9246
g10136
VHamburger SV
p10145
(lp10146
V0
p10147
aV3
p10148
ag9
(g13
S'\x01\x00\x00\x00'
p10149
tp10150
Rp10151
tp10152
a(g9246
g10136
VAugsburg
p10153
(lp10154
V4
p10155
aV2
p10156
ag9
(g13
S'\x01\x00\x00\x00'
p10157
tp10158
Rp10159
tp10160
a(g9246
g10136
VWolfsburg
p10161
(lp10162
V2
p10163
aV0
p10164
ag9
(g13
S'\x01\x00\x00\x00'
p10165
tp10166
Rp10167
tp10168
a(g9246
g10136
VSchalke 04
p10169
(lp10170
V3
p10171
aV1
p10172
ag9
(g13
S'\x01\x00\x00\x00'
p10173
tp10174
Rp10175
tp10176
a(g9246
g10136
VIngolstadt
p10177
(lp10178
V0
p10179
aV0
p10180
ag9
(g13
S'\x01\x00\x00\x00'
p10181
tp10182
Rp10183
tp10184
a(g9246
g10136
VHannover 96
p10185
(lp10186
V2
p10187
aV1
p10188
ag9
(g13
S'\x01\x00\x00\x00'
p10189
tp10190
Rp10191
tp10192
a(g9246
g10136
VBayern Munich
p10193
(lp10194
V3
p10195
aV1
p10196
ag9
(g13
S'\xff\xff\xff\xff'
p10197
tp10198
Rp10199
tp10200
a(g9246
g10136
VDarmstadt
p10201
(lp10202
V3
p10203
aV2
p10204
ag9
(g13
S'\x01\x00\x00\x00'
p10205
tp10206
Rp10207
tp10208
a(g9246
g10136
VBorussia Dortmund
p10209
(lp10210
V1
p10211
aV3
p10212
ag9
(g13
S'\xff\xff\xff\xff'
p10213
tp10214
Rp10215
tp10216
a(g9246
g10136
VWerder Bremen
p10217
(lp10218
V5
p10219
aV1
p10220
ag9
(g13
S'\x01\x00\x00\x00'
p10221
tp10222
Rp10223
tp10224
a(g9246
g10136
VFC Cologne
p10225
(lp10226
V1
p10227
aV0
p10228
ag9
(g13
S'\x01\x00\x00\x00'
p10229
tp10230
Rp10231
tp10232
a(g9246
g10136
VVfB Stuttgart
p10233
(lp10234
V4
p10235
aV0
p10236
ag9
(g13
S'\x01\x00\x00\x00'
p10237
tp10238
Rp10239
tp10240
a(g9246
VWolfsburg
p10241
VEintracht Frankfurt
p10242
(lp10243
V2
p10244
aV1
p10245
ag9
(g13
S'\x01\x00\x00\x00'
p10246
tp10247
Rp10248
tp10249
a(g9246
g10241
VSchalke 04
p10250
(lp10251
V3
p10252
aV0
p10253
ag9
(g13
S'\x01\x00\x00\x00'
p10254
tp10255
Rp10256
tp10257
a(g9246
g10241
VHertha Berlin
p10258
(lp10259
V2
p10260
aV0
p10261
ag9
(g13
S'\x01\x00\x00\x00'
p10262
tp10263
Rp10264
tp10265
a(g9246
g10241
VHannover 96
p10266
(lp10267
V1
p10268
aV1
p10269
ag9
(g13
S'\x01\x00\x00\x00'
p10270
tp10271
Rp10272
tp10273
a(g9246
g10241
VHoffenheim
p10274
(lp10275
V4
p10276
aV2
p10277
ag9
(g13
S'\x01\x00\x00\x00'
p10278
tp10279
Rp10280
tp10281
a(g9246
g10241
VBayer Leverkusen
p10282
(lp10283
V2
p10284
aV1
p10285
ag9
(g13
S'\x01\x00\x00\x00'
p10286
tp10287
Rp10288
tp10289
a(g9246
g10241
VWerder Bremen
p10290
(lp10291
V6
p10292
aV0
p10293
ag9
(g13
S'\x01\x00\x00\x00'
p10294
tp10295
Rp10296
tp10297
a(g9246
g10241
VBorussia Dortmund
p10298
(lp10299
V1
p10300
aV2
p10301
ag9
(g13
S'\x01\x00\x00\x00'
p10302
tp10303
Rp10304
tp10305
a(g9246
g10241
VHamburger SV
p10306
(lp10307
V1
p10308
aV1
p10309
ag9
(g13
S'\x01\x00\x00\x00'
p10310
tp10311
Rp10312
tp10313
a(g9246
g10241
VFC Cologne
p10314
(lp10315
V1
p10316
aV1
p10317
ag9
(g13
S'\x01\x00\x00\x00'
p10318
tp10319
Rp10320
tp10321
a(g9246
g10241
VIngolstadt
p10322
(lp10323
V2
p10324
aV0
p10325
ag9
(g13
S'\x01\x00\x00\x00'
p10326
tp10327
Rp10328
tp10329
a(g9246
g10241
VBayern Munich
p10330
(lp10331
V0
p10332
aV2
p10333
ag9
(g13
S'\xff\xff\xff\xff'
p10334
tp10335
Rp10336
tp10337
a(g9246
g10241
VBorussia M.Gladbach
p10338
(lp10339
V2
p10340
aV1
p10341
ag9
(g13
S'\x01\x00\x00\x00'
p10342
tp10343
Rp10344
tp10345
a(g9246
VHamburger SV
p10346
VVfB Stuttgart
p10347
(lp10348
V3
p10349
aV2
p10350
ag9
(g13
S'\x01\x00\x00\x00'
p10351
tp10352
Rp10353
tp10354
a(g9246
g10346
VEintracht Frankfurt
p10355
(lp10356
V0
p10357
aV0
p10358
ag9
(g13
S'\x01\x00\x00\x00'
p10359
tp10360
Rp10361
tp10362
a(g9246
g10346
VSchalke 04
p10363
(lp10364
V0
p10365
aV1
p10366
ag9
(g13
S'\xff\xff\xff\xff'
p10367
tp10368
Rp10369
tp10370
a(g9246
g10346
VBayer Leverkusen
p10371
(lp10372
V0
p10373
aV0
p10374
ag9
(g13
S'\x01\x00\x00\x00'
p10375
tp10376
Rp10377
tp10378
a(g9246
g10346
VHannover 96
p10379
(lp10380
V1
p10381
aV2
p10382
ag9
(g13
S'\x01\x00\x00\x00'
p10383
tp10384
Rp10385
tp10386
a(g9246
g10346
VBorussia Dortmund
p10387
(lp10388
V3
p10389
aV1
p10390
ag9
(g13
S'\xff\xff\xff\xff'
p10391
tp10392
Rp10393
tp10394
a(g9246
g10346
VMainz 05
p10395
(lp10396
V1
p10397
aV3
p10398
ag9
(g13
S'\x01\x00\x00\x00'
p10399
tp10400
Rp10401
tp10402
a(g9246
g10346
VAugsburg
p10403
(lp10404
V0
p10405
aV1
p10406
ag9
(g13
S'\x01\x00\x00\x00'
p10407
tp10408
Rp10409
tp10410
a(g9246
g10346
VBayern Munich
p10411
(lp10412
V1
p10413
aV2
p10414
ag9
(g13
S'\xff\xff\xff\xff'
p10415
tp10416
Rp10417
tp10418
a(g9246
g10346
VFC Cologne
p10419
(lp10420
V1
p10421
aV1
p10422
ag9
(g13
S'\x01\x00\x00\x00'
p10423
tp10424
Rp10425
tp10426
a(g9246
g10346
VBorussia M.Gladbach
p10427
(lp10428
V3
p10429
aV2
p10430
ag9
(g13
S'\x01\x00\x00\x00'
p10431
tp10432
Rp10433
tp10434
a(g9246
g10346
VIngolstadt
p10435
(lp10436
V1
p10437
aV1
p10438
ag9
(g13
S'\x01\x00\x00\x00'
p10439
tp10440
Rp10441
tp10442
a(g9246
g10346
VHertha Berlin
p10443
(lp10444
V2
p10445
aV0
p10446
ag9
(g13
S'\x01\x00\x00\x00'
p10447
tp10448
Rp10449
tp10450
a(g9246
VDarmstadt
p10451
VHoffenheim
p10452
(lp10453
V0
p10454
aV0
p10455
ag9
(g13
S'\xff\xff\xff\xff'
p10456
tp10457
Rp10458
tp10459
a(g9246
g10451
VBayern Munich
p10460
(lp10461
V0
p10462
aV3
p10463
ag9
(g13
S'\xff\xff\xff\xff'
p10464
tp10465
Rp10466
tp10467
a(g9246
g10451
VWerder Bremen
p10468
(lp10469
V2
p10470
aV1
p10471
ag9
(g13
S'\x01\x00\x00\x00'
p10472
tp10473
Rp10474
tp10475
a(g9246
g10451
VMainz 05
p10476
(lp10477
V2
p10478
aV3
p10479
ag9
(g13
S'\xff\xff\xff\xff'
p10480
tp10481
Rp10482
tp10483
a(g9246
g10451
VWolfsburg
p10484
(lp10485
V0
p10486
aV1
p10487
ag9
(g13
S'\xff\xff\xff\xff'
p10488
tp10489
Rp10490
tp10491
a(g9246
g10451
VHamburger SV
p10492
(lp10493
V1
p10494
aV1
p10495
ag9
(g13
S'\xff\xff\xff\xff'
p10496
tp10497
Rp10498
tp10499
a(g9246
g10451
VFC Cologne
p10500
(lp10501
V0
p10502
aV0
p10503
ag9
(g13
S'\x01\x00\x00\x00'
p10504
tp10505
Rp10506
tp10507
a(g9246
g10451
VHertha Berlin
p10508
(lp10509
V0
p10510
aV4
p10511
ag9
(g13
S'\xff\xff\xff\xff'
p10512
tp10513
Rp10514
tp10515
a(g9246
g10451
VSchalke 04
p10516
(lp10517
V0
p10518
aV2
p10519
ag9
(g13
S'\x01\x00\x00\x00'
p10520
tp10521
Rp10522
tp10523
a(g9246
g10451
VBayer Leverkusen
p10524
(lp10525
V1
p10526
aV2
p10527
ag9
(g13
S'\x01\x00\x00\x00'
p10528
tp10529
Rp10530
tp10531
a(g9246
g10451
VBorussia Dortmund
p10532
(lp10533
V0
p10534
aV2
p10535
ag9
(g13
S'\xff\xff\xff\xff'
p10536
tp10537
Rp10538
tp10539
a(g9246
VFC Cologne
p10540
VWolfsburg
p10541
(lp10542
V1
p10543
aV1
p10544
ag9
(g13
S'\xff\xff\xff\xff'
p10545
tp10546
Rp10547
tp10548
a(g9246
g10540
VHamburger SV
p10549
(lp10550
V2
p10551
aV1
p10552
ag9
(g13
S'\x01\x00\x00\x00'
p10553
tp10554
Rp10555
tp10556
a(g9246
g10540
VBorussia M.Gladbach
p10557
(lp10558
V1
p10559
aV0
p10560
ag9
(g13
S'\xff\xff\xff\xff'
p10561
tp10562
Rp10563
tp10564
a(g9246
g10540
VIngolstadt
p10565
(lp10566
V1
p10567
aV1
p10568
ag9
(g13
S'\x01\x00\x00\x00'
p10569
tp10570
Rp10571
tp10572
a(g9246
g10540
VHannover 96
p10573
(lp10574
V0
p10575
aV1
p10576
ag9
(g13
S'\x01\x00\x00\x00'
p10577
tp10578
Rp10579
tp10580
a(g9246
g10540
VHoffenheim
p10581
(lp10582
V0
p10583
aV0
p10584
ag9
(g13
S'\x01\x00\x00\x00'
p10585
tp10586
Rp10587
tp10588
a(g9246
g10540
VMainz 05
p10589
(lp10590
V0
p10591
aV0
p10592
ag9
(g13
S'\x01\x00\x00\x00'
p10593
tp10594
Rp10595
tp10596
a(g9246
g10540
VAugsburg
p10597
(lp10598
V0
p10599
aV1
p10600
ag9
(g13
S'\x01\x00\x00\x00'
p10601
tp10602
Rp10603
tp10604
a(g9246
g10540
VBorussia Dortmund
p10605
(lp10606
V2
p10607
aV1
p10608
ag9
(g13
S'\xff\xff\xff\xff'
p10609
tp10610
Rp10611
tp10612
a(g9246
g10540
VVfB Stuttgart
p10613
(lp10614
V1
p10615
aV3
p10616
ag9
(g13
S'\x01\x00\x00\x00'
p10617
tp10618
Rp10619
tp10620
a(g9246
g10540
VEintracht Frankfurt
p10621
(lp10622
V3
p10623
aV1
p10624
ag9
(g13
S'\x01\x00\x00\x00'
p10625
tp10626
Rp10627
tp10628
a(g9246
g10540
VHertha Berlin
p10629
(lp10630
V0
p10631
aV1
p10632
ag9
(g13
S'\x01\x00\x00\x00'
p10633
tp10634
Rp10635
tp10636
a(g9246
g10540
VSchalke 04
p10637
(lp10638
V1
p10639
aV3
p10640
ag9
(g13
S'\x01\x00\x00\x00'
p10641
tp10642
Rp10643
tp10644
a(g9246
VSchalke 04
p10645
VDarmstadt
p10646
(lp10647
V1
p10648
aV1
p10649
ag9
(g13
S'\x01\x00\x00\x00'
p10650
tp10651
Rp10652
tp10653
a(g9246
g10645
VMainz 05
p10654
(lp10655
V2
p10656
aV1
p10657
ag9
(g13
S'\x01\x00\x00\x00'
p10658
tp10659
Rp10660
tp10661
a(g9246
g10645
VEintracht Frankfurt
p10662
(lp10663
V2
p10664
aV0
p10665
ag9
(g13
S'\x01\x00\x00\x00'
p10666
tp10667
Rp10668
tp10669
a(g9246
g10645
VFC Cologne
p10670
(lp10671
V0
p10672
aV3
p10673
ag9
(g13
S'\x01\x00\x00\x00'
p10674
tp10675
Rp10676
tp10677
a(g9246
g10645
VHertha Berlin
p10678
(lp10679
V2
p10680
aV1
p10681
ag9
(g13
S'\x01\x00\x00\x00'
p10682
tp10683
Rp10684
tp10685
a(g9246
g10645
VIngolstadt
p10686
(lp10687
V1
p10688
aV1
p10689
ag9
(g13
S'\x01\x00\x00\x00'
p10690
tp10691
Rp10692
tp10693
a(g9246
g10645
VBayern Munich
p10694
(lp10695
V1
p10696
aV3
p10697
ag9
(g13
S'\xff\xff\xff\xff'
p10698
tp10699
Rp10700
tp10701
a(g9246
g10645
VHannover 96
p10702
(lp10703
V3
p10704
aV1
p10705
ag9
(g13
S'\x01\x00\x00\x00'
p10706
tp10707
Rp10708
tp10709
a(g9246
g10645
VHoffenheim
p10710
(lp10711
V1
p10712
aV0
p10713
ag9
(g13
S'\x01\x00\x00\x00'
p10714
tp10715
Rp10716
tp10717
a(g9246
g10645
VWerder Bremen
p10718
(lp10719
V1
p10720
aV3
p10721
ag9
(g13
S'\x01\x00\x00\x00'
p10722
tp10723
Rp10724
tp10725
a(g9246
g10645
VWolfsburg
p10726
(lp10727
V3
p10728
aV0
p10729
ag9
(g13
S'\xff\xff\xff\xff'
p10730
tp10731
Rp10732
tp10733
a(g9246
g10645
VVfB Stuttgart
p10734
(lp10735
V1
p10736
aV1
p10737
ag9
(g13
S'\x01\x00\x00\x00'
p10738
tp10739
Rp10740
tp10741
a(g9246
g10645
VHamburger SV
p10742
(lp10743
V3
p10744
aV2
p10745
ag9
(g13
S'\x01\x00\x00\x00'
p10746
tp10747
Rp10748
tp10749
a(g9246
VAugsburg
p10750
VHertha Berlin
p10751
(lp10752
V0
p10753
aV1
p10754
ag9
(g13
S'\x01\x00\x00\x00'
p10755
tp10756
Rp10757
tp10758
a(g9246
g10750
VIngolstadt
p10759
(lp10760
V0
p10761
aV1
p10762
ag9
(g13
S'\x01\x00\x00\x00'
p10763
tp10764
Rp10765
tp10766
a(g9246
g10750
VHannover 96
p10767
(lp10768
V2
p10769
aV0
p10770
ag9
(g13
S'\x01\x00\x00\x00'
p10771
tp10772
Rp10773
tp10774
a(g9246
g10750
VHoffenheim
p10775
(lp10776
V1
p10777
aV3
p10778
ag9
(g13
S'\x01\x00\x00\x00'
p10779
tp10780
Rp10781
tp10782
a(g9246
g10750
VDarmstadt
p10783
(lp10784
V0
p10785
aV2
p10786
ag9
(g13
S'\x01\x00\x00\x00'
p10787
tp10788
Rp10789
tp10790
a(g9246
g10750
VMainz 05
p10791
(lp10792
V3
p10793
aV3
p10794
ag9
(g13
S'\x01\x00\x00\x00'
p10795
tp10796
Rp10797
tp10798
a(g9246
g10750
VWerder Bremen
p10799
(lp10800
V1
p10801
aV2
p10802
ag9
(g13
S'\x01\x00\x00\x00'
p10803
tp10804
Rp10805
tp10806
a(g9246
g10750
VWolfsburg
p10807
(lp10808
V0
p10809
aV0
p10810
ag9
(g13
S'\xff\xff\xff\xff'
p10811
tp10812
Rp10813
tp10814
a(g9246
g10750
VSchalke 04
p10815
(lp10816
V2
p10817
aV1
p10818
ag9
(g13
S'\x01\x00\x00\x00'
p10819
tp10820
Rp10821
tp10822
a(g9246
g10750
VEintracht Frankfurt
p10823
(lp10824
V0
p10825
aV0
p10826
ag9
(g13
S'\x01\x00\x00\x00'
p10827
tp10828
Rp10829
tp10830
a(g9246
g10750
VBayern Munich
p10831
(lp10832
V1
p10833
aV3
p10834
ag9
(g13
S'\xff\xff\xff\xff'
p10835
tp10836
Rp10837
tp10838
a(g9246
g10750
VBorussia M.Gladbach
p10839
(lp10840
V2
p10841
aV2
p10842
ag9
(g13
S'\xff\xff\xff\xff'
p10843
tp10844
Rp10845
tp10846
a(g9246
g10750
VBayer Leverkusen
p10847
(lp10848
V3
p10849
aV3
p10850
ag9
(g13
S'\x01\x00\x00\x00'
p10851
tp10852
Rp10853
tp10854
a(g9246
VBorussia Dortmund
p10855
VBorussia M.Gladbach
p10856
(lp10857
V4
p10858
aV0
p10859
ag9
(g13
S'\x01\x00\x00\x00'
p10860
tp10861
Rp10862
tp10863
a(g9246
g10855
VHertha Berlin
p10864
(lp10865
V3
p10866
aV1
p10867
ag9
(g13
S'\x01\x00\x00\x00'
p10868
tp10869
Rp10870
tp10871
a(g9246
g10855
VBayer Leverkusen
p10872
(lp10873
V3
p10874
aV0
p10875
ag9
(g13
S'\x01\x00\x00\x00'
p10876
tp10877
Rp10878
tp10879
a(g9246
g10855
VDarmstadt
p10880
(lp10881
V2
p10882
aV2
p10883
ag9
(g13
S'\x01\x00\x00\x00'
p10884
tp10885
Rp10886
tp10887
a(g9246
g10855
VAugsburg
p10888
(lp10889
V5
p10890
aV1
p10891
ag9
(g13
S'\x01\x00\x00\x00'
p10892
tp10893
Rp10894
tp10895
a(g9246
g10855
VSchalke 04
p10896
(lp10897
V3
p10898
aV2
p10899
ag9
(g13
S'\x01\x00\x00\x00'
p10900
tp10901
Rp10902
tp10903
a(g9246
g10855
VVfB Stuttgart
p10904
(lp10905
V4
p10906
aV1
p10907
ag9
(g13
S'\x01\x00\x00\x00'
p10908
tp10909
Rp10910
tp10911
a(g9246
g10855
VEintracht Frankfurt
p10912
(lp10913
V4
p10914
aV1
p10915
ag9
(g13
S'\x01\x00\x00\x00'
p10916
tp10917
Rp10918
tp10919
a(g9246
g10855
VIngolstadt
p10920
(lp10921
V2
p10922
aV0
p10923
ag9
(g13
S'\x01\x00\x00\x00'
p10924
tp10925
Rp10926
tp10927
a(g9246
g10855
VHannover 96
p10928
(lp10929
V1
p10930
aV0
p10931
ag9
(g13
S'\x01\x00\x00\x00'
p10932
tp10933
Rp10934
tp10935
a(g9246
g10855
VHoffenheim
p10936
(lp10937
V3
p10938
aV1
p10939
ag9
(g13
S'\x01\x00\x00\x00'
p10940
tp10941
Rp10942
tp10943
a(g9246
g10855
VBayern Munich
p10944
(lp10945
V0
p10946
aV0
p10947
ag9
(g13
S'\x01\x00\x00\x00'
p10948
tp10949
Rp10950
tp10951
a(g9246
VBayern Munich
p10952
VHamburger SV
p10953
(lp10954
V5
p10955
aV0
p10956
ag9
(g13
S'\x01\x00\x00\x00'
p10957
tp10958
Rp10959
tp10960
a(g9246
g10952
VBayer Leverkusen
p10961
(lp10962
V3
p10963
aV0
p10964
ag9
(g13
S'\x01\x00\x00\x00'
p10965
tp10966
Rp10967
tp10968
a(g9246
g10952
VAugsburg
p10969
(lp10970
V2
p10971
aV1
p10972
ag9
(g13
S'\x01\x00\x00\x00'
p10973
tp10974
Rp10975
tp10976
a(g9246
g10952
VWolfsburg
p10977
(lp10978
V5
p10979
aV1
p10980
ag9
(g13
S'\x01\x00\x00\x00'
p10981
tp10982
Rp10983
tp10984
a(g9246
g10952
VBorussia Dortmund
p10985
(lp10986
V5
p10987
aV1
p10988
ag9
(g13
S'\x01\x00\x00\x00'
p10989
tp10990
Rp10991
tp10992
a(g9246
g10952
VFC Cologne
p10993
(lp10994
V4
p10995
aV0
p10996
ag9
(g13
S'\x01\x00\x00\x00'
p10997
tp10998
Rp10999
tp11000
a(g9246
g10952
VVfB Stuttgart
p11001
(lp11002
V4
p11003
aV0
p11004
ag9
(g13
S'\x01\x00\x00\x00'
p11005
tp11006
Rp11007
tp11008
a(g9246
g10952
VHertha Berlin
p11009
(lp11010
V2
p11011
aV0
p11012
ag9
(g13
S'\x01\x00\x00\x00'
p11013
tp11014
Rp11015
tp11016
a(g9246
g10952
VIngolstadt
p11017
(lp11018
V2
p11019
aV0
p11020
ag9
(g13
S'\x01\x00\x00\x00'
p11021
tp11022
Rp11023
tp11024
a(g9246
g10952
VHoffenheim
p11025
(lp11026
V2
p11027
aV0
p11028
ag9
(g13
S'\x01\x00\x00\x00'
p11029
tp11030
Rp11031
tp11032
a(g9246
g10952
VDarmstadt
p11033
(lp11034
V3
p11035
aV1
p11036
ag9
(g13
S'\x01\x00\x00\x00'
p11037
tp11038
Rp11039
tp11040
a(g9246
g10952
VMainz 05
p11041
(lp11042
V1
p11043
aV2
p11044
ag9
(g13
S'\x01\x00\x00\x00'
p11045
tp11046
Rp11047
tp11048
asS'score'
p11049
g9
(g10
(S'f8'
p11050
I0
I1
tp11051
Rp11052
(I3
S'<'
p11053
NNNI-1
I-1
I0
tp11054
bS'\xa0f\x84\x8bA.\xdf?'
p11055
tp11056
Rp11057
sS'dict'
p11058
(dp11059
I0
F0.0
sI1
F0.5
sI2
F0.4897959183673469
sI3
F0.40816326530612246
sI4
F0.5714285714285714
sI5
F0.5306122448979592
sI6
F0.46
sI7
F0.425531914893617
sI8
F0.5098039215686274
sI9
F0.6041666666666666
sI10
F0.5208333333333334
sI11
F0.5098039215686274
sI12
F0.5208333333333334
sI13
F0.5510204081632653
sI14
F0.4489795918367347
sI15
F0.2653061224489796
sI16
F0.5102040816326531
sI17
F0.3958333333333333
sI18
F0.4807692307692308
sI19
F0.5
sI20
F0.391304347826087
sI21
F0.5384615384615384
sI22
F0.46808510638297873
sI23
F0.5
sI24
F0.5869565217391305
sI25
F0.4
sI26
F0.5
sI27
F0.5897435897435898
sI28
F0.475
sI29
F0.5172413793103449
sI30
F0.42857142857142855
sI31
F0.0
sI32
F0.0
sI33
F0.0
sI34
F0.0
sI35
F0.0
sI36
F0.0
sI37
F0.0
sI38
F0.0
sI39
F0.0
sI40
F0.0
sI41
F0.0
sI42
F0.0
sI43
F0.0
sI44
F0.0
sI45
F0.0
sI46
F0.0
sI47
F0.0
sI48
F0.0
sI49
F0.0
sI50
F0.0
sI51
F0.0
sI52
F0.0
sI53
F0.0
sI54
F0.0
sI55
F0.0
sI56
F0.0
sI57
F0.0
sI58
F0.0
sI59
F0.0
sI60
F0.0
ss.