(dp0
S'array'
p1
(lp2
((lp3
V1
p4
aV2
p5
acnumpy.core.multiarray
scalar
p6
(cnumpy
dtype
p7
(S'i4'
p8
I0
I1
tp9
Rp10
(I3
S'<'
p11
NNNI-1
I-1
I0
tp12
bS'\x01\x00\x00\x00'
p13
tp14
Rp15
tp16
a((lp17
V3
p18
aV4
p19
ag6
(g10
S'\xff\xff\xff\xff'
p20
tp21
Rp22
tp23
a((lp24
V2
p25
aV0
p26
ag6
(g10
S'\x01\x00\x00\x00'
p27
tp28
Rp29
tp30
a((lp31
V2
p32
aV2
p33
ag6
(g10
S'\x01\x00\x00\x00'
p34
tp35
Rp36
tp37
a((lp38
V2
p39
aV1
p40
ag6
(g10
S'\x01\x00\x00\x00'
p41
tp42
Rp43
tp44
a((lp45
V1
p46
aV1
p47
ag6
(g10
S'\x01\x00\x00\x00'
p48
tp49
Rp50
tp51
a((lp52
V1
p53
aV1
p54
ag6
(g10
S'\x01\x00\x00\x00'
p55
tp56
Rp57
tp58
a((lp59
V0
p60
aV0
p61
ag6
(g10
S'\x01\x00\x00\x00'
p62
tp63
Rp64
tp65
a((lp66
V2
p67
aV2
p68
ag6
(g10
S'\xff\xff\xff\xff'
p69
tp70
Rp71
tp72
a((lp73
V2
p74
aV2
p75
ag6
(g10
S'\x01\x00\x00\x00'
p76
tp77
Rp78
tp79
a((lp80
V0
p81
aV0
p82
ag6
(g10
S'\x01\x00\x00\x00'
p83
tp84
Rp85
tp86
a((lp87
V1
p88
aV0
p89
ag6
(g10
S'\x01\x00\x00\x00'
p90
tp91
Rp92
tp93
a((lp94
V4
p95
aV1
p96
ag6
(g10
S'\x01\x00\x00\x00'
p97
tp98
Rp99
tp100
a((lp101
V0
p102
aV0
p103
ag6
(g10
S'\x01\x00\x00\x00'
p104
tp105
Rp106
tp107
a((lp108
V3
p109
aV1
p110
ag6
(g10
S'\x01\x00\x00\x00'
p111
tp112
Rp113
tp114
a((lp115
V4
p116
aV1
p117
ag6
(g10
S'\x01\x00\x00\x00'
p118
tp119
Rp120
tp121
a((lp122
V0
p123
aV0
p124
ag6
(g10
S'\x01\x00\x00\x00'
p125
tp126
Rp127
tp128
a((lp129
V1
p130
aV2
p131
ag6
(g10
S'\x01\x00\x00\x00'
p132
tp133
Rp134
tp135
a((lp136
V0
p137
aV1
p138
ag6
(g10
S'\x01\x00\x00\x00'
p139
tp140
Rp141
tp142
a((lp143
V4
p144
aV1
p145
ag6
(g10
S'\x01\x00\x00\x00'
p146
tp147
Rp148
tp149
a((lp150
V2
p151
aV0
p152
ag6
(g10
S'\x01\x00\x00\x00'
p153
tp154
Rp155
tp156
a((lp157
V2
p158
aV1
p159
ag6
(g10
S'\x01\x00\x00\x00'
p160
tp161
Rp162
tp163
a((lp164
V0
p165
aV0
p166
ag6
(g10
S'\x01\x00\x00\x00'
p167
tp168
Rp169
tp170
a((lp171
V2
p172
aV2
p173
ag6
(g10
S'\x01\x00\x00\x00'
p174
tp175
Rp176
tp177
a((lp178
V0
p179
aV1
p180
ag6
(g10
S'\x01\x00\x00\x00'
p181
tp182
Rp183
tp184
a((lp185
V0
p186
aV3
p187
ag6
(g10
S'\xff\xff\xff\xff'
p188
tp189
Rp190
tp191
a((lp192
V2
p193
aV2
p194
ag6
(g10
S'\x01\x00\x00\x00'
p195
tp196
Rp197
tp198
a((lp199
V0
p200
aV3
p201
ag6
(g10
S'\x01\x00\x00\x00'
p202
tp203
Rp204
tp205
a((lp206
V2
p207
aV4
p208
ag6
(g10
S'\x01\x00\x00\x00'
p209
tp210
Rp211
tp212
a((lp213
V1
p214
aV0
p215
ag6
(g10
S'\x01\x00\x00\x00'
p216
tp217
Rp218
tp219
a((lp220
V0
p221
aV1
p222
ag6
(g10
S'\x01\x00\x00\x00'
p223
tp224
Rp225
tp226
a((lp227
V0
p228
aV1
p229
ag6
(g10
S'\x01\x00\x00\x00'
p230
tp231
Rp232
tp233
a((lp234
V2
p235
aV2
p236
ag6
(g10
S'\x01\x00\x00\x00'
p237
tp238
Rp239
tp240
a((lp241
V2
p242
aV1
p243
ag6
(g10
S'\x01\x00\x00\x00'
p244
tp245
Rp246
tp247
a((lp248
V0
p249
aV2
p250
ag6
(g10
S'\x01\x00\x00\x00'
p251
tp252
Rp253
tp254
a((lp255
V1
p256
aV0
p257
ag6
(g10
S'\x01\x00\x00\x00'
p258
tp259
Rp260
tp261
a((lp262
V2
p263
aV0
p264
ag6
(g10
S'\xff\xff\xff\xff'
p265
tp266
Rp267
tp268
a((lp269
V1
p270
aV2
p271
ag6
(g10
S'\x01\x00\x00\x00'
p272
tp273
Rp274
tp275
a((lp276
V3
p277
aV1
p278
ag6
(g10
S'\x01\x00\x00\x00'
p279
tp280
Rp281
tp282
a((lp283
V0
p284
aV0
p285
ag6
(g10
S'\xff\xff\xff\xff'
p286
tp287
Rp288
tp289
a((lp290
V1
p291
aV1
p292
ag6
(g10
S'\x01\x00\x00\x00'
p293
tp294
Rp295
tp296
a((lp297
V2
p298
aV0
p299
ag6
(g10
S'\x01\x00\x00\x00'
p300
tp301
Rp302
tp303
a((lp304
V1
p305
aV1
p306
ag6
(g10
S'\x01\x00\x00\x00'
p307
tp308
Rp309
tp310
a((lp311
V1
p312
aV5
p313
ag6
(g10
S'\x01\x00\x00\x00'
p314
tp315
Rp316
tp317
a((lp318
V0
p319
aV1
p320
ag6
(g10
S'\x01\x00\x00\x00'
p321
tp322
Rp323
tp324
a((lp325
V3
p326
aV3
p327
ag6
(g10
S'\x01\x00\x00\x00'
p328
tp329
Rp330
tp331
a((lp332
V2
p333
aV1
p334
ag6
(g10
S'\x01\x00\x00\x00'
p335
tp336
Rp337
tp338
a((lp339
V3
p340
aV0
p341
ag6
(g10
S'\x01\x00\x00\x00'
p342
tp343
Rp344
tp345
a((lp346
V3
p347
aV0
p348
ag6
(g10
S'\x01\x00\x00\x00'
p349
tp350
Rp351
tp352
a((lp353
V2
p354
aV0
p355
ag6
(g10
S'\x01\x00\x00\x00'
p356
tp357
Rp358
tp359
a((lp360
V1
p361
aV2
p362
ag6
(g10
S'\x01\x00\x00\x00'
p363
tp364
Rp365
tp366
a((lp367
V6
p368
aV1
p369
ag6
(g10
S'\x01\x00\x00\x00'
p370
tp371
Rp372
tp373
a((lp374
V5
p375
aV1
p376
ag6
(g10
S'\x01\x00\x00\x00'
p377
tp378
Rp379
tp380
a((lp381
V2
p382
aV1
p383
ag6
(g10
S'\x01\x00\x00\x00'
p384
tp385
Rp386
tp387
a((lp388
V1
p389
aV4
p390
ag6
(g10
S'\x01\x00\x00\x00'
p391
tp392
Rp393
tp394
a((lp395
V3
p396
aV1
p397
ag6
(g10
S'\x01\x00\x00\x00'
p398
tp399
Rp400
tp401
a((lp402
V2
p403
aV1
p404
ag6
(g10
S'\x01\x00\x00\x00'
p405
tp406
Rp407
tp408
a((lp409
V0
p410
aV0
p411
ag6
(g10
S'\x01\x00\x00\x00'
p412
tp413
Rp414
tp415
a((lp416
V4
p417
aV0
p418
ag6
(g10
S'\x01\x00\x00\x00'
p419
tp420
Rp421
tp422
a((lp423
V1
p424
aV3
p425
ag6
(g10
S'\xff\xff\xff\xff'
p426
tp427
Rp428
tp429
a((lp430
V1
p431
aV1
p432
ag6
(g10
S'\x01\x00\x00\x00'
p433
tp434
Rp435
tp436
a((lp437
V0
p438
aV1
p439
ag6
(g10
S'\xff\xff\xff\xff'
p440
tp441
Rp442
tp443
a((lp444
V2
p445
aV2
p446
ag6
(g10
S'\x01\x00\x00\x00'
p447
tp448
Rp449
tp450
a((lp451
V3
p452
aV0
p453
ag6
(g10
S'\x01\x00\x00\x00'
p454
tp455
Rp456
tp457
a((lp458
V0
p459
aV1
p460
ag6
(g10
S'\xff\xff\xff\xff'
p461
tp462
Rp463
tp464
a((lp465
V2
p466
aV0
p467
ag6
(g10
S'\x01\x00\x00\x00'
p468
tp469
Rp470
tp471
a((lp472
V0
p473
aV1
p474
ag6
(g10
S'\x01\x00\x00\x00'
p475
tp476
Rp477
tp478
a((lp479
V1
p480
aV1
p481
ag6
(g10
S'\xff\xff\xff\xff'
p482
tp483
Rp484
tp485
a((lp486
V0
p487
aV1
p488
ag6
(g10
S'\xff\xff\xff\xff'
p489
tp490
Rp491
tp492
a((lp493
V2
p494
aV2
p495
ag6
(g10
S'\x01\x00\x00\x00'
p496
tp497
Rp498
tp499
a((lp500
V0
p501
aV1
p502
ag6
(g10
S'\x01\x00\x00\x00'
p503
tp504
Rp505
tp506
a((lp507
V0
p508
aV1
p509
ag6
(g10
S'\x01\x00\x00\x00'
p510
tp511
Rp512
tp513
a((lp514
V1
p515
aV2
p516
ag6
(g10
S'\x01\x00\x00\x00'
p517
tp518
Rp519
tp520
a((lp521
V0
p522
aV0
p523
ag6
(g10
S'\xff\xff\xff\xff'
p524
tp525
Rp526
tp527
a((lp528
V2
p529
aV3
p530
ag6
(g10
S'\x01\x00\x00\x00'
p531
tp532
Rp533
tp534
a((lp535
V0
p536
aV2
p537
ag6
(g10
S'\xff\xff\xff\xff'
p538
tp539
Rp540
tp541
a((lp542
V1
p543
aV1
p544
ag6
(g10
S'\x01\x00\x00\x00'
p545
tp546
Rp547
tp548
a((lp549
V1
p550
aV0
p551
ag6
(g10
S'\x01\x00\x00\x00'
p552
tp553
Rp554
tp555
a((lp556
V0
p557
aV0
p558
ag6
(g10
S'\x01\x00\x00\x00'
p559
tp560
Rp561
tp562
a((lp563
V3
p564
aV1
p565
ag6
(g10
S'\x01\x00\x00\x00'
p566
tp567
Rp568
tp569
a((lp570
V3
p571
aV0
p572
ag6
(g10
S'\x01\x00\x00\x00'
p573
tp574
Rp575
tp576
a((lp577
V0
p578
aV0
p579
ag6
(g10
S'\x01\x00\x00\x00'
p580
tp581
Rp582
tp583
a((lp584
V2
p585
aV0
p586
ag6
(g10
S'\x01\x00\x00\x00'
p587
tp588
Rp589
tp590
a((lp591
V0
p592
aV0
p593
ag6
(g10
S'\x01\x00\x00\x00'
p594
tp595
Rp596
tp597
a((lp598
V0
p599
aV1
p600
ag6
(g10
S'\x01\x00\x00\x00'
p601
tp602
Rp603
tp604
a((lp605
V1
p606
aV0
p607
ag6
(g10
S'\x01\x00\x00\x00'
p608
tp609
Rp610
tp611
a((lp612
V0
p613
aV3
p614
ag6
(g10
S'\x01\x00\x00\x00'
p615
tp616
Rp617
tp618
a((lp619
V1
p620
aV1
p621
ag6
(g10
S'\x01\x00\x00\x00'
p622
tp623
Rp624
tp625
a((lp626
V3
p627
aV2
p628
ag6
(g10
S'\x01\x00\x00\x00'
p629
tp630
Rp631
tp632
a((lp633
V1
p634
aV1
p635
ag6
(g10
S'\x01\x00\x00\x00'
p636
tp637
Rp638
tp639
a((lp640
V1
p641
aV2
p642
ag6
(g10
S'\x01\x00\x00\x00'
p643
tp644
Rp645
tp646
a((lp647
V1
p648
aV0
p649
ag6
(g10
S'\x01\x00\x00\x00'
p650
tp651
Rp652
tp653
a((lp654
V2
p655
aV2
p656
ag6
(g10
S'\x01\x00\x00\x00'
p657
tp658
Rp659
tp660
a((lp661
V3
p662
aV3
p663
ag6
(g10
S'\xff\xff\xff\xff'
p664
tp665
Rp666
tp667
a((lp668
V0
p669
aV1
p670
ag6
(g10
S'\x01\x00\x00\x00'
p671
tp672
Rp673
tp674
a((lp675
V0
p676
aV0
p677
ag6
(g10
S'\x01\x00\x00\x00'
p678
tp679
Rp680
tp681
a((lp682
V0
p683
aV0
p684
ag6
(g10
S'\x01\x00\x00\x00'
p685
tp686
Rp687
tp688
a((lp689
V1
p690
aV0
p691
ag6
(g10
S'\x01\x00\x00\x00'
p692
tp693
Rp694
tp695
a((lp696
V0
p697
aV1
p698
ag6
(g10
S'\x01\x00\x00\x00'
p699
tp700
Rp701
tp702
a((lp703
V0
p704
aV3
p705
ag6
(g10
S'\xff\xff\xff\xff'
p706
tp707
Rp708
tp709
a((lp710
V2
p711
aV0
p712
ag6
(g10
S'\x01\x00\x00\x00'
p713
tp714
Rp715
tp716
a((lp717
V1
p718
aV2
p719
ag6
(g10
S'\xff\xff\xff\xff'
p720
tp721
Rp722
tp723
a((lp724
V2
p725
aV0
p726
ag6
(g10
S'\x01\x00\x00\x00'
p727
tp728
Rp729
tp730
a((lp731
V2
p732
aV1
p733
ag6
(g10
S'\x01\x00\x00\x00'
p734
tp735
Rp736
tp737
a((lp738
V4
p739
aV2
p740
ag6
(g10
S'\x01\x00\x00\x00'
p741
tp742
Rp743
tp744
a((lp745
V1
p746
aV1
p747
ag6
(g10
S'\x01\x00\x00\x00'
p748
tp749
Rp750
tp751
a((lp752
V3
p753
aV2
p754
ag6
(g10
S'\x01\x00\x00\x00'
p755
tp756
Rp757
tp758
a((lp759
V2
p760
aV5
p761
ag6
(g10
S'\x01\x00\x00\x00'
p762
tp763
Rp764
tp765
a((lp766
V1
p767
aV0
p768
ag6
(g10
S'\x01\x00\x00\x00'
p769
tp770
Rp771
tp772
a((lp773
V2
p774
aV1
p775
ag6
(g10
S'\x01\x00\x00\x00'
p776
tp777
Rp778
tp779
a((lp780
V1
p781
aV1
p782
ag6
(g10
S'\x01\x00\x00\x00'
p783
tp784
Rp785
tp786
a((lp787
V2
p788
aV1
p789
ag6
(g10
S'\x01\x00\x00\x00'
p790
tp791
Rp792
tp793
a((lp794
V3
p795
aV0
p796
ag6
(g10
S'\x01\x00\x00\x00'
p797
tp798
Rp799
tp800
a((lp801
V1
p802
aV2
p803
ag6
(g10
S'\xff\xff\xff\xff'
p804
tp805
Rp806
tp807
a((lp808
V2
p809
aV1
p810
ag6
(g10
S'\x01\x00\x00\x00'
p811
tp812
Rp813
tp814
a((lp815
V0
p816
aV1
p817
ag6
(g10
S'\xff\xff\xff\xff'
p818
tp819
Rp820
tp821
a((lp822
V2
p823
aV0
p824
ag6
(g10
S'\x01\x00\x00\x00'
p825
tp826
Rp827
tp828
a((lp829
V1
p830
aV3
p831
ag6
(g10
S'\x01\x00\x00\x00'
p832
tp833
Rp834
tp835
a((lp836
V0
p837
aV0
p838
ag6
(g10
S'\x01\x00\x00\x00'
p839
tp840
Rp841
tp842
a((lp843
V0
p844
aV1
p845
ag6
(g10
S'\x01\x00\x00\x00'
p846
tp847
Rp848
tp849
a((lp850
V5
p851
aV1
p852
ag6
(g10
S'\x01\x00\x00\x00'
p853
tp854
Rp855
tp856
a((lp857
V1
p858
aV0
p859
ag6
(g10
S'\x01\x00\x00\x00'
p860
tp861
Rp862
tp863
a((lp864
V1
p865
aV3
p866
ag6
(g10
S'\xff\xff\xff\xff'
p867
tp868
Rp869
tp870
a((lp871
V0
p872
aV3
p873
ag6
(g10
S'\xff\xff\xff\xff'
p874
tp875
Rp876
tp877
a((lp878
V2
p879
aV3
p880
ag6
(g10
S'\x01\x00\x00\x00'
p881
tp882
Rp883
tp884
a((lp885
V0
p886
aV0
p887
ag6
(g10
S'\xff\xff\xff\xff'
p888
tp889
Rp890
tp891
a((lp892
V2
p893
aV3
p894
ag6
(g10
S'\xff\xff\xff\xff'
p895
tp896
Rp897
tp898
a((lp899
V1
p900
aV0
p901
ag6
(g10
S'\x01\x00\x00\x00'
p902
tp903
Rp904
tp905
a((lp906
V2
p907
aV3
p908
ag6
(g10
S'\x01\x00\x00\x00'
p909
tp910
Rp911
tp912
a((lp913
V2
p914
aV1
p915
ag6
(g10
S'\xff\xff\xff\xff'
p916
tp917
Rp918
tp919
a((lp920
V1
p921
aV1
p922
ag6
(g10
S'\xff\xff\xff\xff'
p923
tp924
Rp925
tp926
a((lp927
V1
p928
aV2
p929
ag6
(g10
S'\x01\x00\x00\x00'
p930
tp931
Rp932
tp933
a((lp934
V0
p935
aV0
p936
ag6
(g10
S'\x01\x00\x00\x00'
p937
tp938
Rp939
tp940
a((lp941
V0
p942
aV3
p943
ag6
(g10
S'\x01\x00\x00\x00'
p944
tp945
Rp946
tp947
a((lp948
V3
p949
aV0
p950
ag6
(g10
S'\x01\x00\x00\x00'
p951
tp952
Rp953
tp954
a((lp955
V2
p956
aV3
p957
ag6
(g10
S'\x01\x00\x00\x00'
p958
tp959
Rp960
tp961
a((lp962
V3
p963
aV1
p964
ag6
(g10
S'\x01\x00\x00\x00'
p965
tp966
Rp967
tp968
a((lp969
V2
p970
aV2
p971
ag6
(g10
S'\x01\x00\x00\x00'
p972
tp973
Rp974
tp975
a((lp976
V2
p977
aV0
p978
ag6
(g10
S'\x01\x00\x00\x00'
p979
tp980
Rp981
tp982
a((lp983
V0
p984
aV1
p985
ag6
(g10
S'\x01\x00\x00\x00'
p986
tp987
Rp988
tp989
a((lp990
V1
p991
aV1
p992
ag6
(g10
S'\x01\x00\x00\x00'
p993
tp994
Rp995
tp996
a((lp997
V0
p998
aV2
p999
ag6
(g10
S'\x01\x00\x00\x00'
p1000
tp1001
Rp1002
tp1003
a((lp1004
V2
p1005
aV0
p1006
ag6
(g10
S'\x01\x00\x00\x00'
p1007
tp1008
Rp1009
tp1010
a((lp1011
V3
p1012
aV0
p1013
ag6
(g10
S'\x01\x00\x00\x00'
p1014
tp1015
Rp1016
tp1017
a((lp1018
V2
p1019
aV2
p1020
ag6
(g10
S'\x01\x00\x00\x00'
p1021
tp1022
Rp1023
tp1024
a((lp1025
V0
p1026
aV1
p1027
ag6
(g10
S'\xff\xff\xff\xff'
p1028
tp1029
Rp1030
tp1031
a((lp1032
V1
p1033
aV2
p1034
ag6
(g10
S'\x01\x00\x00\x00'
p1035
tp1036
Rp1037
tp1038
a((lp1039
V2
p1040
aV2
p1041
ag6
(g10
S'\xff\xff\xff\xff'
p1042
tp1043
Rp1044
tp1045
a((lp1046
V6
p1047
aV2
p1048
ag6
(g10
S'\x01\x00\x00\x00'
p1049
tp1050
Rp1051
tp1052
a((lp1053
V0
p1054
aV0
p1055
ag6
(g10
S'\x01\x00\x00\x00'
p1056
tp1057
Rp1058
tp1059
a((lp1060
V0
p1061
aV3
p1062
ag6
(g10
S'\x01\x00\x00\x00'
p1063
tp1064
Rp1065
tp1066
a((lp1067
V2
p1068
aV0
p1069
ag6
(g10
S'\xff\xff\xff\xff'
p1070
tp1071
Rp1072
tp1073
a((lp1074
V3
p1075
aV3
p1076
ag6
(g10
S'\xff\xff\xff\xff'
p1077
tp1078
Rp1079
tp1080
a((lp1081
V2
p1082
aV1
p1083
ag6
(g10
S'\x01\x00\x00\x00'
p1084
tp1085
Rp1086
tp1087
a((lp1088
V0
p1089
aV2
p1090
ag6
(g10
S'\x01\x00\x00\x00'
p1091
tp1092
Rp1093
tp1094
a((lp1095
V3
p1096
aV1
p1097
ag6
(g10
S'\x01\x00\x00\x00'
p1098
tp1099
Rp1100
tp1101
a((lp1102
V1
p1103
aV1
p1104
ag6
(g10
S'\x01\x00\x00\x00'
p1105
tp1106
Rp1107
tp1108
a((lp1109
V0
p1110
aV3
p1111
ag6
(g10
S'\x01\x00\x00\x00'
p1112
tp1113
Rp1114
tp1115
a((lp1116
V6
p1117
aV2
p1118
ag6
(g10
S'\x01\x00\x00\x00'
p1119
tp1120
Rp1121
tp1122
a((lp1123
V4
p1124
aV0
p1125
ag6
(g10
S'\x01\x00\x00\x00'
p1126
tp1127
Rp1128
tp1129
a((lp1130
V1
p1131
aV1
p1132
ag6
(g10
S'\x01\x00\x00\x00'
p1133
tp1134
Rp1135
tp1136
a((lp1137
V1
p1138
aV2
p1139
ag6
(g10
S'\x01\x00\x00\x00'
p1140
tp1141
Rp1142
tp1143
a((lp1144
V1
p1145
aV1
p1146
ag6
(g10
S'\x01\x00\x00\x00'
p1147
tp1148
Rp1149
tp1150
a((lp1151
V3
p1152
aV1
p1153
ag6
(g10
S'\x01\x00\x00\x00'
p1154
tp1155
Rp1156
tp1157
a((lp1158
V1
p1159
aV2
p1160
ag6
(g10
S'\x01\x00\x00\x00'
p1161
tp1162
Rp1163
tp1164
a((lp1165
V0
p1166
aV1
p1167
ag6
(g10
S'\x01\x00\x00\x00'
p1168
tp1169
Rp1170
tp1171
a((lp1172
V1
p1173
aV0
p1174
ag6
(g10
S'\x01\x00\x00\x00'
p1175
tp1176
Rp1177
tp1178
a((lp1179
V1
p1180
aV1
p1181
ag6
(g10
S'\xff\xff\xff\xff'
p1182
tp1183
Rp1184
tp1185
a((lp1186
V1
p1187
aV1
p1188
ag6
(g10
S'\xff\xff\xff\xff'
p1189
tp1190
Rp1191
tp1192
a((lp1193
V4
p1194
aV5
p1195
ag6
(g10
S'\xff\xff\xff\xff'
p1196
tp1197
Rp1198
tp1199
a((lp1200
V2
p1201
aV2
p1202
ag6
(g10
S'\x01\x00\x00\x00'
p1203
tp1204
Rp1205
tp1206
a((lp1207
V1
p1208
aV2
p1209
ag6
(g10
S'\x01\x00\x00\x00'
p1210
tp1211
Rp1212
tp1213
a((lp1214
V2
p1215
aV0
p1216
ag6
(g10
S'\xff\xff\xff\xff'
p1217
tp1218
Rp1219
tp1220
a((lp1221
V1
p1222
aV3
p1223
ag6
(g10
S'\x01\x00\x00\x00'
p1224
tp1225
Rp1226
tp1227
a((lp1228
V2
p1229
aV0
p1230
ag6
(g10
S'\x01\x00\x00\x00'
p1231
tp1232
Rp1233
tp1234
a((lp1235
V1
p1236
aV3
p1237
ag6
(g10
S'\x01\x00\x00\x00'
p1238
tp1239
Rp1240
tp1241
a((lp1242
V1
p1243
aV0
p1244
ag6
(g10
S'\x01\x00\x00\x00'
p1245
tp1246
Rp1247
tp1248
a((lp1249
V0
p1250
aV1
p1251
ag6
(g10
S'\x01\x00\x00\x00'
p1252
tp1253
Rp1254
tp1255
a((lp1256
V2
p1257
aV2
p1258
ag6
(g10
S'\x01\x00\x00\x00'
p1259
tp1260
Rp1261
tp1262
a((lp1263
V3
p1264
aV3
p1265
ag6
(g10
S'\x01\x00\x00\x00'
p1266
tp1267
Rp1268
tp1269
a((lp1270
V0
p1271
aV2
p1272
ag6
(g10
S'\x01\x00\x00\x00'
p1273
tp1274
Rp1275
tp1276
a((lp1277
V0
p1278
aV0
p1279
ag6
(g10
S'\x01\x00\x00\x00'
p1280
tp1281
Rp1282
tp1283
a((lp1284
V2
p1285
aV0
p1286
ag6
(g10
S'\x01\x00\x00\x00'
p1287
tp1288
Rp1289
tp1290
a((lp1291
V3
p1292
aV0
p1293
ag6
(g10
S'\x01\x00\x00\x00'
p1294
tp1295
Rp1296
tp1297
a((lp1298
V2
p1299
aV1
p1300
ag6
(g10
S'\x01\x00\x00\x00'
p1301
tp1302
Rp1303
tp1304
a((lp1305
V1
p1306
aV1
p1307
ag6
(g10
S'\x01\x00\x00\x00'
p1308
tp1309
Rp1310
tp1311
a((lp1312
V3
p1313
aV1
p1314
ag6
(g10
S'\x01\x00\x00\x00'
p1315
tp1316
Rp1317
tp1318
a((lp1319
V1
p1320
aV1
p1321
ag6
(g10
S'\xff\xff\xff\xff'
p1322
tp1323
Rp1324
tp1325
a((lp1326
V2
p1327
aV2
p1328
ag6
(g10
S'\x01\x00\x00\x00'
p1329
tp1330
Rp1331
tp1332
a((lp1333
V0
p1334
aV2
p1335
ag6
(g10
S'\xff\xff\xff\xff'
p1336
tp1337
Rp1338
tp1339
a((lp1340
V0
p1341
aV2
p1342
ag6
(g10
S'\x01\x00\x00\x00'
p1343
tp1344
Rp1345
tp1346
a((lp1347
V0
p1348
aV2
p1349
ag6
(g10
S'\xff\xff\xff\xff'
p1350
tp1351
Rp1352
tp1353
a((lp1354
V0
p1355
aV1
p1356
ag6
(g10
S'\x01\x00\x00\x00'
p1357
tp1358
Rp1359
tp1360
a((lp1361
V1
p1362
aV1
p1363
ag6
(g10
S'\x01\x00\x00\x00'
p1364
tp1365
Rp1366
tp1367
a((lp1368
V0
p1369
aV1
p1370
ag6
(g10
S'\x01\x00\x00\x00'
p1371
tp1372
Rp1373
tp1374
a((lp1375
V0
p1376
aV1
p1377
ag6
(g10
S'\x01\x00\x00\x00'
p1378
tp1379
Rp1380
tp1381
a((lp1382
V1
p1383
aV2
p1384
ag6
(g10
S'\xff\xff\xff\xff'
p1385
tp1386
Rp1387
tp1388
a((lp1389
V2
p1390
aV3
p1391
ag6
(g10
S'\x01\x00\x00\x00'
p1392
tp1393
Rp1394
tp1395
a((lp1396
V0
p1397
aV0
p1398
ag6
(g10
S'\x01\x00\x00\x00'
p1399
tp1400
Rp1401
tp1402
a((lp1403
V1
p1404
aV0
p1405
ag6
(g10
S'\x01\x00\x00\x00'
p1406
tp1407
Rp1408
tp1409
a((lp1410
V0
p1411
aV4
p1412
ag6
(g10
S'\xff\xff\xff\xff'
p1413
tp1414
Rp1415
tp1416
a((lp1417
V2
p1418
aV1
p1419
ag6
(g10
S'\x01\x00\x00\x00'
p1420
tp1421
Rp1422
tp1423
a((lp1424
V0
p1425
aV4
p1426
ag6
(g10
S'\xff\xff\xff\xff'
p1427
tp1428
Rp1429
tp1430
a((lp1431
V3
p1432
aV1
p1433
ag6
(g10
S'\xff\xff\xff\xff'
p1434
tp1435
Rp1436
tp1437
a((lp1438
V2
p1439
aV0
p1440
ag6
(g10
S'\x01\x00\x00\x00'
p1441
tp1442
Rp1443
tp1444
a((lp1445
V3
p1446
aV3
p1447
ag6
(g10
S'\x01\x00\x00\x00'
p1448
tp1449
Rp1450
tp1451
a((lp1452
V0
p1453
aV1
p1454
ag6
(g10
S'\xff\xff\xff\xff'
p1455
tp1456
Rp1457
tp1458
a((lp1459
V2
p1460
aV0
p1461
ag6
(g10
S'\x01\x00\x00\x00'
p1462
tp1463
Rp1464
tp1465
a((lp1466
V1
p1467
aV1
p1468
ag6
(g10
S'\x01\x00\x00\x00'
p1469
tp1470
Rp1471
tp1472
a((lp1473
V0
p1474
aV1
p1475
ag6
(g10
S'\x01\x00\x00\x00'
p1476
tp1477
Rp1478
tp1479
a((lp1480
V0
p1481
aV1
p1482
ag6
(g10
S'\x01\x00\x00\x00'
p1483
tp1484
Rp1485
tp1486
a((lp1487
V4
p1488
aV2
p1489
ag6
(g10
S'\x01\x00\x00\x00'
p1490
tp1491
Rp1492
tp1493
a((lp1494
V0
p1495
aV2
p1496
ag6
(g10
S'\xff\xff\xff\xff'
p1497
tp1498
Rp1499
tp1500
a((lp1501
V2
p1502
aV1
p1503
ag6
(g10
S'\x01\x00\x00\x00'
p1504
tp1505
Rp1506
tp1507
a((lp1508
V2
p1509
aV2
p1510
ag6
(g10
S'\xff\xff\xff\xff'
p1511
tp1512
Rp1513
tp1514
a((lp1515
V3
p1516
aV2
p1517
ag6
(g10
S'\x01\x00\x00\x00'
p1518
tp1519
Rp1520
tp1521
a((lp1522
V0
p1523
aV2
p1524
ag6
(g10
S'\x01\x00\x00\x00'
p1525
tp1526
Rp1527
tp1528
a((lp1529
V2
p1530
aV4
p1531
ag6
(g10
S'\x01\x00\x00\x00'
p1532
tp1533
Rp1534
tp1535
a((lp1536
V1
p1537
aV5
p1538
ag6
(g10
S'\xff\xff\xff\xff'
p1539
tp1540
Rp1541
tp1542
a((lp1543
V0
p1544
aV0
p1545
ag6
(g10
S'\x01\x00\x00\x00'
p1546
tp1547
Rp1548
tp1549
a((lp1550
V2
p1551
aV0
p1552
ag6
(g10
S'\x01\x00\x00\x00'
p1553
tp1554
Rp1555
tp1556
a((lp1557
V2
p1558
aV1
p1559
ag6
(g10
S'\x01\x00\x00\x00'
p1560
tp1561
Rp1562
tp1563
a((lp1564
V1
p1565
aV1
p1566
ag6
(g10
S'\x01\x00\x00\x00'
p1567
tp1568
Rp1569
tp1570
a((lp1571
V0
p1572
aV2
p1573
ag6
(g10
S'\xff\xff\xff\xff'
p1574
tp1575
Rp1576
tp1577
a((lp1578
V1
p1579
aV3
p1580
ag6
(g10
S'\x01\x00\x00\x00'
p1581
tp1582
Rp1583
tp1584
a((lp1585
V2
p1586
aV0
p1587
ag6
(g10
S'\x01\x00\x00\x00'
p1588
tp1589
Rp1590
tp1591
a((lp1592
V1
p1593
aV2
p1594
ag6
(g10
S'\xff\xff\xff\xff'
p1595
tp1596
Rp1597
tp1598
a((lp1599
V2
p1600
aV1
p1601
ag6
(g10
S'\xff\xff\xff\xff'
p1602
tp1603
Rp1604
tp1605
a((lp1606
V2
p1607
aV2
p1608
ag6
(g10
S'\x01\x00\x00\x00'
p1609
tp1610
Rp1611
tp1612
a((lp1613
V1
p1614
aV0
p1615
ag6
(g10
S'\xff\xff\xff\xff'
p1616
tp1617
Rp1618
tp1619
a((lp1620
V1
p1621
aV0
p1622
ag6
(g10
S'\x01\x00\x00\x00'
p1623
tp1624
Rp1625
tp1626
a((lp1627
V1
p1628
aV1
p1629
ag6
(g10
S'\xff\xff\xff\xff'
p1630
tp1631
Rp1632
tp1633
a((lp1634
V2
p1635
aV2
p1636
ag6
(g10
S'\x01\x00\x00\x00'
p1637
tp1638
Rp1639
tp1640
a((lp1641
V1
p1642
aV1
p1643
ag6
(g10
S'\x01\x00\x00\x00'
p1644
tp1645
Rp1646
tp1647
a((lp1648
V0
p1649
aV1
p1650
ag6
(g10
S'\x01\x00\x00\x00'
p1651
tp1652
Rp1653
tp1654
a((lp1655
V1
p1656
aV0
p1657
ag6
(g10
S'\x01\x00\x00\x00'
p1658
tp1659
Rp1660
tp1661
a((lp1662
V3
p1663
aV0
p1664
ag6
(g10
S'\xff\xff\xff\xff'
p1665
tp1666
Rp1667
tp1668
a((lp1669
V2
p1670
aV2
p1671
ag6
(g10
S'\x01\x00\x00\x00'
p1672
tp1673
Rp1674
tp1675
a((lp1676
V3
p1677
aV2
p1678
ag6
(g10
S'\xff\xff\xff\xff'
p1679
tp1680
Rp1681
tp1682
a((lp1683
V2
p1684
aV3
p1685
ag6
(g10
S'\x01\x00\x00\x00'
p1686
tp1687
Rp1688
tp1689
a((lp1690
V0
p1691
aV1
p1692
ag6
(g10
S'\x01\x00\x00\x00'
p1693
tp1694
Rp1695
tp1696
a((lp1697
V2
p1698
aV2
p1699
ag6
(g10
S'\xff\xff\xff\xff'
p1700
tp1701
Rp1702
tp1703
a((lp1704
V2
p1705
aV1
p1706
ag6
(g10
S'\x01\x00\x00\x00'
p1707
tp1708
Rp1709
tp1710
a((lp1711
V3
p1712
aV2
p1713
ag6
(g10
S'\x01\x00\x00\x00'
p1714
tp1715
Rp1716
tp1717
a((lp1718
V1
p1719
aV0
p1720
ag6
(g10
S'\x01\x00\x00\x00'
p1721
tp1722
Rp1723
tp1724
a((lp1725
V0
p1726
aV0
p1727
ag6
(g10
S'\x01\x00\x00\x00'
p1728
tp1729
Rp1730
tp1731
a((lp1732
V4
p1733
aV1
p1734
ag6
(g10
S'\x01\x00\x00\x00'
p1735
tp1736
Rp1737
tp1738
a((lp1739
V1
p1740
aV1
p1741
ag6
(g10
S'\x01\x00\x00\x00'
p1742
tp1743
Rp1744
tp1745
a((lp1746
V0
p1747
aV1
p1748
ag6
(g10
S'\x01\x00\x00\x00'
p1749
tp1750
Rp1751
tp1752
a((lp1753
V2
p1754
aV0
p1755
ag6
(g10
S'\xff\xff\xff\xff'
p1756
tp1757
Rp1758
tp1759
a((lp1760
V2
p1761
aV0
p1762
ag6
(g10
S'\x01\x00\x00\x00'
p1763
tp1764
Rp1765
tp1766
a((lp1767
V2
p1768
aV0
p1769
ag6
(g10
S'\x01\x00\x00\x00'
p1770
tp1771
Rp1772
tp1773
a((lp1774
V1
p1775
aV3
p1776
ag6
(g10
S'\x01\x00\x00\x00'
p1777
tp1778
Rp1779
tp1780
a((lp1781
V1
p1782
aV1
p1783
ag6
(g10
S'\x01\x00\x00\x00'
p1784
tp1785
Rp1786
tp1787
a((lp1788
V0
p1789
aV2
p1790
ag6
(g10
S'\x01\x00\x00\x00'
p1791
tp1792
Rp1793
tp1794
a((lp1795
V1
p1796
aV1
p1797
ag6
(g10
S'\x01\x00\x00\x00'
p1798
tp1799
Rp1800
tp1801
a((lp1802
V0
p1803
aV0
p1804
ag6
(g10
S'\x01\x00\x00\x00'
p1805
tp1806
Rp1807
tp1808
a((lp1809
V2
p1810
aV1
p1811
ag6
(g10
S'\x01\x00\x00\x00'
p1812
tp1813
Rp1814
tp1815
a((lp1816
V2
p1817
aV2
p1818
ag6
(g10
S'\x01\x00\x00\x00'
p1819
tp1820
Rp1821
tp1822
a((lp1823
V5
p1824
aV1
p1825
ag6
(g10
S'\x01\x00\x00\x00'
p1826
tp1827
Rp1828
tp1829
a((lp1830
V3
p1831
aV1
p1832
ag6
(g10
S'\x01\x00\x00\x00'
p1833
tp1834
Rp1835
tp1836
a((lp1837
V2
p1838
aV0
p1839
ag6
(g10
S'\x01\x00\x00\x00'
p1840
tp1841
Rp1842
tp1843
a((lp1844
V0
p1845
aV2
p1846
ag6
(g10
S'\x01\x00\x00\x00'
p1847
tp1848
Rp1849
tp1850
a((lp1851
V2
p1852
aV0
p1853
ag6
(g10
S'\x01\x00\x00\x00'
p1854
tp1855
Rp1856
tp1857
a((lp1858
V1
p1859
aV1
p1860
ag6
(g10
S'\x01\x00\x00\x00'
p1861
tp1862
Rp1863
tp1864
a((lp1865
V1
p1866
aV1
p1867
ag6
(g10
S'\x01\x00\x00\x00'
p1868
tp1869
Rp1870
tp1871
a((lp1872
V0
p1873
aV1
p1874
ag6
(g10
S'\x01\x00\x00\x00'
p1875
tp1876
Rp1877
tp1878
a((lp1879
V1
p1880
aV1
p1881
ag6
(g10
S'\x01\x00\x00\x00'
p1882
tp1883
Rp1884
tp1885
a((lp1886
V1
p1887
aV1
p1888
ag6
(g10
S'\x01\x00\x00\x00'
p1889
tp1890
Rp1891
tp1892
a((lp1893
V2
p1894
aV1
p1895
ag6
(g10
S'\x01\x00\x00\x00'
p1896
tp1897
Rp1898
tp1899
a((lp1900
V1
p1901
aV0
p1902
ag6
(g10
S'\x01\x00\x00\x00'
p1903
tp1904
Rp1905
tp1906
a((lp1907
V3
p1908
aV1
p1909
ag6
(g10
S'\x01\x00\x00\x00'
p1910
tp1911
Rp1912
tp1913
a((lp1914
V3
p1915
aV0
p1916
ag6
(g10
S'\x01\x00\x00\x00'
p1917
tp1918
Rp1919
tp1920
a((lp1921
V1
p1922
aV0
p1923
ag6
(g10
S'\x01\x00\x00\x00'
p1924
tp1925
Rp1926
tp1927
a((lp1928
V1
p1929
aV0
p1930
ag6
(g10
S'\x01\x00\x00\x00'
p1931
tp1932
Rp1933
tp1934
a((lp1935
V1
p1936
aV0
p1937
ag6
(g10
S'\x01\x00\x00\x00'
p1938
tp1939
Rp1940
tp1941
a((lp1942
V1
p1943
aV0
p1944
ag6
(g10
S'\x01\x00\x00\x00'
p1945
tp1946
Rp1947
tp1948
a((lp1949
V4
p1950
aV0
p1951
ag6
(g10
S'\x01\x00\x00\x00'
p1952
tp1953
Rp1954
tp1955
a((lp1956
V1
p1957
aV0
p1958
ag6
(g10
S'\x01\x00\x00\x00'
p1959
tp1960
Rp1961
tp1962
a((lp1963
V1
p1964
aV2
p1965
ag6
(g10
S'\x01\x00\x00\x00'
p1966
tp1967
Rp1968
tp1969
a((lp1970
V0
p1971
aV1
p1972
ag6
(g10
S'\x01\x00\x00\x00'
p1973
tp1974
Rp1975
tp1976
a((lp1977
V1
p1978
aV0
p1979
ag6
(g10
S'\x01\x00\x00\x00'
p1980
tp1981
Rp1982
tp1983
a((lp1984
V2
p1985
aV2
p1986
ag6
(g10
S'\x01\x00\x00\x00'
p1987
tp1988
Rp1989
tp1990
a((lp1991
V0
p1992
aV1
p1993
ag6
(g10
S'\x01\x00\x00\x00'
p1994
tp1995
Rp1996
tp1997
a((lp1998
V0
p1999
aV1
p2000
ag6
(g10
S'\xff\xff\xff\xff'
p2001
tp2002
Rp2003
tp2004
a((lp2005
V1
p2006
aV0
p2007
ag6
(g10
S'\x01\x00\x00\x00'
p2008
tp2009
Rp2010
tp2011
a((lp2012
V0
p2013
aV3
p2014
ag6
(g10
S'\xff\xff\xff\xff'
p2015
tp2016
Rp2017
tp2018
a((lp2019
V4
p2020
aV1
p2021
ag6
(g10
S'\x01\x00\x00\x00'
p2022
tp2023
Rp2024
tp2025
a((lp2026
V1
p2027
aV3
p2028
ag6
(g10
S'\xff\xff\xff\xff'
p2029
tp2030
Rp2031
tp2032
a((lp2033
V2
p2034
aV0
p2035
ag6
(g10
S'\x01\x00\x00\x00'
p2036
tp2037
Rp2038
tp2039
a((lp2040
V0
p2041
aV2
p2042
ag6
(g10
S'\xff\xff\xff\xff'
p2043
tp2044
Rp2045
tp2046
a((lp2047
V1
p2048
aV0
p2049
ag6
(g10
S'\x01\x00\x00\x00'
p2050
tp2051
Rp2052
tp2053
a((lp2054
V0
p2055
aV0
p2056
ag6
(g10
S'\xff\xff\xff\xff'
p2057
tp2058
Rp2059
tp2060
a((lp2061
V2
p2062
aV1
p2063
ag6
(g10
S'\x01\x00\x00\x00'
p2064
tp2065
Rp2066
tp2067
a((lp2068
V1
p2069
aV2
p2070
ag6
(g10
S'\x01\x00\x00\x00'
p2071
tp2072
Rp2073
tp2074
a((lp2075
V0
p2076
aV1
p2077
ag6
(g10
S'\x01\x00\x00\x00'
p2078
tp2079
Rp2080
tp2081
a((lp2082
V2
p2083
aV3
p2084
ag6
(g10
S'\x01\x00\x00\x00'
p2085
tp2086
Rp2087
tp2088
a((lp2089
V4
p2090
aV0
p2091
ag6
(g10
S'\x01\x00\x00\x00'
p2092
tp2093
Rp2094
tp2095
a((lp2096
V2
p2097
aV2
p2098
ag6
(g10
S'\x01\x00\x00\x00'
p2099
tp2100
Rp2101
tp2102
a((lp2103
V5
p2104
aV0
p2105
ag6
(g10
S'\x01\x00\x00\x00'
p2106
tp2107
Rp2108
tp2109
a((lp2110
V2
p2111
aV1
p2112
ag6
(g10
S'\x01\x00\x00\x00'
p2113
tp2114
Rp2115
tp2116
a((lp2117
V2
p2118
aV0
p2119
ag6
(g10
S'\x01\x00\x00\x00'
p2120
tp2121
Rp2122
tp2123
a((lp2124
V1
p2125
aV0
p2126
ag6
(g10
S'\x01\x00\x00\x00'
p2127
tp2128
Rp2129
tp2130
a((lp2131
V2
p2132
aV1
p2133
ag6
(g10
S'\x01\x00\x00\x00'
p2134
tp2135
Rp2136
tp2137
a((lp2138
V0
p2139
aV0
p2140
ag6
(g10
S'\x01\x00\x00\x00'
p2141
tp2142
Rp2143
tp2144
a((lp2145
V2
p2146
aV1
p2147
ag6
(g10
S'\x01\x00\x00\x00'
p2148
tp2149
Rp2150
tp2151
a((lp2152
V3
p2153
aV1
p2154
ag6
(g10
S'\x01\x00\x00\x00'
p2155
tp2156
Rp2157
tp2158
a((lp2159
V2
p2160
aV0
p2161
ag6
(g10
S'\x01\x00\x00\x00'
p2162
tp2163
Rp2164
tp2165
a((lp2166
V1
p2167
aV0
p2168
ag6
(g10
S'\x01\x00\x00\x00'
p2169
tp2170
Rp2171
tp2172
a((lp2173
V2
p2174
aV0
p2175
ag6
(g10
S'\x01\x00\x00\x00'
p2176
tp2177
Rp2178
tp2179
a((lp2180
V4
p2181
aV1
p2182
ag6
(g10
S'\x01\x00\x00\x00'
p2183
tp2184
Rp2185
tp2186
a((lp2187
V2
p2188
aV2
p2189
ag6
(g10
S'\x01\x00\x00\x00'
p2190
tp2191
Rp2192
tp2193
a((lp2194
V3
p2195
aV0
p2196
ag6
(g10
S'\x01\x00\x00\x00'
p2197
tp2198
Rp2199
tp2200
a((lp2201
V2
p2202
aV0
p2203
ag6
(g10
S'\x01\x00\x00\x00'
p2204
tp2205
Rp2206
tp2207
a((lp2208
V1
p2209
aV3
p2210
ag6
(g10
S'\x01\x00\x00\x00'
p2211
tp2212
Rp2213
tp2214
a((lp2215
V2
p2216
aV0
p2217
ag6
(g10
S'\x01\x00\x00\x00'
p2218
tp2219
Rp2220
tp2221
a((lp2222
V1
p2223
aV2
p2224
ag6
(g10
S'\xff\xff\xff\xff'
p2225
tp2226
Rp2227
tp2228
a((lp2229
V0
p2230
aV1
p2231
ag6
(g10
S'\xff\xff\xff\xff'
p2232
tp2233
Rp2234
tp2235
a((lp2236
V0
p2237
aV0
p2238
ag6
(g10
S'\xff\xff\xff\xff'
p2239
tp2240
Rp2241
tp2242
a((lp2243
V0
p2244
aV0
p2245
ag6
(g10
S'\x01\x00\x00\x00'
p2246
tp2247
Rp2248
tp2249
a((lp2250
V1
p2251
aV2
p2252
ag6
(g10
S'\x01\x00\x00\x00'
p2253
tp2254
Rp2255
tp2256
a((lp2257
V0
p2258
aV0
p2259
ag6
(g10
S'\xff\xff\xff\xff'
p2260
tp2261
Rp2262
tp2263
a((lp2264
V2
p2265
aV3
p2266
ag6
(g10
S'\xff\xff\xff\xff'
p2267
tp2268
Rp2269
tp2270
a((lp2271
V2
p2272
aV1
p2273
ag6
(g10
S'\x01\x00\x00\x00'
p2274
tp2275
Rp2276
tp2277
a((lp2278
V2
p2279
aV1
p2280
ag6
(g10
S'\xff\xff\xff\xff'
p2281
tp2282
Rp2283
tp2284
a((lp2285
V4
p2286
aV0
p2287
ag6
(g10
S'\x01\x00\x00\x00'
p2288
tp2289
Rp2290
tp2291
a((lp2292
V0
p2293
aV1
p2294
ag6
(g10
S'\xff\xff\xff\xff'
p2295
tp2296
Rp2297
tp2298
a((lp2299
V1
p2300
aV0
p2301
ag6
(g10
S'\x01\x00\x00\x00'
p2302
tp2303
Rp2304
tp2305
a((lp2306
V1
p2307
aV1
p2308
ag6
(g10
S'\x01\x00\x00\x00'
p2309
tp2310
Rp2311
tp2312
a((lp2313
V2
p2314
aV3
p2315
ag6
(g10
S'\x01\x00\x00\x00'
p2316
tp2317
Rp2318
tp2319
a((lp2320
V1
p2321
aV0
p2322
ag6
(g10
S'\x01\x00\x00\x00'
p2323
tp2324
Rp2325
tp2326
a((lp2327
V3
p2328
aV3
p2329
ag6
(g10
S'\xff\xff\xff\xff'
p2330
tp2331
Rp2332
tp2333
a((lp2334
V1
p2335
aV1
p2336
ag6
(g10
S'\x01\x00\x00\x00'
p2337
tp2338
Rp2339
tp2340
a((lp2341
V1
p2342
aV3
p2343
ag6
(g10
S'\x01\x00\x00\x00'
p2344
tp2345
Rp2346
tp2347
a((lp2348
V2
p2349
aV2
p2350
ag6
(g10
S'\xff\xff\xff\xff'
p2351
tp2352
Rp2353
tp2354
a((lp2355
V0
p2356
aV1
p2357
ag6
(g10
S'\x01\x00\x00\x00'
p2358
tp2359
Rp2360
tp2361
a((lp2362
V1
p2363
aV3
p2364
ag6
(g10
S'\x01\x00\x00\x00'
p2365
tp2366
Rp2367
tp2368
a((lp2369
V1
p2370
aV0
p2371
ag6
(g10
S'\x01\x00\x00\x00'
p2372
tp2373
Rp2374
tp2375
a((lp2376
V3
p2377
aV0
p2378
ag6
(g10
S'\x01\x00\x00\x00'
p2379
tp2380
Rp2381
tp2382
a((lp2383
V0
p2384
aV1
p2385
ag6
(g10
S'\x01\x00\x00\x00'
p2386
tp2387
Rp2388
tp2389
a((lp2390
V2
p2391
aV2
p2392
ag6
(g10
S'\x01\x00\x00\x00'
p2393
tp2394
Rp2395
tp2396
a((lp2397
V2
p2398
aV0
p2399
ag6
(g10
S'\x01\x00\x00\x00'
p2400
tp2401
Rp2402
tp2403
a((lp2404
V1
p2405
aV1
p2406
ag6
(g10
S'\x01\x00\x00\x00'
p2407
tp2408
Rp2409
tp2410
a((lp2411
V0
p2412
aV1
p2413
ag6
(g10
S'\x01\x00\x00\x00'
p2414
tp2415
Rp2416
tp2417
a((lp2418
V3
p2419
aV0
p2420
ag6
(g10
S'\x01\x00\x00\x00'
p2421
tp2422
Rp2423
tp2424
a((lp2425
V1
p2426
aV3
p2427
ag6
(g10
S'\xff\xff\xff\xff'
p2428
tp2429
Rp2430
tp2431
a((lp2432
V0
p2433
aV2
p2434
ag6
(g10
S'\x01\x00\x00\x00'
p2435
tp2436
Rp2437
tp2438
a((lp2439
V1
p2440
aV1
p2441
ag6
(g10
S'\xff\xff\xff\xff'
p2442
tp2443
Rp2444
tp2445
a((lp2446
V1
p2447
aV1
p2448
ag6
(g10
S'\x01\x00\x00\x00'
p2449
tp2450
Rp2451
tp2452
a((lp2453
V2
p2454
aV1
p2455
ag6
(g10
S'\x01\x00\x00\x00'
p2456
tp2457
Rp2458
tp2459
a((lp2460
V2
p2461
aV0
p2462
ag6
(g10
S'\x01\x00\x00\x00'
p2463
tp2464
Rp2465
tp2466
a((lp2467
V2
p2468
aV0
p2469
ag6
(g10
S'\x01\x00\x00\x00'
p2470
tp2471
Rp2472
tp2473
a((lp2474
V3
p2475
aV0
p2476
ag6
(g10
S'\x01\x00\x00\x00'
p2477
tp2478
Rp2479
tp2480
a((lp2481
V0
p2482
aV2
p2483
ag6
(g10
S'\x01\x00\x00\x00'
p2484
tp2485
Rp2486
tp2487
a((lp2488
V3
p2489
aV0
p2490
ag6
(g10
S'\x01\x00\x00\x00'
p2491
tp2492
Rp2493
tp2494
a((lp2495
V1
p2496
aV1
p2497
ag6
(g10
S'\x01\x00\x00\x00'
p2498
tp2499
Rp2500
tp2501
a((lp2502
V1
p2503
aV0
p2504
ag6
(g10
S'\x01\x00\x00\x00'
p2505
tp2506
Rp2507
tp2508
a((lp2509
V1
p2510
aV0
p2511
ag6
(g10
S'\xff\xff\xff\xff'
p2512
tp2513
Rp2514
tp2515
a((lp2516
V2
p2517
aV1
p2518
ag6
(g10
S'\x01\x00\x00\x00'
p2519
tp2520
Rp2521
tp2522
a((lp2523
V1
p2524
aV1
p2525
ag6
(g10
S'\x01\x00\x00\x00'
p2526
tp2527
Rp2528
tp2529
a((lp2530
V2
p2531
aV2
p2532
ag6
(g10
S'\x01\x00\x00\x00'
p2533
tp2534
Rp2535
tp2536
a((lp2537
V1
p2538
aV2
p2539
ag6
(g10
S'\x01\x00\x00\x00'
p2540
tp2541
Rp2542
tp2543
a((lp2544
V1
p2545
aV1
p2546
ag6
(g10
S'\x01\x00\x00\x00'
p2547
tp2548
Rp2549
tp2550
a((lp2551
V2
p2552
aV0
p2553
ag6
(g10
S'\xff\xff\xff\xff'
p2554
tp2555
Rp2556
tp2557
a((lp2558
V2
p2559
aV3
p2560
ag6
(g10
S'\x01\x00\x00\x00'
p2561
tp2562
Rp2563
tp2564
a((lp2565
V1
p2566
aV1
p2567
ag6
(g10
S'\x01\x00\x00\x00'
p2568
tp2569
Rp2570
tp2571
a((lp2572
V0
p2573
aV1
p2574
ag6
(g10
S'\xff\xff\xff\xff'
p2575
tp2576
Rp2577
tp2578
a((lp2579
V1
p2580
aV0
p2581
ag6
(g10
S'\x01\x00\x00\x00'
p2582
tp2583
Rp2584
tp2585
a((lp2586
V3
p2587
aV1
p2588
ag6
(g10
S'\x01\x00\x00\x00'
p2589
tp2590
Rp2591
tp2592
a((lp2593
V1
p2594
aV1
p2595
ag6
(g10
S'\x01\x00\x00\x00'
p2596
tp2597
Rp2598
tp2599
a((lp2600
V1
p2601
aV4
p2602
ag6
(g10
S'\x01\x00\x00\x00'
p2603
tp2604
Rp2605
tp2606
a((lp2607
V0
p2608
aV1
p2609
ag6
(g10
S'\xff\xff\xff\xff'
p2610
tp2611
Rp2612
tp2613
a((lp2614
V2
p2615
aV2
p2616
ag6
(g10
S'\x01\x00\x00\x00'
p2617
tp2618
Rp2619
tp2620
a((lp2621
V0
p2622
aV1
p2623
ag6
(g10
S'\x01\x00\x00\x00'
p2624
tp2625
Rp2626
tp2627
a((lp2628
V1
p2629
aV1
p2630
ag6
(g10
S'\x01\x00\x00\x00'
p2631
tp2632
Rp2633
tp2634
a((lp2635
V2
p2636
aV2
p2637
ag6
(g10
S'\x01\x00\x00\x00'
p2638
tp2639
Rp2640
tp2641
a((lp2642
V1
p2643
aV0
p2644
ag6
(g10
S'\x01\x00\x00\x00'
p2645
tp2646
Rp2647
tp2648
a((lp2649
V1
p2650
aV2
p2651
ag6
(g10
S'\x01\x00\x00\x00'
p2652
tp2653
Rp2654
tp2655
a((lp2656
V2
p2657
aV1
p2658
ag6
(g10
S'\x01\x00\x00\x00'
p2659
tp2660
Rp2661
tp2662
a((lp2663
V0
p2664
aV1
p2665
ag6
(g10
S'\x01\x00\x00\x00'
p2666
tp2667
Rp2668
tp2669
a((lp2670
V0
p2671
aV0
p2672
ag6
(g10
S'\x01\x00\x00\x00'
p2673
tp2674
Rp2675
tp2676
a((lp2677
V1
p2678
aV2
p2679
ag6
(g10
S'\x01\x00\x00\x00'
p2680
tp2681
Rp2682
tp2683
a((lp2684
V3
p2685
aV0
p2686
ag6
(g10
S'\x01\x00\x00\x00'
p2687
tp2688
Rp2689
tp2690
a((lp2691
V0
p2692
aV3
p2693
ag6
(g10
S'\xff\xff\xff\xff'
p2694
tp2695
Rp2696
tp2697
a((lp2698
V1
p2699
aV0
p2700
ag6
(g10
S'\x01\x00\x00\x00'
p2701
tp2702
Rp2703
tp2704
a((lp2705
V2
p2706
aV1
p2707
ag6
(g10
S'\x01\x00\x00\x00'
p2708
tp2709
Rp2710
tp2711
a((lp2712
V2
p2713
aV1
p2714
ag6
(g10
S'\x01\x00\x00\x00'
p2715
tp2716
Rp2717
tp2718
a((lp2719
V0
p2720
aV1
p2721
ag6
(g10
S'\xff\xff\xff\xff'
p2722
tp2723
Rp2724
tp2725
a((lp2726
V1
p2727
aV2
p2728
ag6
(g10
S'\x01\x00\x00\x00'
p2729
tp2730
Rp2731
tp2732
a((lp2733
V2
p2734
aV0
p2735
ag6
(g10
S'\x01\x00\x00\x00'
p2736
tp2737
Rp2738
tp2739
a((lp2740
V2
p2741
aV1
p2742
ag6
(g10
S'\x01\x00\x00\x00'
p2743
tp2744
Rp2745
tp2746
a((lp2747
V3
p2748
aV1
p2749
ag6
(g10
S'\x01\x00\x00\x00'
p2750
tp2751
Rp2752
tp2753
a((lp2754
V0
p2755
aV2
p2756
ag6
(g10
S'\x01\x00\x00\x00'
p2757
tp2758
Rp2759
tp2760
a((lp2761
V2
p2762
aV1
p2763
ag6
(g10
S'\x01\x00\x00\x00'
p2764
tp2765
Rp2766
tp2767
a((lp2768
V0
p2769
aV1
p2770
ag6
(g10
S'\x01\x00\x00\x00'
p2771
tp2772
Rp2773
tp2774
a((lp2775
V1
p2776
aV2
p2777
ag6
(g10
S'\x01\x00\x00\x00'
p2778
tp2779
Rp2780
tp2781
a((lp2782
V0
p2783
aV1
p2784
ag6
(g10
S'\x01\x00\x00\x00'
p2785
tp2786
Rp2787
tp2788
a((lp2789
V6
p2790
aV0
p2791
ag6
(g10
S'\x01\x00\x00\x00'
p2792
tp2793
Rp2794
tp2795
a((lp2796
V4
p2797
aV1
p2798
ag6
(g10
S'\x01\x00\x00\x00'
p2799
tp2800
Rp2801
tp2802
a((lp2803
V1
p2804
aV1
p2805
ag6
(g10
S'\x01\x00\x00\x00'
p2806
tp2807
Rp2808
tp2809
a((lp2810
V1
p2811
aV1
p2812
ag6
(g10
S'\x01\x00\x00\x00'
p2813
tp2814
Rp2815
tp2816
a((lp2817
V0
p2818
aV1
p2819
ag6
(g10
S'\x01\x00\x00\x00'
p2820
tp2821
Rp2822
tp2823
a((lp2824
V3
p2825
aV3
p2826
ag6
(g10
S'\x01\x00\x00\x00'
p2827
tp2828
Rp2829
tp2830
a((lp2831
V2
p2832
aV2
p2833
ag6
(g10
S'\x01\x00\x00\x00'
p2834
tp2835
Rp2836
tp2837
a((lp2838
V1
p2839
aV1
p2840
ag6
(g10
S'\x01\x00\x00\x00'
p2841
tp2842
Rp2843
tp2844
a((lp2845
V0
p2846
aV0
p2847
ag6
(g10
S'\x01\x00\x00\x00'
p2848
tp2849
Rp2850
tp2851
a((lp2852
V0
p2853
aV0
p2854
ag6
(g10
S'\x01\x00\x00\x00'
p2855
tp2856
Rp2857
tp2858
a((lp2859
V1
p2860
aV2
p2861
ag6
(g10
S'\x01\x00\x00\x00'
p2862
tp2863
Rp2864
tp2865
a((lp2866
V0
p2867
aV0
p2868
ag6
(g10
S'\x01\x00\x00\x00'
p2869
tp2870
Rp2871
tp2872
a((lp2873
V1
p2874
aV0
p2875
ag6
(g10
S'\x01\x00\x00\x00'
p2876
tp2877
Rp2878
tp2879
a((lp2880
V3
p2881
aV0
p2882
ag6
(g10
S'\x01\x00\x00\x00'
p2883
tp2884
Rp2885
tp2886
a((lp2887
V3
p2888
aV0
p2889
ag6
(g10
S'\x01\x00\x00\x00'
p2890
tp2891
Rp2892
tp2893
a((lp2894
V2
p2895
aV4
p2896
ag6
(g10
S'\x01\x00\x00\x00'
p2897
tp2898
Rp2899
tp2900
a((lp2901
V0
p2902
aV2
p2903
ag6
(g10
S'\x01\x00\x00\x00'
p2904
tp2905
Rp2906
tp2907
a((lp2908
V4
p2909
aV1
p2910
ag6
(g10
S'\x01\x00\x00\x00'
p2911
tp2912
Rp2913
tp2914
a((lp2915
V1
p2916
aV1
p2917
ag6
(g10
S'\x01\x00\x00\x00'
p2918
tp2919
Rp2920
tp2921
a((lp2922
V0
p2923
aV2
p2924
ag6
(g10
S'\x01\x00\x00\x00'
p2925
tp2926
Rp2927
tp2928
a((lp2929
V0
p2930
aV1
p2931
ag6
(g10
S'\xff\xff\xff\xff'
p2932
tp2933
Rp2934
tp2935
a((lp2936
V2
p2937
aV2
p2938
ag6
(g10
S'\x01\x00\x00\x00'
p2939
tp2940
Rp2941
tp2942
a((lp2943
V3
p2944
aV1
p2945
ag6
(g10
S'\xff\xff\xff\xff'
p2946
tp2947
Rp2948
tp2949
a((lp2950
V2
p2951
aV0
p2952
ag6
(g10
S'\xff\xff\xff\xff'
p2953
tp2954
Rp2955
tp2956
a((lp2957
V1
p2958
aV1
p2959
ag6
(g10
S'\x01\x00\x00\x00'
p2960
tp2961
Rp2962
tp2963
a((lp2964
V1
p2965
aV1
p2966
ag6
(g10
S'\x01\x00\x00\x00'
p2967
tp2968
Rp2969
tp2970
a((lp2971
V2
p2972
aV1
p2973
ag6
(g10
S'\xff\xff\xff\xff'
p2974
tp2975
Rp2976
tp2977
a((lp2978
V2
p2979
aV2
p2980
ag6
(g10
S'\x01\x00\x00\x00'
p2981
tp2982
Rp2983
tp2984
a((lp2985
V0
p2986
aV1
p2987
ag6
(g10
S'\xff\xff\xff\xff'
p2988
tp2989
Rp2990
tp2991
a((lp2992
V2
p2993
aV0
p2994
ag6
(g10
S'\xff\xff\xff\xff'
p2995
tp2996
Rp2997
tp2998
a((lp2999
V2
p3000
aV1
p3001
ag6
(g10
S'\x01\x00\x00\x00'
p3002
tp3003
Rp3004
tp3005
a((lp3006
V1
p3007
aV1
p3008
ag6
(g10
S'\x01\x00\x00\x00'
p3009
tp3010
Rp3011
tp3012
a((lp3013
V2
p3014
aV2
p3015
ag6
(g10
S'\x01\x00\x00\x00'
p3016
tp3017
Rp3018
tp3019
a((lp3020
V2
p3021
aV0
p3022
ag6
(g10
S'\x01\x00\x00\x00'
p3023
tp3024
Rp3025
tp3026
a((lp3027
V1
p3028
aV2
p3029
ag6
(g10
S'\x01\x00\x00\x00'
p3030
tp3031
Rp3032
tp3033
a((lp3034
V0
p3035
aV2
p3036
ag6
(g10
S'\x01\x00\x00\x00'
p3037
tp3038
Rp3039
tp3040
a((lp3041
V2
p3042
aV2
p3043
ag6
(g10
S'\x01\x00\x00\x00'
p3044
tp3045
Rp3046
tp3047
a((lp3048
V1
p3049
aV0
p3050
ag6
(g10
S'\x01\x00\x00\x00'
p3051
tp3052
Rp3053
tp3054
a((lp3055
V1
p3056
aV1
p3057
ag6
(g10
S'\x01\x00\x00\x00'
p3058
tp3059
Rp3060
tp3061
a((lp3062
V0
p3063
aV1
p3064
ag6
(g10
S'\x01\x00\x00\x00'
p3065
tp3066
Rp3067
tp3068
a((lp3069
V3
p3070
aV1
p3071
ag6
(g10
S'\x01\x00\x00\x00'
p3072
tp3073
Rp3074
tp3075
a((lp3076
V3
p3077
aV2
p3078
ag6
(g10
S'\x01\x00\x00\x00'
p3079
tp3080
Rp3081
tp3082
a((lp3083
V1
p3084
aV1
p3085
ag6
(g10
S'\x01\x00\x00\x00'
p3086
tp3087
Rp3088
tp3089
a((lp3090
V4
p3091
aV1
p3092
ag6
(g10
S'\x01\x00\x00\x00'
p3093
tp3094
Rp3095
tp3096
a((lp3097
V1
p3098
aV2
p3099
ag6
(g10
S'\xff\xff\xff\xff'
p3100
tp3101
Rp3102
tp3103
a((lp3104
V0
p3105
aV0
p3106
ag6
(g10
S'\x01\x00\x00\x00'
p3107
tp3108
Rp3109
tp3110
a((lp3111
V0
p3112
aV0
p3113
ag6
(g10
S'\x01\x00\x00\x00'
p3114
tp3115
Rp3116
tp3117
a((lp3118
V0
p3119
aV2
p3120
ag6
(g10
S'\x01\x00\x00\x00'
p3121
tp3122
Rp3123
tp3124
a((lp3125
V0
p3126
aV1
p3127
ag6
(g10
S'\xff\xff\xff\xff'
p3128
tp3129
Rp3130
tp3131
a((lp3132
V0
p3133
aV0
p3134
ag6
(g10
S'\x01\x00\x00\x00'
p3135
tp3136
Rp3137
tp3138
a((lp3139
V1
p3140
aV0
p3141
ag6
(g10
S'\x01\x00\x00\x00'
p3142
tp3143
Rp3144
tp3145
a((lp3146
V2
p3147
aV0
p3148
ag6
(g10
S'\x01\x00\x00\x00'
p3149
tp3150
Rp3151
tp3152
a((lp3153
V1
p3154
aV2
p3155
ag6
(g10
S'\x01\x00\x00\x00'
p3156
tp3157
Rp3158
tp3159
a((lp3160
V1
p3161
aV1
p3162
ag6
(g10
S'\x01\x00\x00\x00'
p3163
tp3164
Rp3165
tp3166
a((lp3167
V1
p3168
aV0
p3169
ag6
(g10
S'\x01\x00\x00\x00'
p3170
tp3171
Rp3172
tp3173
a((lp3174
V3
p3175
aV0
p3176
ag6
(g10
S'\x01\x00\x00\x00'
p3177
tp3178
Rp3179
tp3180
a((lp3181
V1
p3182
aV1
p3183
ag6
(g10
S'\xff\xff\xff\xff'
p3184
tp3185
Rp3186
tp3187
a((lp3188
V1
p3189
aV3
p3190
ag6
(g10
S'\x01\x00\x00\x00'
p3191
tp3192
Rp3193
tp3194
a((lp3195
V1
p3196
aV0
p3197
ag6
(g10
S'\xff\xff\xff\xff'
p3198
tp3199
Rp3200
tp3201
a((lp3202
V4
p3203
aV1
p3204
ag6
(g10
S'\xff\xff\xff\xff'
p3205
tp3206
Rp3207
tp3208
a((lp3209
V1
p3210
aV1
p3211
ag6
(g10
S'\xff\xff\xff\xff'
p3212
tp3213
Rp3214
tp3215
a((lp3216
V0
p3217
aV1
p3218
ag6
(g10
S'\x01\x00\x00\x00'
p3219
tp3220
Rp3221
tp3222
a((lp3223
V0
p3224
aV1
p3225
ag6
(g10
S'\x01\x00\x00\x00'
p3226
tp3227
Rp3228
tp3229
a((lp3230
V1
p3231
aV2
p3232
ag6
(g10
S'\x01\x00\x00\x00'
p3233
tp3234
Rp3235
tp3236
a((lp3237
V2
p3238
aV2
p3239
ag6
(g10
S'\x01\x00\x00\x00'
p3240
tp3241
Rp3242
tp3243
a((lp3244
V1
p3245
aV1
p3246
ag6
(g10
S'\x01\x00\x00\x00'
p3247
tp3248
Rp3249
tp3250
a((lp3251
V1
p3252
aV1
p3253
ag6
(g10
S'\xff\xff\xff\xff'
p3254
tp3255
Rp3256
tp3257
a((lp3258
V1
p3259
aV3
p3260
ag6
(g10
S'\x01\x00\x00\x00'
p3261
tp3262
Rp3263
tp3264
a((lp3265
V1
p3266
aV1
p3267
ag6
(g10
S'\x01\x00\x00\x00'
p3268
tp3269
Rp3270
tp3271
a((lp3272
V0
p3273
aV0
p3274
ag6
(g10
S'\x01\x00\x00\x00'
p3275
tp3276
Rp3277
tp3278
a((lp3279
V0
p3280
aV3
p3281
ag6
(g10
S'\xff\xff\xff\xff'
p3282
tp3283
Rp3284
tp3285
a((lp3286
V2
p3287
aV3
p3288
ag6
(g10
S'\x01\x00\x00\x00'
p3289
tp3290
Rp3291
tp3292
a((lp3293
V1
p3294
aV1
p3295
ag6
(g10
S'\x01\x00\x00\x00'
p3296
tp3297
Rp3298
tp3299
a((lp3300
V1
p3301
aV1
p3302
ag6
(g10
S'\xff\xff\xff\xff'
p3303
tp3304
Rp3305
tp3306
a((lp3307
V1
p3308
aV0
p3309
ag6
(g10
S'\x01\x00\x00\x00'
p3310
tp3311
Rp3312
tp3313
a((lp3314
V1
p3315
aV0
p3316
ag6
(g10
S'\x01\x00\x00\x00'
p3317
tp3318
Rp3319
tp3320
a((lp3321
V1
p3322
aV1
p3323
ag6
(g10
S'\x01\x00\x00\x00'
p3324
tp3325
Rp3326
tp3327
a((lp3328
V1
p3329
aV0
p3330
ag6
(g10
S'\x01\x00\x00\x00'
p3331
tp3332
Rp3333
tp3334
a((lp3335
V2
p3336
aV2
p3337
ag6
(g10
S'\x01\x00\x00\x00'
p3338
tp3339
Rp3340
tp3341
a((lp3342
V4
p3343
aV0
p3344
ag6
(g10
S'\x01\x00\x00\x00'
p3345
tp3346
Rp3347
tp3348
a((lp3349
V3
p3350
aV3
p3351
ag6
(g10
S'\x01\x00\x00\x00'
p3352
tp3353
Rp3354
tp3355
a((lp3356
V0
p3357
aV0
p3358
ag6
(g10
S'\x01\x00\x00\x00'
p3359
tp3360
Rp3361
tp3362
a((lp3363
V1
p3364
aV3
p3365
ag6
(g10
S'\x01\x00\x00\x00'
p3366
tp3367
Rp3368
tp3369
a((lp3370
V0
p3371
aV1
p3372
ag6
(g10
S'\x01\x00\x00\x00'
p3373
tp3374
Rp3375
tp3376
a((lp3377
V0
p3378
aV1
p3379
ag6
(g10
S'\xff\xff\xff\xff'
p3380
tp3381
Rp3382
tp3383
a((lp3384
V1
p3385
aV1
p3386
ag6
(g10
S'\x01\x00\x00\x00'
p3387
tp3388
Rp3389
tp3390
a((lp3391
V0
p3392
aV3
p3393
ag6
(g10
S'\x01\x00\x00\x00'
p3394
tp3395
Rp3396
tp3397
a((lp3398
V1
p3399
aV1
p3400
ag6
(g10
S'\x01\x00\x00\x00'
p3401
tp3402
Rp3403
tp3404
a((lp3405
V0
p3406
aV0
p3407
ag6
(g10
S'\x01\x00\x00\x00'
p3408
tp3409
Rp3410
tp3411
a((lp3412
V2
p3413
aV4
p3414
ag6
(g10
S'\x01\x00\x00\x00'
p3415
tp3416
Rp3417
tp3418
a((lp3419
V2
p3420
aV0
p3421
ag6
(g10
S'\x01\x00\x00\x00'
p3422
tp3423
Rp3424
tp3425
a((lp3426
V2
p3427
aV2
p3428
ag6
(g10
S'\x01\x00\x00\x00'
p3429
tp3430
Rp3431
tp3432
a((lp3433
V2
p3434
aV1
p3435
ag6
(g10
S'\x01\x00\x00\x00'
p3436
tp3437
Rp3438
tp3439
a((lp3440
V4
p3441
aV1
p3442
ag6
(g10
S'\x01\x00\x00\x00'
p3443
tp3444
Rp3445
tp3446
a((lp3447
V5
p3448
aV0
p3449
ag6
(g10
S'\x01\x00\x00\x00'
p3450
tp3451
Rp3452
tp3453
a((lp3454
V4
p3455
aV1
p3456
ag6
(g10
S'\x01\x00\x00\x00'
p3457
tp3458
Rp3459
tp3460
a((lp3461
V5
p3462
aV1
p3463
ag6
(g10
S'\x01\x00\x00\x00'
p3464
tp3465
Rp3466
tp3467
a((lp3468
V2
p3469
aV0
p3470
ag6
(g10
S'\x01\x00\x00\x00'
p3471
tp3472
Rp3473
tp3474
a((lp3475
V5
p3476
aV1
p3477
ag6
(g10
S'\x01\x00\x00\x00'
p3478
tp3479
Rp3480
tp3481
a((lp3482
V0
p3483
aV0
p3484
ag6
(g10
S'\xff\xff\xff\xff'
p3485
tp3486
Rp3487
tp3488
a((lp3489
V1
p3490
aV1
p3491
ag6
(g10
S'\xff\xff\xff\xff'
p3492
tp3493
Rp3494
tp3495
a((lp3496
V1
p3497
aV0
p3498
ag6
(g10
S'\x01\x00\x00\x00'
p3499
tp3500
Rp3501
tp3502
a((lp3503
V0
p3504
aV0
p3505
ag6
(g10
S'\x01\x00\x00\x00'
p3506
tp3507
Rp3508
tp3509
a((lp3510
V1
p3511
aV0
p3512
ag6
(g10
S'\x01\x00\x00\x00'
p3513
tp3514
Rp3515
tp3516
a((lp3517
V0
p3518
aV0
p3519
ag6
(g10
S'\x01\x00\x00\x00'
p3520
tp3521
Rp3522
tp3523
a((lp3524
V0
p3525
aV2
p3526
ag6
(g10
S'\x01\x00\x00\x00'
p3527
tp3528
Rp3529
tp3530
a((lp3531
V2
p3532
aV0
p3533
ag6
(g10
S'\x01\x00\x00\x00'
p3534
tp3535
Rp3536
tp3537
a((lp3538
V0
p3539
aV0
p3540
ag6
(g10
S'\xff\xff\xff\xff'
p3541
tp3542
Rp3543
tp3544
a((lp3545
V1
p3546
aV1
p3547
ag6
(g10
S'\x01\x00\x00\x00'
p3548
tp3549
Rp3550
tp3551
a((lp3552
V2
p3553
aV0
p3554
ag6
(g10
S'\x01\x00\x00\x00'
p3555
tp3556
Rp3557
tp3558
a((lp3559
V1
p3560
aV0
p3561
ag6
(g10
S'\x01\x00\x00\x00'
p3562
tp3563
Rp3564
tp3565
a((lp3566
V1
p3567
aV0
p3568
ag6
(g10
S'\x01\x00\x00\x00'
p3569
tp3570
Rp3571
tp3572
a((lp3573
V0
p3574
aV2
p3575
ag6
(g10
S'\x01\x00\x00\x00'
p3576
tp3577
Rp3578
tp3579
a((lp3580
V3
p3581
aV0
p3582
ag6
(g10
S'\x01\x00\x00\x00'
p3583
tp3584
Rp3585
tp3586
a((lp3587
V0
p3588
aV1
p3589
ag6
(g10
S'\x01\x00\x00\x00'
p3590
tp3591
Rp3592
tp3593
a((lp3594
V0
p3595
aV0
p3596
ag6
(g10
S'\x01\x00\x00\x00'
p3597
tp3598
Rp3599
tp3600
a((lp3601
V0
p3602
aV0
p3603
ag6
(g10
S'\xff\xff\xff\xff'
p3604
tp3605
Rp3606
tp3607
a((lp3608
V1
p3609
aV1
p3610
ag6
(g10
S'\x01\x00\x00\x00'
p3611
tp3612
Rp3613
tp3614
a((lp3615
V2
p3616
aV1
p3617
ag6
(g10
S'\x01\x00\x00\x00'
p3618
tp3619
Rp3620
tp3621
a((lp3622
V2
p3623
aV2
p3624
ag6
(g10
S'\x01\x00\x00\x00'
p3625
tp3626
Rp3627
tp3628
a((lp3629
V2
p3630
aV1
p3631
ag6
(g10
S'\x01\x00\x00\x00'
p3632
tp3633
Rp3634
tp3635
a((lp3636
V3
p3637
aV0
p3638
ag6
(g10
S'\x01\x00\x00\x00'
p3639
tp3640
Rp3641
tp3642
a((lp3643
V1
p3644
aV3
p3645
ag6
(g10
S'\xff\xff\xff\xff'
p3646
tp3647
Rp3648
tp3649
a((lp3650
V0
p3651
aV2
p3652
ag6
(g10
S'\xff\xff\xff\xff'
p3653
tp3654
Rp3655
tp3656
a((lp3657
V1
p3658
aV0
p3659
ag6
(g10
S'\x01\x00\x00\x00'
p3660
tp3661
Rp3662
tp3663
a((lp3664
V1
p3665
aV2
p3666
ag6
(g10
S'\x01\x00\x00\x00'
p3667
tp3668
Rp3669
tp3670
a((lp3671
V1
p3672
aV0
p3673
ag6
(g10
S'\x01\x00\x00\x00'
p3674
tp3675
Rp3676
tp3677
a((lp3678
V1
p3679
aV2
p3680
ag6
(g10
S'\xff\xff\xff\xff'
p3681
tp3682
Rp3683
tp3684
a((lp3685
V2
p3686
aV0
p3687
ag6
(g10
S'\x01\x00\x00\x00'
p3688
tp3689
Rp3690
tp3691
a((lp3692
V1
p3693
aV0
p3694
ag6
(g10
S'\x01\x00\x00\x00'
p3695
tp3696
Rp3697
tp3698
a((lp3699
V1
p3700
aV0
p3701
ag6
(g10
S'\x01\x00\x00\x00'
p3702
tp3703
Rp3704
tp3705
a((lp3706
V0
p3707
aV4
p3708
ag6
(g10
S'\x01\x00\x00\x00'
p3709
tp3710
Rp3711
tp3712
a((lp3713
V2
p3714
aV1
p3715
ag6
(g10
S'\x01\x00\x00\x00'
p3716
tp3717
Rp3718
tp3719
a((lp3720
V1
p3721
aV0
p3722
ag6
(g10
S'\xff\xff\xff\xff'
p3723
tp3724
Rp3725
tp3726
a((lp3727
V0
p3728
aV2
p3729
ag6
(g10
S'\x01\x00\x00\x00'
p3730
tp3731
Rp3732
tp3733
a((lp3734
V2
p3735
aV1
p3736
ag6
(g10
S'\x01\x00\x00\x00'
p3737
tp3738
Rp3739
tp3740
a((lp3741
V0
p3742
aV0
p3743
ag6
(g10
S'\x01\x00\x00\x00'
p3744
tp3745
Rp3746
tp3747
a((lp3748
V1
p3749
aV2
p3750
ag6
(g10
S'\x01\x00\x00\x00'
p3751
tp3752
Rp3753
tp3754
a((lp3755
V0
p3756
aV3
p3757
ag6
(g10
S'\xff\xff\xff\xff'
p3758
tp3759
Rp3760
tp3761
a((lp3762
V1
p3763
aV3
p3764
ag6
(g10
S'\x01\x00\x00\x00'
p3765
tp3766
Rp3767
tp3768
a((lp3769
V1
p3770
aV2
p3771
ag6
(g10
S'\x01\x00\x00\x00'
p3772
tp3773
Rp3774
tp3775
a((lp3776
V2
p3777
aV0
p3778
ag6
(g10
S'\x01\x00\x00\x00'
p3779
tp3780
Rp3781
tp3782
a((lp3783
V1
p3784
aV1
p3785
ag6
(g10
S'\x01\x00\x00\x00'
p3786
tp3787
Rp3788
tp3789
a((lp3790
V0
p3791
aV0
p3792
ag6
(g10
S'\x01\x00\x00\x00'
p3793
tp3794
Rp3795
tp3796
a((lp3797
V1
p3798
aV0
p3799
ag6
(g10
S'\x01\x00\x00\x00'
p3800
tp3801
Rp3802
tp3803
a((lp3804
V3
p3805
aV1
p3806
ag6
(g10
S'\x01\x00\x00\x00'
p3807
tp3808
Rp3809
tp3810
a((lp3811
V1
p3812
aV4
p3813
ag6
(g10
S'\x01\x00\x00\x00'
p3814
tp3815
Rp3816
tp3817
a((lp3818
V1
p3819
aV0
p3820
ag6
(g10
S'\x01\x00\x00\x00'
p3821
tp3822
Rp3823
tp3824
a((lp3825
V1
p3826
aV1
p3827
ag6
(g10
S'\x01\x00\x00\x00'
p3828
tp3829
Rp3830
tp3831
a((lp3832
V1
p3833
aV0
p3834
ag6
(g10
S'\x01\x00\x00\x00'
p3835
tp3836
Rp3837
tp3838
a((lp3839
V3
p3840
aV1
p3841
ag6
(g10
S'\x01\x00\x00\x00'
p3842
tp3843
Rp3844
tp3845
a((lp3846
V3
p3847
aV1
p3848
ag6
(g10
S'\x01\x00\x00\x00'
p3849
tp3850
Rp3851
tp3852
a((lp3853
V1
p3854
aV0
p3855
ag6
(g10
S'\xff\xff\xff\xff'
p3856
tp3857
Rp3858
tp3859
a((lp3860
V1
p3861
aV2
p3862
ag6
(g10
S'\x01\x00\x00\x00'
p3863
tp3864
Rp3865
tp3866
a((lp3867
V2
p3868
aV1
p3869
ag6
(g10
S'\x01\x00\x00\x00'
p3870
tp3871
Rp3872
tp3873
a((lp3874
V1
p3875
aV1
p3876
ag6
(g10
S'\x01\x00\x00\x00'
p3877
tp3878
Rp3879
tp3880
a((lp3881
V2
p3882
aV1
p3883
ag6
(g10
S'\x01\x00\x00\x00'
p3884
tp3885
Rp3886
tp3887
a((lp3888
V1
p3889
aV0
p3890
ag6
(g10
S'\xff\xff\xff\xff'
p3891
tp3892
Rp3893
tp3894
a((lp3895
V1
p3896
aV0
p3897
ag6
(g10
S'\x01\x00\x00\x00'
p3898
tp3899
Rp3900
tp3901
a((lp3902
V2
p3903
aV0
p3904
ag6
(g10
S'\x01\x00\x00\x00'
p3905
tp3906
Rp3907
tp3908
a((lp3909
V0
p3910
aV0
p3911
ag6
(g10
S'\x01\x00\x00\x00'
p3912
tp3913
Rp3914
tp3915
a((lp3916
V1
p3917
aV1
p3918
ag6
(g10
S'\x01\x00\x00\x00'
p3919
tp3920
Rp3921
tp3922
a((lp3923
V0
p3924
aV0
p3925
ag6
(g10
S'\x01\x00\x00\x00'
p3926
tp3927
Rp3928
tp3929
a((lp3930
V1
p3931
aV0
p3932
ag6
(g10
S'\x01\x00\x00\x00'
p3933
tp3934
Rp3935
tp3936
a((lp3937
V3
p3938
aV0
p3939
ag6
(g10
S'\x01\x00\x00\x00'
p3940
tp3941
Rp3942
tp3943
a((lp3944
V3
p3945
aV0
p3946
ag6
(g10
S'\x01\x00\x00\x00'
p3947
tp3948
Rp3949
tp3950
a((lp3951
V1
p3952
aV1
p3953
ag6
(g10
S'\x01\x00\x00\x00'
p3954
tp3955
Rp3956
tp3957
a((lp3958
V1
p3959
aV1
p3960
ag6
(g10
S'\xff\xff\xff\xff'
p3961
tp3962
Rp3963
tp3964
a((lp3965
V2
p3966
aV2
p3967
ag6
(g10
S'\x01\x00\x00\x00'
p3968
tp3969
Rp3970
tp3971
a((lp3972
V2
p3973
aV2
p3974
ag6
(g10
S'\xff\xff\xff\xff'
p3975
tp3976
Rp3977
tp3978
a((lp3979
V2
p3980
aV2
p3981
ag6
(g10
S'\x01\x00\x00\x00'
p3982
tp3983
Rp3984
tp3985
a((lp3986
V0
p3987
aV1
p3988
ag6
(g10
S'\x01\x00\x00\x00'
p3989
tp3990
Rp3991
tp3992
a((lp3993
V1
p3994
aV2
p3995
ag6
(g10
S'\x01\x00\x00\x00'
p3996
tp3997
Rp3998
tp3999
a((lp4000
V3
p4001
aV3
p4002
ag6
(g10
S'\x01\x00\x00\x00'
p4003
tp4004
Rp4005
tp4006
a((lp4007
V1
p4008
aV0
p4009
ag6
(g10
S'\x01\x00\x00\x00'
p4010
tp4011
Rp4012
tp4013
a((lp4014
V0
p4015
aV3
p4016
ag6
(g10
S'\x01\x00\x00\x00'
p4017
tp4018
Rp4019
tp4020
a((lp4021
V3
p4022
aV1
p4023
ag6
(g10
S'\xff\xff\xff\xff'
p4024
tp4025
Rp4026
tp4027
a((lp4028
V1
p4029
aV2
p4030
ag6
(g10
S'\x01\x00\x00\x00'
p4031
tp4032
Rp4033
tp4034
a((lp4035
V5
p4036
aV1
p4037
ag6
(g10
S'\xff\xff\xff\xff'
p4038
tp4039
Rp4040
tp4041
a((lp4042
V5
p4043
aV0
p4044
ag6
(g10
S'\x01\x00\x00\x00'
p4045
tp4046
Rp4047
tp4048
a((lp4049
V1
p4050
aV0
p4051
ag6
(g10
S'\x01\x00\x00\x00'
p4052
tp4053
Rp4054
tp4055
a((lp4056
V0
p4057
aV0
p4058
ag6
(g10
S'\x01\x00\x00\x00'
p4059
tp4060
Rp4061
tp4062
a((lp4063
V3
p4064
aV0
p4065
ag6
(g10
S'\x01\x00\x00\x00'
p4066
tp4067
Rp4068
tp4069
a((lp4070
V3
p4071
aV1
p4072
ag6
(g10
S'\x01\x00\x00\x00'
p4073
tp4074
Rp4075
tp4076
a((lp4077
V0
p4078
aV4
p4079
ag6
(g10
S'\x01\x00\x00\x00'
p4080
tp4081
Rp4082
tp4083
a((lp4084
V4
p4085
aV1
p4086
ag6
(g10
S'\x01\x00\x00\x00'
p4087
tp4088
Rp4089
tp4090
a((lp4091
V10
p4092
aV2
p4093
ag6
(g10
S'\x01\x00\x00\x00'
p4094
tp4095
Rp4096
tp4097
a((lp4098
V3
p4099
aV1
p4100
ag6
(g10
S'\x01\x00\x00\x00'
p4101
tp4102
Rp4103
tp4104
a((lp4105
V5
p4106
aV0
p4107
ag6
(g10
S'\x01\x00\x00\x00'
p4108
tp4109
Rp4110
tp4111
a((lp4112
V5
p4113
aV1
p4114
ag6
(g10
S'\x01\x00\x00\x00'
p4115
tp4116
Rp4117
tp4118
a((lp4119
V1
p4120
aV2
p4121
ag6
(g10
S'\xff\xff\xff\xff'
p4122
tp4123
Rp4124
tp4125
a((lp4126
V1
p4127
aV1
p4128
ag6
(g10
S'\x01\x00\x00\x00'
p4129
tp4130
Rp4131
tp4132
a((lp4133
V2
p4134
aV2
p4135
ag6
(g10
S'\x01\x00\x00\x00'
p4136
tp4137
Rp4138
tp4139
a((lp4140
V1
p4141
aV0
p4142
ag6
(g10
S'\x01\x00\x00\x00'
p4143
tp4144
Rp4145
tp4146
a((lp4147
V0
p4148
aV4
p4149
ag6
(g10
S'\x01\x00\x00\x00'
p4150
tp4151
Rp4152
tp4153
a((lp4154
V1
p4155
aV1
p4156
ag6
(g10
S'\xff\xff\xff\xff'
p4157
tp4158
Rp4159
tp4160
a((lp4161
V0
p4162
aV1
p4163
ag6
(g10
S'\x01\x00\x00\x00'
p4164
tp4165
Rp4166
tp4167
a((lp4168
V1
p4169
aV2
p4170
ag6
(g10
S'\x01\x00\x00\x00'
p4171
tp4172
Rp4173
tp4174
a((lp4175
V0
p4176
aV1
p4177
ag6
(g10
S'\x01\x00\x00\x00'
p4178
tp4179
Rp4180
tp4181
a((lp4182
V2
p4183
aV1
p4184
ag6
(g10
S'\x01\x00\x00\x00'
p4185
tp4186
Rp4187
tp4188
a((lp4189
V3
p4190
aV2
p4191
ag6
(g10
S'\xff\xff\xff\xff'
p4192
tp4193
Rp4194
tp4195
a((lp4196
V0
p4197
aV0
p4198
ag6
(g10
S'\x01\x00\x00\x00'
p4199
tp4200
Rp4201
tp4202
a((lp4203
V2
p4204
aV3
p4205
ag6
(g10
S'\x01\x00\x00\x00'
p4206
tp4207
Rp4208
tp4209
a((lp4210
V0
p4211
aV0
p4212
ag6
(g10
S'\x01\x00\x00\x00'
p4213
tp4214
Rp4215
tp4216
a((lp4217
V0
p4218
aV2
p4219
ag6
(g10
S'\x01\x00\x00\x00'
p4220
tp4221
Rp4222
tp4223
a((lp4224
V2
p4225
aV3
p4226
ag6
(g10
S'\x01\x00\x00\x00'
p4227
tp4228
Rp4229
tp4230
a((lp4231
V2
p4232
aV0
p4233
ag6
(g10
S'\x01\x00\x00\x00'
p4234
tp4235
Rp4236
tp4237
a((lp4238
V2
p4239
aV1
p4240
ag6
(g10
S'\x01\x00\x00\x00'
p4241
tp4242
Rp4243
tp4244
a((lp4245
V0
p4246
aV2
p4247
ag6
(g10
S'\x01\x00\x00\x00'
p4248
tp4249
Rp4250
tp4251
a((lp4252
V2
p4253
aV0
p4254
ag6
(g10
S'\x01\x00\x00\x00'
p4255
tp4256
Rp4257
tp4258
a((lp4259
V1
p4260
aV1
p4261
ag6
(g10
S'\x01\x00\x00\x00'
p4262
tp4263
Rp4264
tp4265
a((lp4266
V0
p4267
aV0
p4268
ag6
(g10
S'\x01\x00\x00\x00'
p4269
tp4270
Rp4271
tp4272
a((lp4273
V1
p4274
aV3
p4275
ag6
(g10
S'\x01\x00\x00\x00'
p4276
tp4277
Rp4278
tp4279
a((lp4280
V2
p4281
aV1
p4282
ag6
(g10
S'\x01\x00\x00\x00'
p4283
tp4284
Rp4285
tp4286
a((lp4287
V0
p4288
aV2
p4289
ag6
(g10
S'\x01\x00\x00\x00'
p4290
tp4291
Rp4292
tp4293
a((lp4294
V3
p4295
aV0
p4296
ag6
(g10
S'\x01\x00\x00\x00'
p4297
tp4298
Rp4299
tp4300
a((lp4301
V2
p4302
aV1
p4303
ag6
(g10
S'\x01\x00\x00\x00'
p4304
tp4305
Rp4306
tp4307
a((lp4308
V0
p4309
aV3
p4310
ag6
(g10
S'\x01\x00\x00\x00'
p4311
tp4312
Rp4313
tp4314
a((lp4315
V1
p4316
aV2
p4317
ag6
(g10
S'\x01\x00\x00\x00'
p4318
tp4319
Rp4320
tp4321
a((lp4322
V0
p4323
aV2
p4324
ag6
(g10
S'\x01\x00\x00\x00'
p4325
tp4326
Rp4327
tp4328
a((lp4329
V2
p4330
aV2
p4331
ag6
(g10
S'\x01\x00\x00\x00'
p4332
tp4333
Rp4334
tp4335
a((lp4336
V3
p4337
aV0
p4338
ag6
(g10
S'\x01\x00\x00\x00'
p4339
tp4340
Rp4341
tp4342
a((lp4343
V1
p4344
aV2
p4345
ag6
(g10
S'\x01\x00\x00\x00'
p4346
tp4347
Rp4348
tp4349
a((lp4350
V1
p4351
aV0
p4352
ag6
(g10
S'\x01\x00\x00\x00'
p4353
tp4354
Rp4355
tp4356
a((lp4357
V3
p4358
aV0
p4359
ag6
(g10
S'\x01\x00\x00\x00'
p4360
tp4361
Rp4362
tp4363
a((lp4364
V4
p4365
aV0
p4366
ag6
(g10
S'\x01\x00\x00\x00'
p4367
tp4368
Rp4369
tp4370
a((lp4371
V0
p4372
aV2
p4373
ag6
(g10
S'\xff\xff\xff\xff'
p4374
tp4375
Rp4376
tp4377
a((lp4378
V1
p4379
aV1
p4380
ag6
(g10
S'\x01\x00\x00\x00'
p4381
tp4382
Rp4383
tp4384
a((lp4385
V2
p4386
aV0
p4387
ag6
(g10
S'\x01\x00\x00\x00'
p4388
tp4389
Rp4390
tp4391
a((lp4392
V1
p4393
aV1
p4394
ag6
(g10
S'\x01\x00\x00\x00'
p4395
tp4396
Rp4397
tp4398
a((lp4399
V0
p4400
aV0
p4401
ag6
(g10
S'\x01\x00\x00\x00'
p4402
tp4403
Rp4404
tp4405
a((lp4406
V1
p4407
aV0
p4408
ag6
(g10
S'\x01\x00\x00\x00'
p4409
tp4410
Rp4411
tp4412
a((lp4413
V3
p4414
aV1
p4415
ag6
(g10
S'\x01\x00\x00\x00'
p4416
tp4417
Rp4418
tp4419
a((lp4420
V0
p4421
aV0
p4422
ag6
(g10
S'\x01\x00\x00\x00'
p4423
tp4424
Rp4425
tp4426
a((lp4427
V0
p4428
aV0
p4429
ag6
(g10
S'\x01\x00\x00\x00'
p4430
tp4431
Rp4432
tp4433
a((lp4434
V0
p4435
aV1
p4436
ag6
(g10
S'\x01\x00\x00\x00'
p4437
tp4438
Rp4439
tp4440
a((lp4441
V3
p4442
aV1
p4443
ag6
(g10
S'\x01\x00\x00\x00'
p4444
tp4445
Rp4446
tp4447
a((lp4448
V2
p4449
aV0
p4450
ag6
(g10
S'\x01\x00\x00\x00'
p4451
tp4452
Rp4453
tp4454
a((lp4455
V0
p4456
aV1
p4457
ag6
(g10
S'\x01\x00\x00\x00'
p4458
tp4459
Rp4460
tp4461
a((lp4462
V2
p4463
aV2
p4464
ag6
(g10
S'\x01\x00\x00\x00'
p4465
tp4466
Rp4467
tp4468
a((lp4469
V1
p4470
aV0
p4471
ag6
(g10
S'\xff\xff\xff\xff'
p4472
tp4473
Rp4474
tp4475
a((lp4476
V2
p4477
aV0
p4478
ag6
(g10
S'\xff\xff\xff\xff'
p4479
tp4480
Rp4481
tp4482
a((lp4483
V1
p4484
aV2
p4485
ag6
(g10
S'\xff\xff\xff\xff'
p4486
tp4487
Rp4488
tp4489
a((lp4490
V0
p4491
aV0
p4492
ag6
(g10
S'\x01\x00\x00\x00'
p4493
tp4494
Rp4495
tp4496
a((lp4497
V0
p4498
aV1
p4499
ag6
(g10
S'\x01\x00\x00\x00'
p4500
tp4501
Rp4502
tp4503
a((lp4504
V2
p4505
aV0
p4506
ag6
(g10
S'\x01\x00\x00\x00'
p4507
tp4508
Rp4509
tp4510
a((lp4511
V0
p4512
aV2
p4513
ag6
(g10
S'\x01\x00\x00\x00'
p4514
tp4515
Rp4516
tp4517
a((lp4518
V0
p4519
aV0
p4520
ag6
(g10
S'\x01\x00\x00\x00'
p4521
tp4522
Rp4523
tp4524
a((lp4525
V2
p4526
aV0
p4527
ag6
(g10
S'\x01\x00\x00\x00'
p4528
tp4529
Rp4530
tp4531
a((lp4532
V0
p4533
aV2
p4534
ag6
(g10
S'\x01\x00\x00\x00'
p4535
tp4536
Rp4537
tp4538
a((lp4539
V1
p4540
aV0
p4541
ag6
(g10
S'\x01\x00\x00\x00'
p4542
tp4543
Rp4544
tp4545
a((lp4546
V4
p4547
aV1
p4548
ag6
(g10
S'\x01\x00\x00\x00'
p4549
tp4550
Rp4551
tp4552
a((lp4553
V1
p4554
aV1
p4555
ag6
(g10
S'\x01\x00\x00\x00'
p4556
tp4557
Rp4558
tp4559
a((lp4560
V0
p4561
aV3
p4562
ag6
(g10
S'\x01\x00\x00\x00'
p4563
tp4564
Rp4565
tp4566
a((lp4567
V1
p4568
aV0
p4569
ag6
(g10
S'\x01\x00\x00\x00'
p4570
tp4571
Rp4572
tp4573
a((lp4574
V4
p4575
aV1
p4576
ag6
(g10
S'\x01\x00\x00\x00'
p4577
tp4578
Rp4579
tp4580
a((lp4581
V2
p4582
aV1
p4583
ag6
(g10
S'\x01\x00\x00\x00'
p4584
tp4585
Rp4586
tp4587
a((lp4588
V5
p4589
aV2
p4590
ag6
(g10
S'\x01\x00\x00\x00'
p4591
tp4592
Rp4593
tp4594
a((lp4595
V3
p4596
aV1
p4597
ag6
(g10
S'\x01\x00\x00\x00'
p4598
tp4599
Rp4600
tp4601
a((lp4602
V3
p4603
aV0
p4604
ag6
(g10
S'\x01\x00\x00\x00'
p4605
tp4606
Rp4607
tp4608
a((lp4609
V4
p4610
aV0
p4611
ag6
(g10
S'\x01\x00\x00\x00'
p4612
tp4613
Rp4614
tp4615
a((lp4616
V2
p4617
aV2
p4618
ag6
(g10
S'\x01\x00\x00\x00'
p4619
tp4620
Rp4621
tp4622
a((lp4623
V4
p4624
aV0
p4625
ag6
(g10
S'\x01\x00\x00\x00'
p4626
tp4627
Rp4628
tp4629
a((lp4630
V4
p4631
aV0
p4632
ag6
(g10
S'\x01\x00\x00\x00'
p4633
tp4634
Rp4635
tp4636
a((lp4637
V6
p4638
aV0
p4639
ag6
(g10
S'\x01\x00\x00\x00'
p4640
tp4641
Rp4642
tp4643
a((lp4644
V1
p4645
aV3
p4646
ag6
(g10
S'\x01\x00\x00\x00'
p4647
tp4648
Rp4649
tp4650
a((lp4651
V1
p4652
aV3
p4653
ag6
(g10
S'\x01\x00\x00\x00'
p4654
tp4655
Rp4656
tp4657
a((lp4658
V0
p4659
aV3
p4660
ag6
(g10
S'\xff\xff\xff\xff'
p4661
tp4662
Rp4663
tp4664
a((lp4665
V1
p4666
aV1
p4667
ag6
(g10
S'\x01\x00\x00\x00'
p4668
tp4669
Rp4670
tp4671
a((lp4672
V1
p4673
aV1
p4674
ag6
(g10
S'\x01\x00\x00\x00'
p4675
tp4676
Rp4677
tp4678
a((lp4679
V2
p4680
aV0
p4681
ag6
(g10
S'\xff\xff\xff\xff'
p4682
tp4683
Rp4684
tp4685
a((lp4686
V0
p4687
aV2
p4688
ag6
(g10
S'\xff\xff\xff\xff'
p4689
tp4690
Rp4691
tp4692
a((lp4693
V0
p4694
aV2
p4695
ag6
(g10
S'\xff\xff\xff\xff'
p4696
tp4697
Rp4698
tp4699
a((lp4700
V2
p4701
aV1
p4702
ag6
(g10
S'\x01\x00\x00\x00'
p4703
tp4704
Rp4705
tp4706
a((lp4707
V3
p4708
aV2
p4709
ag6
(g10
S'\x01\x00\x00\x00'
p4710
tp4711
Rp4712
tp4713
a((lp4714
V0
p4715
aV0
p4716
ag6
(g10
S'\x01\x00\x00\x00'
p4717
tp4718
Rp4719
tp4720
a((lp4721
V2
p4722
aV3
p4723
ag6
(g10
S'\x01\x00\x00\x00'
p4724
tp4725
Rp4726
tp4727
a((lp4728
V3
p4729
aV0
p4730
ag6
(g10
S'\x01\x00\x00\x00'
p4731
tp4732
Rp4733
tp4734
a((lp4735
V2
p4736
aV2
p4737
ag6
(g10
S'\x01\x00\x00\x00'
p4738
tp4739
Rp4740
tp4741
a((lp4742
V1
p4743
aV1
p4744
ag6
(g10
S'\x01\x00\x00\x00'
p4745
tp4746
Rp4747
tp4748
a((lp4749
V2
p4750
aV0
p4751
ag6
(g10
S'\xff\xff\xff\xff'
p4752
tp4753
Rp4754
tp4755
a((lp4756
V1
p4757
aV1
p4758
ag6
(g10
S'\x01\x00\x00\x00'
p4759
tp4760
Rp4761
tp4762
a((lp4763
V2
p4764
aV0
p4765
ag6
(g10
S'\x01\x00\x00\x00'
p4766
tp4767
Rp4768
tp4769
a((lp4770
V1
p4771
aV2
p4772
ag6
(g10
S'\x01\x00\x00\x00'
p4773
tp4774
Rp4775
tp4776
a((lp4777
V1
p4778
aV1
p4779
ag6
(g10
S'\x01\x00\x00\x00'
p4780
tp4781
Rp4782
tp4783
a((lp4784
V2
p4785
aV0
p4786
ag6
(g10
S'\x01\x00\x00\x00'
p4787
tp4788
Rp4789
tp4790
a((lp4791
V0
p4792
aV2
p4793
ag6
(g10
S'\xff\xff\xff\xff'
p4794
tp4795
Rp4796
tp4797
a((lp4798
V1
p4799
aV1
p4800
ag6
(g10
S'\xff\xff\xff\xff'
p4801
tp4802
Rp4803
tp4804
a((lp4805
V1
p4806
aV1
p4807
ag6
(g10
S'\x01\x00\x00\x00'
p4808
tp4809
Rp4810
tp4811
a((lp4812
V1
p4813
aV0
p4814
ag6
(g10
S'\x01\x00\x00\x00'
p4815
tp4816
Rp4817
tp4818
a((lp4819
V3
p4820
aV1
p4821
ag6
(g10
S'\x01\x00\x00\x00'
p4822
tp4823
Rp4824
tp4825
a((lp4826
V0
p4827
aV2
p4828
ag6
(g10
S'\xff\xff\xff\xff'
p4829
tp4830
Rp4831
tp4832
a((lp4833
V1
p4834
aV1
p4835
ag6
(g10
S'\x01\x00\x00\x00'
p4836
tp4837
Rp4838
tp4839
a((lp4840
V2
p4841
aV0
p4842
ag6
(g10
S'\x01\x00\x00\x00'
p4843
tp4844
Rp4845
tp4846
a((lp4847
V2
p4848
aV1
p4849
ag6
(g10
S'\x01\x00\x00\x00'
p4850
tp4851
Rp4852
tp4853
a((lp4854
V5
p4855
aV1
p4856
ag6
(g10
S'\x01\x00\x00\x00'
p4857
tp4858
Rp4859
tp4860
a((lp4861
V3
p4862
aV0
p4863
ag6
(g10
S'\x01\x00\x00\x00'
p4864
tp4865
Rp4866
tp4867
a((lp4868
V3
p4869
aV3
p4870
ag6
(g10
S'\x01\x00\x00\x00'
p4871
tp4872
Rp4873
tp4874
a((lp4875
V4
p4876
aV1
p4877
ag6
(g10
S'\xff\xff\xff\xff'
p4878
tp4879
Rp4880
tp4881
a((lp4882
V0
p4883
aV0
p4884
ag6
(g10
S'\x01\x00\x00\x00'
p4885
tp4886
Rp4887
tp4888
a((lp4889
V1
p4890
aV3
p4891
ag6
(g10
S'\xff\xff\xff\xff'
p4892
tp4893
Rp4894
tp4895
a((lp4896
V1
p4897
aV5
p4898
ag6
(g10
S'\x01\x00\x00\x00'
p4899
tp4900
Rp4901
tp4902
a((lp4903
V2
p4904
aV1
p4905
ag6
(g10
S'\x01\x00\x00\x00'
p4906
tp4907
Rp4908
tp4909
a((lp4910
V1
p4911
aV0
p4912
ag6
(g10
S'\x01\x00\x00\x00'
p4913
tp4914
Rp4915
tp4916
a((lp4917
V0
p4918
aV1
p4919
ag6
(g10
S'\x01\x00\x00\x00'
p4920
tp4921
Rp4922
tp4923
a((lp4924
V0
p4925
aV2
p4926
ag6
(g10
S'\x01\x00\x00\x00'
p4927
tp4928
Rp4929
tp4930
a((lp4931
V4
p4932
aV3
p4933
ag6
(g10
S'\x01\x00\x00\x00'
p4934
tp4935
Rp4936
tp4937
a((lp4938
V0
p4939
aV3
p4940
ag6
(g10
S'\xff\xff\xff\xff'
p4941
tp4942
Rp4943
tp4944
a((lp4945
V1
p4946
aV2
p4947
ag6
(g10
S'\x01\x00\x00\x00'
p4948
tp4949
Rp4950
tp4951
a((lp4952
V3
p4953
aV2
p4954
ag6
(g10
S'\x01\x00\x00\x00'
p4955
tp4956
Rp4957
tp4958
a((lp4959
V2
p4960
aV1
p4961
ag6
(g10
S'\xff\xff\xff\xff'
p4962
tp4963
Rp4964
tp4965
a((lp4966
V5
p4967
aV0
p4968
ag6
(g10
S'\x01\x00\x00\x00'
p4969
tp4970
Rp4971
tp4972
a((lp4973
V3
p4974
aV2
p4975
ag6
(g10
S'\xff\xff\xff\xff'
p4976
tp4977
Rp4978
tp4979
a((lp4980
V1
p4981
aV0
p4982
ag6
(g10
S'\x01\x00\x00\x00'
p4983
tp4984
Rp4985
tp4986
a((lp4987
V2
p4988
aV0
p4989
ag6
(g10
S'\x01\x00\x00\x00'
p4990
tp4991
Rp4992
tp4993
a((lp4994
V2
p4995
aV0
p4996
ag6
(g10
S'\x01\x00\x00\x00'
p4997
tp4998
Rp4999
tp5000
a((lp5001
V2
p5002
aV0
p5003
ag6
(g10
S'\x01\x00\x00\x00'
p5004
tp5005
Rp5006
tp5007
a((lp5008
V2
p5009
aV1
p5010
ag6
(g10
S'\x01\x00\x00\x00'
p5011
tp5012
Rp5013
tp5014
a((lp5015
V1
p5016
aV2
p5017
ag6
(g10
S'\x01\x00\x00\x00'
p5018
tp5019
Rp5020
tp5021
a((lp5022
V2
p5023
aV0
p5024
ag6
(g10
S'\x01\x00\x00\x00'
p5025
tp5026
Rp5027
tp5028
a((lp5029
V1
p5030
aV1
p5031
ag6
(g10
S'\xff\xff\xff\xff'
p5032
tp5033
Rp5034
tp5035
a((lp5036
V2
p5037
aV1
p5038
ag6
(g10
S'\x01\x00\x00\x00'
p5039
tp5040
Rp5041
tp5042
a((lp5043
V1
p5044
aV0
p5045
ag6
(g10
S'\x01\x00\x00\x00'
p5046
tp5047
Rp5048
tp5049
a((lp5050
V1
p5051
aV0
p5052
ag6
(g10
S'\x01\x00\x00\x00'
p5053
tp5054
Rp5055
tp5056
a((lp5057
V2
p5058
aV1
p5059
ag6
(g10
S'\x01\x00\x00\x00'
p5060
tp5061
Rp5062
tp5063
a((lp5064
V1
p5065
aV0
p5066
ag6
(g10
S'\x01\x00\x00\x00'
p5067
tp5068
Rp5069
tp5070
a((lp5071
V0
p5072
aV0
p5073
ag6
(g10
S'\x01\x00\x00\x00'
p5074
tp5075
Rp5076
tp5077
a((lp5078
V1
p5079
aV0
p5080
ag6
(g10
S'\xff\xff\xff\xff'
p5081
tp5082
Rp5083
tp5084
a((lp5085
V1
p5086
aV2
p5087
ag6
(g10
S'\xff\xff\xff\xff'
p5088
tp5089
Rp5090
tp5091
a((lp5092
V1
p5093
aV3
p5094
ag6
(g10
S'\x01\x00\x00\x00'
p5095
tp5096
Rp5097
tp5098
a((lp5099
V1
p5100
aV3
p5101
ag6
(g10
S'\x01\x00\x00\x00'
p5102
tp5103
Rp5104
tp5105
a((lp5106
V0
p5107
aV1
p5108
ag6
(g10
S'\xff\xff\xff\xff'
p5109
tp5110
Rp5111
tp5112
a((lp5113
V1
p5114
aV1
p5115
ag6
(g10
S'\xff\xff\xff\xff'
p5116
tp5117
Rp5118
tp5119
a((lp5120
V0
p5121
aV0
p5122
ag6
(g10
S'\x01\x00\x00\x00'
p5123
tp5124
Rp5125
tp5126
a((lp5127
V0
p5128
aV4
p5129
ag6
(g10
S'\x01\x00\x00\x00'
p5130
tp5131
Rp5132
tp5133
a((lp5134
V1
p5135
aV1
p5136
ag6
(g10
S'\xff\xff\xff\xff'
p5137
tp5138
Rp5139
tp5140
a((lp5141
V0
p5142
aV1
p5143
ag6
(g10
S'\xff\xff\xff\xff'
p5144
tp5145
Rp5146
tp5147
a((lp5148
V3
p5149
aV1
p5150
ag6
(g10
S'\x01\x00\x00\x00'
p5151
tp5152
Rp5153
tp5154
a((lp5155
V1
p5156
aV2
p5157
ag6
(g10
S'\xff\xff\xff\xff'
p5158
tp5159
Rp5160
tp5161
a((lp5162
V3
p5163
aV1
p5164
ag6
(g10
S'\x01\x00\x00\x00'
p5165
tp5166
Rp5167
tp5168
a((lp5169
V3
p5170
aV0
p5171
ag6
(g10
S'\x01\x00\x00\x00'
p5172
tp5173
Rp5174
tp5175
a((lp5176
V2
p5177
aV1
p5178
ag6
(g10
S'\x01\x00\x00\x00'
p5179
tp5180
Rp5181
tp5182
a((lp5183
V0
p5184
aV0
p5185
ag6
(g10
S'\x01\x00\x00\x00'
p5186
tp5187
Rp5188
tp5189
a((lp5190
V2
p5191
aV0
p5192
ag6
(g10
S'\x01\x00\x00\x00'
p5193
tp5194
Rp5195
tp5196
a((lp5197
V2
p5198
aV2
p5199
ag6
(g10
S'\x01\x00\x00\x00'
p5200
tp5201
Rp5202
tp5203
a((lp5204
V5
p5205
aV2
p5206
ag6
(g10
S'\x01\x00\x00\x00'
p5207
tp5208
Rp5209
tp5210
a((lp5211
V1
p5212
aV0
p5213
ag6
(g10
S'\x01\x00\x00\x00'
p5214
tp5215
Rp5216
tp5217
a((lp5218
V0
p5219
aV6
p5220
ag6
(g10
S'\xff\xff\xff\xff'
p5221
tp5222
Rp5223
tp5224
a((lp5225
V1
p5226
aV0
p5227
ag6
(g10
S'\x01\x00\x00\x00'
p5228
tp5229
Rp5230
tp5231
a((lp5232
V1
p5233
aV2
p5234
ag6
(g10
S'\x01\x00\x00\x00'
p5235
tp5236
Rp5237
tp5238
a((lp5239
V1
p5240
aV1
p5241
ag6
(g10
S'\x01\x00\x00\x00'
p5242
tp5243
Rp5244
tp5245
a((lp5246
V2
p5247
aV0
p5248
ag6
(g10
S'\x01\x00\x00\x00'
p5249
tp5250
Rp5251
tp5252
a((lp5253
V1
p5254
aV1
p5255
ag6
(g10
S'\x01\x00\x00\x00'
p5256
tp5257
Rp5258
tp5259
a((lp5260
V1
p5261
aV0
p5262
ag6
(g10
S'\xff\xff\xff\xff'
p5263
tp5264
Rp5265
tp5266
a((lp5267
V0
p5268
aV0
p5269
ag6
(g10
S'\xff\xff\xff\xff'
p5270
tp5271
Rp5272
tp5273
a((lp5274
V2
p5275
aV2
p5276
ag6
(g10
S'\x01\x00\x00\x00'
p5277
tp5278
Rp5279
tp5280
a((lp5281
V0
p5282
aV3
p5283
ag6
(g10
S'\xff\xff\xff\xff'
p5284
tp5285
Rp5286
tp5287
a((lp5288
V2
p5289
aV1
p5290
ag6
(g10
S'\xff\xff\xff\xff'
p5291
tp5292
Rp5293
tp5294
a((lp5295
V0
p5296
aV1
p5297
ag6
(g10
S'\x01\x00\x00\x00'
p5298
tp5299
Rp5300
tp5301
a((lp5302
V0
p5303
aV3
p5304
ag6
(g10
S'\x01\x00\x00\x00'
p5305
tp5306
Rp5307
tp5308
a((lp5309
V0
p5310
aV1
p5311
ag6
(g10
S'\xff\xff\xff\xff'
p5312
tp5313
Rp5314
tp5315
a((lp5316
V1
p5317
aV3
p5318
ag6
(g10
S'\xff\xff\xff\xff'
p5319
tp5320
Rp5321
tp5322
a((lp5323
V1
p5324
aV3
p5325
ag6
(g10
S'\x01\x00\x00\x00'
p5326
tp5327
Rp5328
tp5329
a((lp5330
V1
p5331
aV1
p5332
ag6
(g10
S'\xff\xff\xff\xff'
p5333
tp5334
Rp5335
tp5336
a((lp5337
V3
p5338
aV3
p5339
ag6
(g10
S'\xff\xff\xff\xff'
p5340
tp5341
Rp5342
tp5343
a((lp5344
V1
p5345
aV1
p5346
ag6
(g10
S'\x01\x00\x00\x00'
p5347
tp5348
Rp5349
tp5350
a((lp5351
V2
p5352
aV2
p5353
ag6
(g10
S'\x01\x00\x00\x00'
p5354
tp5355
Rp5356
tp5357
a((lp5358
V4
p5359
aV1
p5360
ag6
(g10
S'\x01\x00\x00\x00'
p5361
tp5362
Rp5363
tp5364
a((lp5365
V3
p5366
aV0
p5367
ag6
(g10
S'\x01\x00\x00\x00'
p5368
tp5369
Rp5370
tp5371
a((lp5372
V3
p5373
aV1
p5374
ag6
(g10
S'\x01\x00\x00\x00'
p5375
tp5376
Rp5377
tp5378
a((lp5379
V0
p5380
aV3
p5381
ag6
(g10
S'\xff\xff\xff\xff'
p5382
tp5383
Rp5384
tp5385
a((lp5386
V0
p5387
aV2
p5388
ag6
(g10
S'\xff\xff\xff\xff'
p5389
tp5390
Rp5391
tp5392
a((lp5393
V1
p5394
aV3
p5395
ag6
(g10
S'\x01\x00\x00\x00'
p5396
tp5397
Rp5398
tp5399
a((lp5400
V2
p5401
aV0
p5402
ag6
(g10
S'\xff\xff\xff\xff'
p5403
tp5404
Rp5405
tp5406
a((lp5407
V2
p5408
aV1
p5409
ag6
(g10
S'\x01\x00\x00\x00'
p5410
tp5411
Rp5412
tp5413
a((lp5414
V0
p5415
aV0
p5416
ag6
(g10
S'\x01\x00\x00\x00'
p5417
tp5418
Rp5419
tp5420
a((lp5421
V1
p5422
aV0
p5423
ag6
(g10
S'\xff\xff\xff\xff'
p5424
tp5425
Rp5426
tp5427
a((lp5428
V2
p5429
aV1
p5430
ag6
(g10
S'\x01\x00\x00\x00'
p5431
tp5432
Rp5433
tp5434
a((lp5435
V3
p5436
aV1
p5437
ag6
(g10
S'\x01\x00\x00\x00'
p5438
tp5439
Rp5440
tp5441
a((lp5442
V0
p5443
aV0
p5444
ag6
(g10
S'\x01\x00\x00\x00'
p5445
tp5446
Rp5447
tp5448
a((lp5449
V0
p5450
aV4
p5451
ag6
(g10
S'\xff\xff\xff\xff'
p5452
tp5453
Rp5454
tp5455
a((lp5456
V0
p5457
aV0
p5458
ag6
(g10
S'\x01\x00\x00\x00'
p5459
tp5460
Rp5461
tp5462
a((lp5463
V0
p5464
aV1
p5465
ag6
(g10
S'\xff\xff\xff\xff'
p5466
tp5467
Rp5468
tp5469
a((lp5470
V2
p5471
aV0
p5472
ag6
(g10
S'\x01\x00\x00\x00'
p5473
tp5474
Rp5475
tp5476
a((lp5477
V0
p5478
aV1
p5479
ag6
(g10
S'\x01\x00\x00\x00'
p5480
tp5481
Rp5482
tp5483
a((lp5484
V3
p5485
aV1
p5486
ag6
(g10
S'\x01\x00\x00\x00'
p5487
tp5488
Rp5489
tp5490
a((lp5491
V1
p5492
aV1
p5493
ag6
(g10
S'\x01\x00\x00\x00'
p5494
tp5495
Rp5496
tp5497
a((lp5498
V0
p5499
aV1
p5500
ag6
(g10
S'\xff\xff\xff\xff'
p5501
tp5502
Rp5503
tp5504
a((lp5505
V1
p5506
aV0
p5507
ag6
(g10
S'\x01\x00\x00\x00'
p5508
tp5509
Rp5510
tp5511
a((lp5512
V2
p5513
aV1
p5514
ag6
(g10
S'\x01\x00\x00\x00'
p5515
tp5516
Rp5517
tp5518
a((lp5519
V2
p5520
aV0
p5521
ag6
(g10
S'\x01\x00\x00\x00'
p5522
tp5523
Rp5524
tp5525
a((lp5526
V1
p5527
aV1
p5528
ag6
(g10
S'\x01\x00\x00\x00'
p5529
tp5530
Rp5531
tp5532
a((lp5533
V1
p5534
aV1
p5535
ag6
(g10
S'\x01\x00\x00\x00'
p5536
tp5537
Rp5538
tp5539
a((lp5540
V2
p5541
aV1
p5542
ag6
(g10
S'\x01\x00\x00\x00'
p5543
tp5544
Rp5545
tp5546
a((lp5547
V2
p5548
aV0
p5549
ag6
(g10
S'\x01\x00\x00\x00'
p5550
tp5551
Rp5552
tp5553
a((lp5554
V3
p5555
aV0
p5556
ag6
(g10
S'\x01\x00\x00\x00'
p5557
tp5558
Rp5559
tp5560
a((lp5561
V1
p5562
aV4
p5563
ag6
(g10
S'\x01\x00\x00\x00'
p5564
tp5565
Rp5566
tp5567
a((lp5568
V1
p5569
aV0
p5570
ag6
(g10
S'\x01\x00\x00\x00'
p5571
tp5572
Rp5573
tp5574
a((lp5575
V2
p5576
aV1
p5577
ag6
(g10
S'\x01\x00\x00\x00'
p5578
tp5579
Rp5580
tp5581
a((lp5582
V2
p5583
aV0
p5584
ag6
(g10
S'\x01\x00\x00\x00'
p5585
tp5586
Rp5587
tp5588
a((lp5589
V0
p5590
aV0
p5591
ag6
(g10
S'\x01\x00\x00\x00'
p5592
tp5593
Rp5594
tp5595
a((lp5596
V0
p5597
aV0
p5598
ag6
(g10
S'\xff\xff\xff\xff'
p5599
tp5600
Rp5601
tp5602
a((lp5603
V1
p5604
aV1
p5605
ag6
(g10
S'\x01\x00\x00\x00'
p5606
tp5607
Rp5608
tp5609
a((lp5610
V2
p5611
aV0
p5612
ag6
(g10
S'\x01\x00\x00\x00'
p5613
tp5614
Rp5615
tp5616
a((lp5617
V1
p5618
aV3
p5619
ag6
(g10
S'\x01\x00\x00\x00'
p5620
tp5621
Rp5622
tp5623
a((lp5624
V1
p5625
aV4
p5626
ag6
(g10
S'\x01\x00\x00\x00'
p5627
tp5628
Rp5629
tp5630
a((lp5631
V0
p5632
aV1
p5633
ag6
(g10
S'\x01\x00\x00\x00'
p5634
tp5635
Rp5636
tp5637
a((lp5638
V1
p5639
aV3
p5640
ag6
(g10
S'\x01\x00\x00\x00'
p5641
tp5642
Rp5643
tp5644
a((lp5645
V1
p5646
aV0
p5647
ag6
(g10
S'\x01\x00\x00\x00'
p5648
tp5649
Rp5650
tp5651
a((lp5652
V2
p5653
aV0
p5654
ag6
(g10
S'\x01\x00\x00\x00'
p5655
tp5656
Rp5657
tp5658
a((lp5659
V0
p5660
aV4
p5661
ag6
(g10
S'\x01\x00\x00\x00'
p5662
tp5663
Rp5664
tp5665
a((lp5666
V1
p5667
aV1
p5668
ag6
(g10
S'\x01\x00\x00\x00'
p5669
tp5670
Rp5671
tp5672
a((lp5673
V3
p5674
aV1
p5675
ag6
(g10
S'\xff\xff\xff\xff'
p5676
tp5677
Rp5678
tp5679
a((lp5680
V2
p5681
aV1
p5682
ag6
(g10
S'\x01\x00\x00\x00'
p5683
tp5684
Rp5685
tp5686
a((lp5687
V2
p5688
aV0
p5689
ag6
(g10
S'\x01\x00\x00\x00'
p5690
tp5691
Rp5692
tp5693
a((lp5694
V1
p5695
aV2
p5696
ag6
(g10
S'\x01\x00\x00\x00'
p5697
tp5698
Rp5699
tp5700
a((lp5701
V5
p5702
aV1
p5703
ag6
(g10
S'\x01\x00\x00\x00'
p5704
tp5705
Rp5706
tp5707
a((lp5708
V1
p5709
aV1
p5710
ag6
(g10
S'\x01\x00\x00\x00'
p5711
tp5712
Rp5713
tp5714
a((lp5715
V6
p5716
aV2
p5717
ag6
(g10
S'\x01\x00\x00\x00'
p5718
tp5719
Rp5720
tp5721
a((lp5722
V1
p5723
aV1
p5724
ag6
(g10
S'\x01\x00\x00\x00'
p5725
tp5726
Rp5727
tp5728
a((lp5729
V1
p5730
aV5
p5731
ag6
(g10
S'\xff\xff\xff\xff'
p5732
tp5733
Rp5734
tp5735
a((lp5736
V0
p5737
aV0
p5738
ag6
(g10
S'\xff\xff\xff\xff'
p5739
tp5740
Rp5741
tp5742
a((lp5743
V1
p5744
aV3
p5745
ag6
(g10
S'\x01\x00\x00\x00'
p5746
tp5747
Rp5748
tp5749
a((lp5750
V0
p5751
aV1
p5752
ag6
(g10
S'\x01\x00\x00\x00'
p5753
tp5754
Rp5755
tp5756
a((lp5757
V2
p5758
aV1
p5759
ag6
(g10
S'\x01\x00\x00\x00'
p5760
tp5761
Rp5762
tp5763
a((lp5764
V3
p5765
aV2
p5766
ag6
(g10
S'\xff\xff\xff\xff'
p5767
tp5768
Rp5769
tp5770
a((lp5771
V2
p5772
aV4
p5773
ag6
(g10
S'\x01\x00\x00\x00'
p5774
tp5775
Rp5776
tp5777
a((lp5778
V0
p5779
aV0
p5780
ag6
(g10
S'\x01\x00\x00\x00'
p5781
tp5782
Rp5783
tp5784
a((lp5785
V0
p5786
aV0
p5787
ag6
(g10
S'\x01\x00\x00\x00'
p5788
tp5789
Rp5790
tp5791
a((lp5792
V1
p5793
aV1
p5794
ag6
(g10
S'\x01\x00\x00\x00'
p5795
tp5796
Rp5797
tp5798
a((lp5799
V1
p5800
aV2
p5801
ag6
(g10
S'\xff\xff\xff\xff'
p5802
tp5803
Rp5804
tp5805
a((lp5806
V1
p5807
aV3
p5808
ag6
(g10
S'\x01\x00\x00\x00'
p5809
tp5810
Rp5811
tp5812
a((lp5813
V1
p5814
aV1
p5815
ag6
(g10
S'\xff\xff\xff\xff'
p5816
tp5817
Rp5818
tp5819
a((lp5820
V2
p5821
aV2
p5822
ag6
(g10
S'\x01\x00\x00\x00'
p5823
tp5824
Rp5825
tp5826
a((lp5827
V0
p5828
aV1
p5829
ag6
(g10
S'\x01\x00\x00\x00'
p5830
tp5831
Rp5832
tp5833
a((lp5834
V0
p5835
aV0
p5836
ag6
(g10
S'\x01\x00\x00\x00'
p5837
tp5838
Rp5839
tp5840
a((lp5841
V3
p5842
aV3
p5843
ag6
(g10
S'\xff\xff\xff\xff'
p5844
tp5845
Rp5846
tp5847
a((lp5848
V1
p5849
aV0
p5850
ag6
(g10
S'\x01\x00\x00\x00'
p5851
tp5852
Rp5853
tp5854
a((lp5855
V1
p5856
aV1
p5857
ag6
(g10
S'\xff\xff\xff\xff'
p5858
tp5859
Rp5860
tp5861
a((lp5862
V0
p5863
aV2
p5864
ag6
(g10
S'\x01\x00\x00\x00'
p5865
tp5866
Rp5867
tp5868
a((lp5869
V3
p5870
aV2
p5871
ag6
(g10
S'\x01\x00\x00\x00'
p5872
tp5873
Rp5874
tp5875
a((lp5876
V2
p5877
aV1
p5878
ag6
(g10
S'\x01\x00\x00\x00'
p5879
tp5880
Rp5881
tp5882
a((lp5883
V2
p5884
aV1
p5885
ag6
(g10
S'\x01\x00\x00\x00'
p5886
tp5887
Rp5888
tp5889
a((lp5890
V0
p5891
aV1
p5892
ag6
(g10
S'\x01\x00\x00\x00'
p5893
tp5894
Rp5895
tp5896
a((lp5897
V1
p5898
aV0
p5899
ag6
(g10
S'\x01\x00\x00\x00'
p5900
tp5901
Rp5902
tp5903
a((lp5904
V1
p5905
aV1
p5906
ag6
(g10
S'\x01\x00\x00\x00'
p5907
tp5908
Rp5909
tp5910
a((lp5911
V4
p5912
aV3
p5913
ag6
(g10
S'\x01\x00\x00\x00'
p5914
tp5915
Rp5916
tp5917
a((lp5918
V1
p5919
aV2
p5920
ag6
(g10
S'\x01\x00\x00\x00'
p5921
tp5922
Rp5923
tp5924
a((lp5925
V1
p5926
aV1
p5927
ag6
(g10
S'\x01\x00\x00\x00'
p5928
tp5929
Rp5930
tp5931
a((lp5932
V5
p5933
aV0
p5934
ag6
(g10
S'\x01\x00\x00\x00'
p5935
tp5936
Rp5937
tp5938
a((lp5939
V3
p5940
aV0
p5941
ag6
(g10
S'\x01\x00\x00\x00'
p5942
tp5943
Rp5944
tp5945
a((lp5946
V0
p5947
aV0
p5948
ag6
(g10
S'\xff\xff\xff\xff'
p5949
tp5950
Rp5951
tp5952
a((lp5953
V0
p5954
aV1
p5955
ag6
(g10
S'\xff\xff\xff\xff'
p5956
tp5957
Rp5958
tp5959
a((lp5960
V1
p5961
aV4
p5962
ag6
(g10
S'\x01\x00\x00\x00'
p5963
tp5964
Rp5965
tp5966
a((lp5967
V0
p5968
aV1
p5969
ag6
(g10
S'\xff\xff\xff\xff'
p5970
tp5971
Rp5972
tp5973
a((lp5974
V2
p5975
aV4
p5976
ag6
(g10
S'\xff\xff\xff\xff'
p5977
tp5978
Rp5979
tp5980
a((lp5981
V1
p5982
aV3
p5983
ag6
(g10
S'\x01\x00\x00\x00'
p5984
tp5985
Rp5986
tp5987
a((lp5988
V1
p5989
aV0
p5990
ag6
(g10
S'\x01\x00\x00\x00'
p5991
tp5992
Rp5993
tp5994
a((lp5995
V1
p5996
aV2
p5997
ag6
(g10
S'\x01\x00\x00\x00'
p5998
tp5999
Rp6000
tp6001
a((lp6002
V1
p6003
aV3
p6004
ag6
(g10
S'\x01\x00\x00\x00'
p6005
tp6006
Rp6007
tp6008
a((lp6009
V4
p6010
aV0
p6011
ag6
(g10
S'\x01\x00\x00\x00'
p6012
tp6013
Rp6014
tp6015
a((lp6016
V0
p6017
aV1
p6018
ag6
(g10
S'\xff\xff\xff\xff'
p6019
tp6020
Rp6021
tp6022
a((lp6023
V1
p6024
aV2
p6025
ag6
(g10
S'\x01\x00\x00\x00'
p6026
tp6027
Rp6028
tp6029
a((lp6030
V0
p6031
aV1
p6032
ag6
(g10
S'\x01\x00\x00\x00'
p6033
tp6034
Rp6035
tp6036
a((lp6037
V0
p6038
aV1
p6039
ag6
(g10
S'\x01\x00\x00\x00'
p6040
tp6041
Rp6042
tp6043
a((lp6044
V0
p6045
aV4
p6046
ag6
(g10
S'\xff\xff\xff\xff'
p6047
tp6048
Rp6049
tp6050
a((lp6051
V1
p6052
aV2
p6053
ag6
(g10
S'\x01\x00\x00\x00'
p6054
tp6055
Rp6056
tp6057
a((lp6058
V0
p6059
aV3
p6060
ag6
(g10
S'\x01\x00\x00\x00'
p6061
tp6062
Rp6063
tp6064
a((lp6065
V4
p6066
aV2
p6067
ag6
(g10
S'\x01\x00\x00\x00'
p6068
tp6069
Rp6070
tp6071
a((lp6072
V2
p6073
aV0
p6074
ag6
(g10
S'\x01\x00\x00\x00'
p6075
tp6076
Rp6077
tp6078
a((lp6079
V3
p6080
aV1
p6081
ag6
(g10
S'\x01\x00\x00\x00'
p6082
tp6083
Rp6084
tp6085
a((lp6086
V0
p6087
aV0
p6088
ag6
(g10
S'\x01\x00\x00\x00'
p6089
tp6090
Rp6091
tp6092
a((lp6093
V2
p6094
aV1
p6095
ag6
(g10
S'\x01\x00\x00\x00'
p6096
tp6097
Rp6098
tp6099
a((lp6100
V3
p6101
aV1
p6102
ag6
(g10
S'\xff\xff\xff\xff'
p6103
tp6104
Rp6105
tp6106
a((lp6107
V3
p6108
aV2
p6109
ag6
(g10
S'\x01\x00\x00\x00'
p6110
tp6111
Rp6112
tp6113
a((lp6114
V1
p6115
aV3
p6116
ag6
(g10
S'\x01\x00\x00\x00'
p6117
tp6118
Rp6119
tp6120
a((lp6121
V5
p6122
aV1
p6123
ag6
(g10
S'\x01\x00\x00\x00'
p6124
tp6125
Rp6126
tp6127
a((lp6128
V1
p6129
aV0
p6130
ag6
(g10
S'\x01\x00\x00\x00'
p6131
tp6132
Rp6133
tp6134
a((lp6135
V4
p6136
aV0
p6137
ag6
(g10
S'\x01\x00\x00\x00'
p6138
tp6139
Rp6140
tp6141
a((lp6142
V2
p6143
aV1
p6144
ag6
(g10
S'\x01\x00\x00\x00'
p6145
tp6146
Rp6147
tp6148
a((lp6149
V3
p6150
aV0
p6151
ag6
(g10
S'\x01\x00\x00\x00'
p6152
tp6153
Rp6154
tp6155
a((lp6156
V2
p6157
aV0
p6158
ag6
(g10
S'\x01\x00\x00\x00'
p6159
tp6160
Rp6161
tp6162
a((lp6163
V1
p6164
aV1
p6165
ag6
(g10
S'\x01\x00\x00\x00'
p6166
tp6167
Rp6168
tp6169
a((lp6170
V4
p6171
aV2
p6172
ag6
(g10
S'\x01\x00\x00\x00'
p6173
tp6174
Rp6175
tp6176
a((lp6177
V2
p6178
aV1
p6179
ag6
(g10
S'\x01\x00\x00\x00'
p6180
tp6181
Rp6182
tp6183
a((lp6184
V6
p6185
aV0
p6186
ag6
(g10
S'\x01\x00\x00\x00'
p6187
tp6188
Rp6189
tp6190
a((lp6191
V1
p6192
aV2
p6193
ag6
(g10
S'\x01\x00\x00\x00'
p6194
tp6195
Rp6196
tp6197
a((lp6198
V1
p6199
aV1
p6200
ag6
(g10
S'\x01\x00\x00\x00'
p6201
tp6202
Rp6203
tp6204
a((lp6205
V1
p6206
aV1
p6207
ag6
(g10
S'\x01\x00\x00\x00'
p6208
tp6209
Rp6210
tp6211
a((lp6212
V2
p6213
aV0
p6214
ag6
(g10
S'\x01\x00\x00\x00'
p6215
tp6216
Rp6217
tp6218
a((lp6219
V0
p6220
aV2
p6221
ag6
(g10
S'\xff\xff\xff\xff'
p6222
tp6223
Rp6224
tp6225
a((lp6226
V2
p6227
aV1
p6228
ag6
(g10
S'\x01\x00\x00\x00'
p6229
tp6230
Rp6231
tp6232
a((lp6233
V3
p6234
aV2
p6235
ag6
(g10
S'\x01\x00\x00\x00'
p6236
tp6237
Rp6238
tp6239
a((lp6240
V0
p6241
aV0
p6242
ag6
(g10
S'\x01\x00\x00\x00'
p6243
tp6244
Rp6245
tp6246
a((lp6247
V0
p6248
aV1
p6249
ag6
(g10
S'\xff\xff\xff\xff'
p6250
tp6251
Rp6252
tp6253
a((lp6254
V0
p6255
aV0
p6256
ag6
(g10
S'\x01\x00\x00\x00'
p6257
tp6258
Rp6259
tp6260
a((lp6261
V1
p6262
aV2
p6263
ag6
(g10
S'\x01\x00\x00\x00'
p6264
tp6265
Rp6266
tp6267
a((lp6268
V3
p6269
aV1
p6270
ag6
(g10
S'\xff\xff\xff\xff'
p6271
tp6272
Rp6273
tp6274
a((lp6275
V1
p6276
aV3
p6277
ag6
(g10
S'\x01\x00\x00\x00'
p6278
tp6279
Rp6280
tp6281
a((lp6282
V0
p6283
aV1
p6284
ag6
(g10
S'\x01\x00\x00\x00'
p6285
tp6286
Rp6287
tp6288
a((lp6289
V1
p6290
aV2
p6291
ag6
(g10
S'\xff\xff\xff\xff'
p6292
tp6293
Rp6294
tp6295
a((lp6296
V1
p6297
aV1
p6298
ag6
(g10
S'\x01\x00\x00\x00'
p6299
tp6300
Rp6301
tp6302
a((lp6303
V3
p6304
aV2
p6305
ag6
(g10
S'\xff\xff\xff\xff'
p6306
tp6307
Rp6308
tp6309
a((lp6310
V1
p6311
aV1
p6312
ag6
(g10
S'\x01\x00\x00\x00'
p6313
tp6314
Rp6315
tp6316
a((lp6317
V2
p6318
aV0
p6319
ag6
(g10
S'\x01\x00\x00\x00'
p6320
tp6321
Rp6322
tp6323
a((lp6324
V0
p6325
aV0
p6326
ag6
(g10
S'\xff\xff\xff\xff'
p6327
tp6328
Rp6329
tp6330
a((lp6331
V0
p6332
aV3
p6333
ag6
(g10
S'\xff\xff\xff\xff'
p6334
tp6335
Rp6336
tp6337
a((lp6338
V2
p6339
aV1
p6340
ag6
(g10
S'\xff\xff\xff\xff'
p6341
tp6342
Rp6343
tp6344
a((lp6345
V2
p6346
aV3
p6347
ag6
(g10
S'\xff\xff\xff\xff'
p6348
tp6349
Rp6350
tp6351
a((lp6352
V0
p6353
aV1
p6354
ag6
(g10
S'\xff\xff\xff\xff'
p6355
tp6356
Rp6357
tp6358
a((lp6359
V1
p6360
aV1
p6361
ag6
(g10
S'\xff\xff\xff\xff'
p6362
tp6363
Rp6364
tp6365
a((lp6366
V0
p6367
aV0
p6368
ag6
(g10
S'\xff\xff\xff\xff'
p6369
tp6370
Rp6371
tp6372
a((lp6373
V0
p6374
aV4
p6375
ag6
(g10
S'\xff\xff\xff\xff'
p6376
tp6377
Rp6378
tp6379
a((lp6380
V0
p6381
aV2
p6382
ag6
(g10
S'\xff\xff\xff\xff'
p6383
tp6384
Rp6385
tp6386
a((lp6387
V1
p6388
aV2
p6389
ag6
(g10
S'\xff\xff\xff\xff'
p6390
tp6391
Rp6392
tp6393
a((lp6394
V0
p6395
aV2
p6396
ag6
(g10
S'\xff\xff\xff\xff'
p6397
tp6398
Rp6399
tp6400
a((lp6401
V1
p6402
aV1
p6403
ag6
(g10
S'\xff\xff\xff\xff'
p6404
tp6405
Rp6406
tp6407
a((lp6408
V2
p6409
aV1
p6410
ag6
(g10
S'\x01\x00\x00\x00'
p6411
tp6412
Rp6413
tp6414
a((lp6415
V1
p6416
aV0
p6417
ag6
(g10
S'\xff\xff\xff\xff'
p6418
tp6419
Rp6420
tp6421
a((lp6422
V1
p6423
aV1
p6424
ag6
(g10
S'\x01\x00\x00\x00'
p6425
tp6426
Rp6427
tp6428
a((lp6429
V0
p6430
aV1
p6431
ag6
(g10
S'\x01\x00\x00\x00'
p6432
tp6433
Rp6434
tp6435
a((lp6436
V0
p6437
aV0
p6438
ag6
(g10
S'\x01\x00\x00\x00'
p6439
tp6440
Rp6441
tp6442
a((lp6443
V0
p6444
aV0
p6445
ag6
(g10
S'\x01\x00\x00\x00'
p6446
tp6447
Rp6448
tp6449
a((lp6450
V0
p6451
aV1
p6452
ag6
(g10
S'\x01\x00\x00\x00'
p6453
tp6454
Rp6455
tp6456
a((lp6457
V2
p6458
aV1
p6459
ag6
(g10
S'\xff\xff\xff\xff'
p6460
tp6461
Rp6462
tp6463
a((lp6464
V1
p6465
aV3
p6466
ag6
(g10
S'\x01\x00\x00\x00'
p6467
tp6468
Rp6469
tp6470
a((lp6471
V3
p6472
aV1
p6473
ag6
(g10
S'\x01\x00\x00\x00'
p6474
tp6475
Rp6476
tp6477
a((lp6478
V0
p6479
aV1
p6480
ag6
(g10
S'\x01\x00\x00\x00'
p6481
tp6482
Rp6483
tp6484
a((lp6485
V1
p6486
aV3
p6487
ag6
(g10
S'\x01\x00\x00\x00'
p6488
tp6489
Rp6490
tp6491
a((lp6492
V1
p6493
aV1
p6494
ag6
(g10
S'\x01\x00\x00\x00'
p6495
tp6496
Rp6497
tp6498
a((lp6499
V2
p6500
aV1
p6501
ag6
(g10
S'\x01\x00\x00\x00'
p6502
tp6503
Rp6504
tp6505
a((lp6506
V2
p6507
aV0
p6508
ag6
(g10
S'\x01\x00\x00\x00'
p6509
tp6510
Rp6511
tp6512
a((lp6513
V0
p6514
aV3
p6515
ag6
(g10
S'\x01\x00\x00\x00'
p6516
tp6517
Rp6518
tp6519
a((lp6520
V2
p6521
aV1
p6522
ag6
(g10
S'\x01\x00\x00\x00'
p6523
tp6524
Rp6525
tp6526
a((lp6527
V1
p6528
aV1
p6529
ag6
(g10
S'\x01\x00\x00\x00'
p6530
tp6531
Rp6532
tp6533
a((lp6534
V1
p6535
aV3
p6536
ag6
(g10
S'\xff\xff\xff\xff'
p6537
tp6538
Rp6539
tp6540
a((lp6541
V3
p6542
aV1
p6543
ag6
(g10
S'\x01\x00\x00\x00'
p6544
tp6545
Rp6546
tp6547
a((lp6548
V1
p6549
aV0
p6550
ag6
(g10
S'\x01\x00\x00\x00'
p6551
tp6552
Rp6553
tp6554
a((lp6555
V1
p6556
aV3
p6557
ag6
(g10
S'\x01\x00\x00\x00'
p6558
tp6559
Rp6560
tp6561
a((lp6562
V3
p6563
aV0
p6564
ag6
(g10
S'\xff\xff\xff\xff'
p6565
tp6566
Rp6567
tp6568
a((lp6569
V1
p6570
aV1
p6571
ag6
(g10
S'\x01\x00\x00\x00'
p6572
tp6573
Rp6574
tp6575
a((lp6576
V3
p6577
aV2
p6578
ag6
(g10
S'\x01\x00\x00\x00'
p6579
tp6580
Rp6581
tp6582
a((lp6583
V0
p6584
aV1
p6585
ag6
(g10
S'\x01\x00\x00\x00'
p6586
tp6587
Rp6588
tp6589
a((lp6590
V0
p6591
aV1
p6592
ag6
(g10
S'\x01\x00\x00\x00'
p6593
tp6594
Rp6595
tp6596
a((lp6597
V2
p6598
aV0
p6599
ag6
(g10
S'\x01\x00\x00\x00'
p6600
tp6601
Rp6602
tp6603
a((lp6604
V1
p6605
aV3
p6606
ag6
(g10
S'\x01\x00\x00\x00'
p6607
tp6608
Rp6609
tp6610
a((lp6611
V0
p6612
aV2
p6613
ag6
(g10
S'\x01\x00\x00\x00'
p6614
tp6615
Rp6616
tp6617
a((lp6618
V3
p6619
aV3
p6620
ag6
(g10
S'\x01\x00\x00\x00'
p6621
tp6622
Rp6623
tp6624
a((lp6625
V1
p6626
aV2
p6627
ag6
(g10
S'\x01\x00\x00\x00'
p6628
tp6629
Rp6630
tp6631
a((lp6632
V0
p6633
aV0
p6634
ag6
(g10
S'\xff\xff\xff\xff'
p6635
tp6636
Rp6637
tp6638
a((lp6639
V2
p6640
aV1
p6641
ag6
(g10
S'\x01\x00\x00\x00'
p6642
tp6643
Rp6644
tp6645
a((lp6646
V0
p6647
aV0
p6648
ag6
(g10
S'\x01\x00\x00\x00'
p6649
tp6650
Rp6651
tp6652
a((lp6653
V1
p6654
aV3
p6655
ag6
(g10
S'\xff\xff\xff\xff'
p6656
tp6657
Rp6658
tp6659
a((lp6660
V2
p6661
aV2
p6662
ag6
(g10
S'\xff\xff\xff\xff'
p6663
tp6664
Rp6665
tp6666
a((lp6667
V3
p6668
aV3
p6669
ag6
(g10
S'\x01\x00\x00\x00'
p6670
tp6671
Rp6672
tp6673
a((lp6674
V4
p6675
aV0
p6676
ag6
(g10
S'\x01\x00\x00\x00'
p6677
tp6678
Rp6679
tp6680
a((lp6681
V3
p6682
aV1
p6683
ag6
(g10
S'\x01\x00\x00\x00'
p6684
tp6685
Rp6686
tp6687
a((lp6688
V3
p6689
aV0
p6690
ag6
(g10
S'\x01\x00\x00\x00'
p6691
tp6692
Rp6693
tp6694
a((lp6695
V2
p6696
aV2
p6697
ag6
(g10
S'\x01\x00\x00\x00'
p6698
tp6699
Rp6700
tp6701
a((lp6702
V5
p6703
aV1
p6704
ag6
(g10
S'\x01\x00\x00\x00'
p6705
tp6706
Rp6707
tp6708
a((lp6709
V3
p6710
aV2
p6711
ag6
(g10
S'\x01\x00\x00\x00'
p6712
tp6713
Rp6714
tp6715
a((lp6716
V4
p6717
aV1
p6718
ag6
(g10
S'\x01\x00\x00\x00'
p6719
tp6720
Rp6721
tp6722
a((lp6723
V4
p6724
aV1
p6725
ag6
(g10
S'\x01\x00\x00\x00'
p6726
tp6727
Rp6728
tp6729
a((lp6730
V2
p6731
aV0
p6732
ag6
(g10
S'\x01\x00\x00\x00'
p6733
tp6734
Rp6735
tp6736
a((lp6737
V1
p6738
aV0
p6739
ag6
(g10
S'\x01\x00\x00\x00'
p6740
tp6741
Rp6742
tp6743
a((lp6744
V3
p6745
aV1
p6746
ag6
(g10
S'\x01\x00\x00\x00'
p6747
tp6748
Rp6749
tp6750
a((lp6751
V0
p6752
aV0
p6753
ag6
(g10
S'\xff\xff\xff\xff'
p6754
tp6755
Rp6756
tp6757
a((lp6758
V5
p6759
aV0
p6760
ag6
(g10
S'\x01\x00\x00\x00'
p6761
tp6762
Rp6763
tp6764
a((lp6765
V3
p6766
aV0
p6767
ag6
(g10
S'\x01\x00\x00\x00'
p6768
tp6769
Rp6770
tp6771
a((lp6772
V2
p6773
aV1
p6774
ag6
(g10
S'\x01\x00\x00\x00'
p6775
tp6776
Rp6777
tp6778
a((lp6779
V5
p6780
aV1
p6781
ag6
(g10
S'\x01\x00\x00\x00'
p6782
tp6783
Rp6784
tp6785
a((lp6786
V5
p6787
aV1
p6788
ag6
(g10
S'\x01\x00\x00\x00'
p6789
tp6790
Rp6791
tp6792
a((lp6793
V4
p6794
aV0
p6795
ag6
(g10
S'\x01\x00\x00\x00'
p6796
tp6797
Rp6798
tp6799
a((lp6800
V4
p6801
aV0
p6802
ag6
(g10
S'\x01\x00\x00\x00'
p6803
tp6804
Rp6805
tp6806
a((lp6807
V2
p6808
aV0
p6809
ag6
(g10
S'\x01\x00\x00\x00'
p6810
tp6811
Rp6812
tp6813
a((lp6814
V2
p6815
aV0
p6816
ag6
(g10
S'\x01\x00\x00\x00'
p6817
tp6818
Rp6819
tp6820
a((lp6821
V2
p6822
aV0
p6823
ag6
(g10
S'\x01\x00\x00\x00'
p6824
tp6825
Rp6826
tp6827
a((lp6828
V3
p6829
aV1
p6830
ag6
(g10
S'\x01\x00\x00\x00'
p6831
tp6832
Rp6833
tp6834
a((lp6835
V1
p6836
aV2
p6837
ag6
(g10
S'\x01\x00\x00\x00'
p6838
tp6839
Rp6840
tp6841
asS'score'
p6842
g6
(g7
(S'f8'
p6843
I0
I1
tp6844
Rp6845
(I3
S'<'
p6846
NNNI-1
I-1
I0
tp6847
bS'\x93!XG\x9b\xf7\xdd?'
p6848
tp6849
Rp6850
sS'dict'
p6851
(dp6852
I0
F0.0
sI1
F0.5
sI2
F0.5306122448979592
sI3
F0.3877551020408163
sI4
F0.5510204081632653
sI5
F0.5918367346938775
sI6
F0.48
sI7
F0.45652173913043476
sI8
F0.4230769230769231
sI9
F0.5652173913043478
sI10
F0.5283018867924528
sI11
F0.5106382978723404
sI12
F0.4
sI13
F0.425531914893617
sI14
F0.38
sI15
F0.32
sI16
F0.4883720930232558
sI17
F0.375
sI18
F0.3783783783783784
sI19
F0.5853658536585366
sI20
F0.41379310344827586
sI21
F0.5789473684210527
sI22
F0.5555555555555556
sI23
F0.3333333333333333
sI24
F0.6666666666666666
sI25
F0.4444444444444444
sI26
F0.0
sI27
F0.0
sI28
F0.0
sI29
F0.0
sI30
F0.0
sI31
F0.0
sI32
F0.0
sI33
F0.0
sI34
F0.0
sI35
F0.0
sI36
F0.0
sI37
F0.0
sI38
F0.0
sI39
F0.0
sI40
F0.0
sI41
F0.0
sI42
F0.0
sI43
F0.0
sI44
F0.0
sI45
F0.0
sI46
F0.0
sI47
F0.0
sI48
F0.0
sI49
F0.0
sI50
F0.0
sI51
F0.0
sI52
F0.0
sI53
F0.0
sI54
F0.0
sI55
F0.0
sI56
F0.0
sI57
F0.0
sI58
F0.0
sI59
F0.0
sI60
F0.0
ss.