(dp0
I1
F0.5015563372342994
sI3
F0.5055771929269102
sI5
F0.5115281576708031
sI7
F0.5092434957081916
sI9
F0.5122459454901438
sI11
F0.5092345473405973
sI13
F0.510460014524228
sI15
F0.5112811146859976
s.